EXPORTS
 "R_init_ef"
 "_ZN4Rcpp10RstreambufILb0EE4syncEv"
 "_ZN4Rcpp10RstreambufILb0EE6xsputnEPKcx"
 "_ZN4Rcpp10RstreambufILb0EE8overflowEi"
 "_ZN4Rcpp10RstreambufILb0EEC1Ev"
 "_ZN4Rcpp10RstreambufILb0EED0Ev"
 "_ZN4Rcpp10RstreambufILb0EED1Ev"
 "_ZN4Rcpp10RstreambufILb1EE4syncEv"
 "_ZN4Rcpp10RstreambufILb1EE6xsputnEPKcx"
 "_ZN4Rcpp10RstreambufILb1EE8overflowEi"
 "_ZN4Rcpp10RstreambufILb1EEC1Ev"
 "_ZN4Rcpp10RstreambufILb1EED0Ev"
 "_ZN4Rcpp10RstreambufILb1EED1Ev"
 "_ZN4Rcpp8RostreamILb0EEC1Ev"
 "_ZN4Rcpp8RostreamILb0EED0Ev"
 "_ZN4Rcpp8RostreamILb0EED1Ev"
 "_ZN4Rcpp8RostreamILb1EEC1Ev"
 "_ZN4Rcpp8RostreamILb1EED0Ev"
 "_ZN4Rcpp8RostreamILb1EED1Ev"
 "_ZN4Rcpp8internal16NamedPlaceHolderC1Ev"
 "_ZN4Rcpp8internal16NamedPlaceHolderD1Ev"
 "_ZNSt11char_traitsIcE12to_char_typeERKi"
 "_ZNSt11char_traitsIcE3eofEv"
 "_ZTCN4Rcpp8RostreamILb0EEE0_So"
 "_ZTCN4Rcpp8RostreamILb1EEE0_So"
 "_ZTIN4Rcpp10RstreambufILb0EEE"
 "_ZTIN4Rcpp10RstreambufILb1EEE"
 "_ZTIN4Rcpp8RostreamILb0EEE"
 "_ZTIN4Rcpp8RostreamILb1EEE"
 "_ZTSN4Rcpp10RstreambufILb0EEE"
 "_ZTSN4Rcpp10RstreambufILb1EEE"
 "_ZTSN4Rcpp8RostreamILb0EEE"
 "_ZTSN4Rcpp8RostreamILb1EEE"
 "_ZTTN4Rcpp8RostreamILb0EEE"
 "_ZTTN4Rcpp8RostreamILb1EEE"
 "_ZTVN4Rcpp10RstreambufILb0EEE"
 "_ZTVN4Rcpp10RstreambufILb1EEE"
 "_ZTVN4Rcpp8RostreamILb0EEE"
 "_ZTVN4Rcpp8RostreamILb1EEE"
 "_ZTv0_n24_N4Rcpp8RostreamILb0EED0Ev"
 "_ZTv0_n24_N4Rcpp8RostreamILb0EED1Ev"
 "_ZTv0_n24_N4Rcpp8RostreamILb1EED0Ev"
 "_ZTv0_n24_N4Rcpp8RostreamILb1EED1Ev"
 "_Z13get_last_callv"
 "_Z14make_conditionRKNSt7__cxx1112basic_stringIcSt11char_traitsIcESaIcEEEP7SEXPRECS8_S8_"
 "_Z15getCurrentScopev"
 "_Z15setCurrentScopePN4Rcpp6ModuleE"
 "_Z19char_get_string_eltP7SEXPRECx"
 "_Z19string_to_try_errorRKNSt7__cxx1112basic_stringIcSt11char_traitsIcESaIcEEE"
 "_Z20rcpp_get_stack_tracev"
 "_Z20rcpp_set_stack_traceP7SEXPREC"
 "_Z21get_exception_classesRKNSt7__cxx1112basic_stringIcSt11char_traitsIcESaIcEEE"
 "_Z24exception_to_r_conditionRKSt9exception"
 "_Z29rcpp_exception_to_r_conditionRKN4Rcpp9exceptionE"
 "_Z31exception_to_condition_templateIN4Rcpp9exceptionEEP7SEXPRECRKT_b"
 "_Z31exception_to_condition_templateISt9exceptionEP7SEXPRECRKT_b"
 "_Z33_rcpp_module_stan_fit4ef_mod_initv"
 "_Z7dataptrP7SEXPREC"
 "_Z8demangleRKNSt7__cxx1112basic_stringIcSt11char_traitsIcESaIcEEE"
 "_ZGVZ15getCurrentScopevE3fun"
 "_ZGVZ15setCurrentScopePN4Rcpp6ModuleEE3fun"
 "_ZGVZ19char_get_string_eltP7SEXPRECxE3fun"
 "_ZGVZ20rcpp_get_stack_tracevE3fun"
 "_ZGVZ20rcpp_set_stack_traceP7SEXPRECE3fun"
 "_ZGVZ7dataptrP7SEXPRECE3fun"
 "_ZGVZ8demangleRKNSt7__cxx1112basic_stringIcSt11char_traitsIcESaIcEEEE3funB5cxx11"
 "_ZGVZN4Rcpp8internal18get_Rcpp_namespaceEvE3fun"
 "_ZGVZN5Eigen8internal20manage_caching_sizesENS_6ActionEPxS2_S2_E12m_cacheSizes"
 "_ZGVZN5Eigen8internal4pexpIDv2_dEET_RKS3_E10p4i_1023_0"
 "_ZGVZN5boost16exception_detail27get_static_exception_objectINS0_10bad_alloc_EEENS_13exception_ptrEvE2ep"
 "_ZGVZN5boost16exception_detail27get_static_exception_objectINS0_14bad_exception_EEENS_13exception_ptrEvE2ep"
 "_ZGVZN5boost4math6detail13bessel_i0_impIeEET_RKS3_RKN4mpl_4int_ILi64EEEE1P"
 "_ZGVZN5boost4math6detail13bessel_i0_impIeEET_RKS3_RKN4mpl_4int_ILi64EEEE1P_0"
 "_ZGVZN5boost4math6detail13bessel_i0_impIeEET_RKS3_RKN4mpl_4int_ILi64EEEE1P_1"
 "_ZGVZN5boost4math6detail13bessel_i0_impIeEET_RKS3_RKN4mpl_4int_ILi64EEEE1P_2"
 "_ZGVZN5boost4math6detail13bessel_i0_impIeEET_RKS3_RKN4mpl_4int_ILi64EEEE1P_3"
 "_ZGVZN5boost4math6detail13bessel_i1_impIeEET_RKS3_RKN4mpl_4int_ILi64EEEE1P"
 "_ZGVZN5boost4math6detail13bessel_i1_impIeEET_RKS3_RKN4mpl_4int_ILi64EEEE1P_0"
 "_ZGVZN5boost4math6detail13bessel_i1_impIeEET_RKS3_RKN4mpl_4int_ILi64EEEE1P_1"
 "_ZGVZN5boost4math6detail13bessel_i1_impIeEET_RKS3_RKN4mpl_4int_ILi64EEEE1P_2"
 "_ZGVZN5boost4math6detail13bessel_k0_impIeEET_RKS3_RKN4mpl_4int_ILi64EEEE1P"
 "_ZGVZN5boost4math6detail13bessel_k0_impIeEET_RKS3_RKN4mpl_4int_ILi64EEEE1P_0"
 "_ZGVZN5boost4math6detail13bessel_k0_impIeEET_RKS3_RKN4mpl_4int_ILi64EEEE1Q"
 "_ZGVZN5boost4math6detail13bessel_k0_impIeEET_RKS3_RKN4mpl_4int_ILi64EEEE1Q_0"
 "_ZGVZN5boost4math6detail13bessel_k0_impIeEET_RKS3_RKN4mpl_4int_ILi64EEEE2P2"
 "_ZGVZN5boost4math6detail13bessel_k0_impIeEET_RKS3_RKN4mpl_4int_ILi64EEEE2Q2"
 "_ZGVZN5boost4math6detail13bessel_k1_impIeEET_RKS3_RKN4mpl_4int_ILi64EEEE1P"
 "_ZGVZN5boost4math6detail13bessel_k1_impIeEET_RKS3_RKN4mpl_4int_ILi64EEEE1P_0"
 "_ZGVZN5boost4math6detail13bessel_k1_impIeEET_RKS3_RKN4mpl_4int_ILi64EEEE1Q"
 "_ZGVZN5boost4math6detail13bessel_k1_impIeEET_RKS3_RKN4mpl_4int_ILi64EEEE1Q_0"
 "_ZGVZN5boost4math6detail13bessel_k1_impIeEET_RKS3_RKN4mpl_4int_ILi64EEEE2P2"
 "_ZGVZN5boost4math6detail13bessel_k1_impIeEET_RKS3_RKN4mpl_4int_ILi64EEEE2Q2"
 "_ZGVZN5boost4math6detail14owens_t_T3_impIeEET_S3_S3_S3_RKN4mpl_4int_ILi64EEEE2c2"
 "_ZGVZN5boost4math6detail14owens_t_T5_impIeEET_S3_S3_RKN4mpl_4int_ILi64EEEE3pts"
 "_ZGVZN5boost4math6detail14owens_t_T5_impIeEET_S3_S3_RKN4mpl_4int_ILi64EEEE3wts"
 "_ZGVZN5boost4math6detail15digamma_imp_1_2IdEET_S3_PKN4mpl_4int_ILi53EEEE1P"
 "_ZGVZN5boost4math6detail15digamma_imp_1_2IdEET_S3_PKN4mpl_4int_ILi53EEEE1Q"
 "_ZGVZN5boost4math6detail15digamma_imp_1_2IdEET_S3_PKN4mpl_4int_ILi53EEEE5root3"
 "_ZGVZN5boost4math6detail15digamma_imp_1_2IeEET_S3_PKN4mpl_4int_ILi64EEEE1P"
 "_ZGVZN5boost4math6detail15digamma_imp_1_2IeEET_S3_PKN4mpl_4int_ILi64EEEE1Q"
 "_ZGVZN5boost4math6detail15digamma_imp_1_2IeEET_S3_PKN4mpl_4int_ILi64EEEE5root3"
 "_ZGVZN5boost4math6detail16lgamma_small_impIdNS0_8policies6policyINS3_10pole_errorILNS3_17error_policy_typeE1EEENS3_14overflow_errorILS6_1EEENS3_13promote_floatILb0EEENS3_14promote_doubleILb0EEENS3_14default_policyESE_SE_SE_SE_SE_SE_SE_SE_EENS0_7lanczos12lanczos13m53EEET_SI_SI_SI_RKN4mpl_4int_ILi64EEERKT0_RKT1_E1P"
 "_ZGVZN5boost4math6detail16lgamma_small_impIdNS0_8policies6policyINS3_10pole_errorILNS3_17error_policy_typeE1EEENS3_14overflow_errorILS6_1EEENS3_13promote_floatILb0EEENS3_14promote_doubleILb0EEENS3_14default_policyESE_SE_SE_SE_SE_SE_SE_SE_EENS0_7lanczos12lanczos13m53EEET_SI_SI_SI_RKN4mpl_4int_ILi64EEERKT0_RKT1_E1P_0"
 "_ZGVZN5boost4math6detail16lgamma_small_impIdNS0_8policies6policyINS3_10pole_errorILNS3_17error_policy_typeE1EEENS3_14overflow_errorILS6_1EEENS3_13promote_floatILb0EEENS3_14promote_doubleILb0EEENS3_14default_policyESE_SE_SE_SE_SE_SE_SE_SE_EENS0_7lanczos12lanczos13m53EEET_SI_SI_SI_RKN4mpl_4int_ILi64EEERKT0_RKT1_E1P_1"
 "_ZGVZN5boost4math6detail16lgamma_small_impIdNS0_8policies6policyINS3_10pole_errorILNS3_17error_policy_typeE1EEENS3_14overflow_errorILS6_1EEENS3_13promote_floatILb0EEENS3_14promote_doubleILb0EEENS3_14default_policyESE_SE_SE_SE_SE_SE_SE_SE_EENS0_7lanczos12lanczos13m53EEET_SI_SI_SI_RKN4mpl_4int_ILi64EEERKT0_RKT1_E1Q"
 "_ZGVZN5boost4math6detail16lgamma_small_impIdNS0_8policies6policyINS3_10pole_errorILNS3_17error_policy_typeE1EEENS3_14overflow_errorILS6_1EEENS3_13promote_floatILb0EEENS3_14promote_doubleILb0EEENS3_14default_policyESE_SE_SE_SE_SE_SE_SE_SE_EENS0_7lanczos12lanczos13m53EEET_SI_SI_SI_RKN4mpl_4int_ILi64EEERKT0_RKT1_E1Q_0"
 "_ZGVZN5boost4math6detail16lgamma_small_impIdNS0_8policies6policyINS3_10pole_errorILNS3_17error_policy_typeE1EEENS3_14overflow_errorILS6_1EEENS3_13promote_floatILb0EEENS3_14promote_doubleILb0EEENS3_14default_policyESE_SE_SE_SE_SE_SE_SE_SE_EENS0_7lanczos12lanczos13m53EEET_SI_SI_SI_RKN4mpl_4int_ILi64EEERKT0_RKT1_E1Q_1"
 "_ZGVZN5boost4math6detail16lgamma_small_impIeNS0_8policies6policyINS3_13promote_floatILb0EEENS3_14promote_doubleILb0EEENS3_14default_policyES9_S9_S9_S9_S9_S9_S9_S9_S9_S9_EENS0_7lanczos12lanczos17m64EEET_SD_SD_SD_RKN4mpl_4int_ILi64EEERKT0_RKT1_E1P"
 "_ZGVZN5boost4math6detail16lgamma_small_impIeNS0_8policies6policyINS3_13promote_floatILb0EEENS3_14promote_doubleILb0EEENS3_14default_policyES9_S9_S9_S9_S9_S9_S9_S9_S9_S9_EENS0_7lanczos12lanczos17m64EEET_SD_SD_SD_RKN4mpl_4int_ILi64EEERKT0_RKT1_E1P_0"
 "_ZGVZN5boost4math6detail16lgamma_small_impIeNS0_8policies6policyINS3_13promote_floatILb0EEENS3_14promote_doubleILb0EEENS3_14default_policyES9_S9_S9_S9_S9_S9_S9_S9_S9_S9_EENS0_7lanczos12lanczos17m64EEET_SD_SD_SD_RKN4mpl_4int_ILi64EEERKT0_RKT1_E1P_1"
 "_ZGVZN5boost4math6detail16lgamma_small_impIeNS0_8policies6policyINS3_13promote_floatILb0EEENS3_14promote_doubleILb0EEENS3_14default_policyES9_S9_S9_S9_S9_S9_S9_S9_S9_S9_EENS0_7lanczos12lanczos17m64EEET_SD_SD_SD_RKN4mpl_4int_ILi64EEERKT0_RKT1_E1Q"
 "_ZGVZN5boost4math6detail16lgamma_small_impIeNS0_8policies6policyINS3_13promote_floatILb0EEENS3_14promote_doubleILb0EEENS3_14default_policyES9_S9_S9_S9_S9_S9_S9_S9_S9_S9_EENS0_7lanczos12lanczos17m64EEET_SD_SD_SD_RKN4mpl_4int_ILi64EEERKT0_RKT1_E1Q_0"
 "_ZGVZN5boost4math6detail16lgamma_small_impIeNS0_8policies6policyINS3_13promote_floatILb0EEENS3_14promote_doubleILb0EEENS3_14default_policyES9_S9_S9_S9_S9_S9_S9_S9_S9_S9_EENS0_7lanczos12lanczos17m64EEET_SD_SD_SD_RKN4mpl_4int_ILi64EEERKT0_RKT1_E1Q_1"
 "_ZGVZN5boost4math6detail17digamma_imp_largeIdEET_S3_PKN4mpl_4int_ILi53EEEE1P"
 "_ZGVZN5boost4math6detail17digamma_imp_largeIeEET_S3_PKN4mpl_4int_ILi64EEEE1P"
 "_ZGVZN5boost4math6detail18igamma_temme_largeIeNS0_8policies6policyINS3_13promote_floatILb0EEENS3_14promote_doubleILb0EEENS3_14default_policyES9_S9_S9_S9_S9_S9_S9_S9_S9_S9_EEEET_SB_SB_RKT0_PKN4mpl_4int_ILi64EEEE2C0"
 "_ZGVZN5boost4math6detail18igamma_temme_largeIeNS0_8policies6policyINS3_13promote_floatILb0EEENS3_14promote_doubleILb0EEENS3_14default_policyES9_S9_S9_S9_S9_S9_S9_S9_S9_S9_EEEET_SB_SB_RKT0_PKN4mpl_4int_ILi64EEEE2C1"
 "_ZGVZN5boost4math6detail18igamma_temme_largeIeNS0_8policies6policyINS3_13promote_floatILb0EEENS3_14promote_doubleILb0EEENS3_14default_policyES9_S9_S9_S9_S9_S9_S9_S9_S9_S9_EEEET_SB_SB_RKT0_PKN4mpl_4int_ILi64EEEE2C2"
 "_ZGVZN5boost4math6detail18igamma_temme_largeIeNS0_8policies6policyINS3_13promote_floatILb0EEENS3_14promote_doubleILb0EEENS3_14default_policyES9_S9_S9_S9_S9_S9_S9_S9_S9_S9_EEEET_SB_SB_RKT0_PKN4mpl_4int_ILi64EEEE2C3"
 "_ZGVZN5boost4math6detail18igamma_temme_largeIeNS0_8policies6policyINS3_13promote_floatILb0EEENS3_14promote_doubleILb0EEENS3_14default_policyES9_S9_S9_S9_S9_S9_S9_S9_S9_S9_EEEET_SB_SB_RKT0_PKN4mpl_4int_ILi64EEEE2C4"
 "_ZGVZN5boost4math6detail18igamma_temme_largeIeNS0_8policies6policyINS3_13promote_floatILb0EEENS3_14promote_doubleILb0EEENS3_14default_policyES9_S9_S9_S9_S9_S9_S9_S9_S9_S9_EEEET_SB_SB_RKT0_PKN4mpl_4int_ILi64EEEE2C5"
 "_ZGVZN5boost4math6detail18igamma_temme_largeIeNS0_8policies6policyINS3_13promote_floatILb0EEENS3_14promote_doubleILb0EEENS3_14default_policyES9_S9_S9_S9_S9_S9_S9_S9_S9_S9_EEEET_SB_SB_RKT0_PKN4mpl_4int_ILi64EEEE2C6"
 "_ZGVZN5boost4math6detail18igamma_temme_largeIeNS0_8policies6policyINS3_13promote_floatILb0EEENS3_14promote_doubleILb0EEENS3_14default_policyES9_S9_S9_S9_S9_S9_S9_S9_S9_S9_EEEET_SB_SB_RKT0_PKN4mpl_4int_ILi64EEEE2C7"
 "_ZGVZN5boost4math6detail18igamma_temme_largeIeNS0_8policies6policyINS3_13promote_floatILb0EEENS3_14promote_doubleILb0EEENS3_14default_policyES9_S9_S9_S9_S9_S9_S9_S9_S9_S9_EEEET_SB_SB_RKT0_PKN4mpl_4int_ILi64EEEE2C8"
 "_ZGVZN5boost4math6detail18igamma_temme_largeIeNS0_8policies6policyINS3_13promote_floatILb0EEENS3_14promote_doubleILb0EEENS3_14default_policyES9_S9_S9_S9_S9_S9_S9_S9_S9_S9_EEEET_SB_SB_RKT0_PKN4mpl_4int_ILi64EEEE2C9"
 "_ZGVZN5boost4math6detail18igamma_temme_largeIeNS0_8policies6policyINS3_13promote_floatILb0EEENS3_14promote_doubleILb0EEENS3_14default_policyES9_S9_S9_S9_S9_S9_S9_S9_S9_S9_EEEET_SB_SB_RKT0_PKN4mpl_4int_ILi64EEEE3C10"
 "_ZGVZN5boost4math6detail18igamma_temme_largeIeNS0_8policies6policyINS3_13promote_floatILb0EEENS3_14promote_doubleILb0EEENS3_14default_policyES9_S9_S9_S9_S9_S9_S9_S9_S9_S9_EEEET_SB_SB_RKT0_PKN4mpl_4int_ILi64EEEE3C11"
 "_ZGVZN5boost4math6detail18igamma_temme_largeIeNS0_8policies6policyINS3_13promote_floatILb0EEENS3_14promote_doubleILb0EEENS3_14default_policyES9_S9_S9_S9_S9_S9_S9_S9_S9_S9_EEEET_SB_SB_RKT0_PKN4mpl_4int_ILi64EEEE3C12"
 "_ZGVZN5boost4math6detail7erf_impIdNS0_8policies6policyINS3_10pole_errorILNS3_17error_policy_typeE1EEENS3_14overflow_errorILS6_1EEENS3_13promote_floatILb0EEENS3_14promote_doubleILb0EEENS3_14default_policyESE_SE_SE_SE_SE_SE_SE_SE_EEEET_SG_bRKT0_RKN4mpl_4int_ILi53EEEE1P"
 "_ZGVZN5boost4math6detail7erf_impIdNS0_8policies6policyINS3_10pole_errorILNS3_17error_policy_typeE1EEENS3_14overflow_errorILS6_1EEENS3_13promote_floatILb0EEENS3_14promote_doubleILb0EEENS3_14default_policyESE_SE_SE_SE_SE_SE_SE_SE_EEEET_SG_bRKT0_RKN4mpl_4int_ILi53EEEE1P_0"
 "_ZGVZN5boost4math6detail7erf_impIdNS0_8policies6policyINS3_10pole_errorILNS3_17error_policy_typeE1EEENS3_14overflow_errorILS6_1EEENS3_13promote_floatILb0EEENS3_14promote_doubleILb0EEENS3_14default_policyESE_SE_SE_SE_SE_SE_SE_SE_EEEET_SG_bRKT0_RKN4mpl_4int_ILi53EEEE1P_1"
 "_ZGVZN5boost4math6detail7erf_impIdNS0_8policies6policyINS3_10pole_errorILNS3_17error_policy_typeE1EEENS3_14overflow_errorILS6_1EEENS3_13promote_floatILb0EEENS3_14promote_doubleILb0EEENS3_14default_policyESE_SE_SE_SE_SE_SE_SE_SE_EEEET_SG_bRKT0_RKN4mpl_4int_ILi53EEEE1P_2"
 "_ZGVZN5boost4math6detail7erf_impIdNS0_8policies6policyINS3_10pole_errorILNS3_17error_policy_typeE1EEENS3_14overflow_errorILS6_1EEENS3_13promote_floatILb0EEENS3_14promote_doubleILb0EEENS3_14default_policyESE_SE_SE_SE_SE_SE_SE_SE_EEEET_SG_bRKT0_RKN4mpl_4int_ILi53EEEE1P_3"
 "_ZGVZN5boost4math6detail7erf_impIdNS0_8policies6policyINS3_10pole_errorILNS3_17error_policy_typeE1EEENS3_14overflow_errorILS6_1EEENS3_13promote_floatILb0EEENS3_14promote_doubleILb0EEENS3_14default_policyESE_SE_SE_SE_SE_SE_SE_SE_EEEET_SG_bRKT0_RKN4mpl_4int_ILi53EEEE1Q"
 "_ZGVZN5boost4math6detail7erf_impIdNS0_8policies6policyINS3_10pole_errorILNS3_17error_policy_typeE1EEENS3_14overflow_errorILS6_1EEENS3_13promote_floatILb0EEENS3_14promote_doubleILb0EEENS3_14default_policyESE_SE_SE_SE_SE_SE_SE_SE_EEEET_SG_bRKT0_RKN4mpl_4int_ILi53EEEE1Q_0"
 "_ZGVZN5boost4math6detail7erf_impIdNS0_8policies6policyINS3_10pole_errorILNS3_17error_policy_typeE1EEENS3_14overflow_errorILS6_1EEENS3_13promote_floatILb0EEENS3_14promote_doubleILb0EEENS3_14default_policyESE_SE_SE_SE_SE_SE_SE_SE_EEEET_SG_bRKT0_RKN4mpl_4int_ILi53EEEE1Q_1"
 "_ZGVZN5boost4math6detail7erf_impIdNS0_8policies6policyINS3_10pole_errorILNS3_17error_policy_typeE1EEENS3_14overflow_errorILS6_1EEENS3_13promote_floatILb0EEENS3_14promote_doubleILb0EEENS3_14default_policyESE_SE_SE_SE_SE_SE_SE_SE_EEEET_SG_bRKT0_RKN4mpl_4int_ILi53EEEE1Q_2"
 "_ZGVZN5boost4math6detail7erf_impIdNS0_8policies6policyINS3_10pole_errorILNS3_17error_policy_typeE1EEENS3_14overflow_errorILS6_1EEENS3_13promote_floatILb0EEENS3_14promote_doubleILb0EEENS3_14default_policyESE_SE_SE_SE_SE_SE_SE_SE_EEEET_SG_bRKT0_RKN4mpl_4int_ILi53EEEE1Q_3"
 "_ZGVZN5boost4math6detail7erf_impIdNS0_8policies6policyINS3_10pole_errorILNS3_17error_policy_typeE1EEENS3_14overflow_errorILS6_1EEENS3_13promote_floatILb0EEENS3_14promote_doubleILb0EEENS3_14default_policyESE_SE_SE_SE_SE_SE_SE_SE_EEEET_SG_bRKT0_RKN4mpl_4int_ILi53EEEE1c"
 "_ZGVZN5boost4math6detail7erf_impIeNS0_8policies6policyINS3_13promote_floatILb0EEENS3_14promote_doubleILb0EEENS3_14default_policyES9_S9_S9_S9_S9_S9_S9_S9_S9_S9_EEEET_SB_bRKT0_RKN4mpl_4int_ILi64EEEE1P"
 "_ZGVZN5boost4math6detail7erf_impIeNS0_8policies6policyINS3_13promote_floatILb0EEENS3_14promote_doubleILb0EEENS3_14default_policyES9_S9_S9_S9_S9_S9_S9_S9_S9_S9_EEEET_SB_bRKT0_RKN4mpl_4int_ILi64EEEE1P_0"
 "_ZGVZN5boost4math6detail7erf_impIeNS0_8policies6policyINS3_13promote_floatILb0EEENS3_14promote_doubleILb0EEENS3_14default_policyES9_S9_S9_S9_S9_S9_S9_S9_S9_S9_EEEET_SB_bRKT0_RKN4mpl_4int_ILi64EEEE1P_1"
 "_ZGVZN5boost4math6detail7erf_impIeNS0_8policies6policyINS3_13promote_floatILb0EEENS3_14promote_doubleILb0EEENS3_14default_policyES9_S9_S9_S9_S9_S9_S9_S9_S9_S9_EEEET_SB_bRKT0_RKN4mpl_4int_ILi64EEEE1P_2"
 "_ZGVZN5boost4math6detail7erf_impIeNS0_8policies6policyINS3_13promote_floatILb0EEENS3_14promote_doubleILb0EEENS3_14default_policyES9_S9_S9_S9_S9_S9_S9_S9_S9_S9_EEEET_SB_bRKT0_RKN4mpl_4int_ILi64EEEE1P_3"
 "_ZGVZN5boost4math6detail7erf_impIeNS0_8policies6policyINS3_13promote_floatILb0EEENS3_14promote_doubleILb0EEENS3_14default_policyES9_S9_S9_S9_S9_S9_S9_S9_S9_S9_EEEET_SB_bRKT0_RKN4mpl_4int_ILi64EEEE1Q"
 "_ZGVZN5boost4math6detail7erf_impIeNS0_8policies6policyINS3_13promote_floatILb0EEENS3_14promote_doubleILb0EEENS3_14default_policyES9_S9_S9_S9_S9_S9_S9_S9_S9_S9_EEEET_SB_bRKT0_RKN4mpl_4int_ILi64EEEE1Q_0"
 "_ZGVZN5boost4math6detail7erf_impIeNS0_8policies6policyINS3_13promote_floatILb0EEENS3_14promote_doubleILb0EEENS3_14default_policyES9_S9_S9_S9_S9_S9_S9_S9_S9_S9_EEEET_SB_bRKT0_RKN4mpl_4int_ILi64EEEE1Q_1"
 "_ZGVZN5boost4math6detail7erf_impIeNS0_8policies6policyINS3_13promote_floatILb0EEENS3_14promote_doubleILb0EEENS3_14default_policyES9_S9_S9_S9_S9_S9_S9_S9_S9_S9_EEEET_SB_bRKT0_RKN4mpl_4int_ILi64EEEE1Q_2"
 "_ZGVZN5boost4math6detail7erf_impIeNS0_8policies6policyINS3_13promote_floatILb0EEENS3_14promote_doubleILb0EEENS3_14default_policyES9_S9_S9_S9_S9_S9_S9_S9_S9_S9_EEEET_SB_bRKT0_RKN4mpl_4int_ILi64EEEE1Q_3"
 "_ZGVZN5boost4math6detail7erf_impIeNS0_8policies6policyINS3_13promote_floatILb0EEENS3_14promote_doubleILb0EEENS3_14default_policyES9_S9_S9_S9_S9_S9_S9_S9_S9_S9_EEEET_SB_bRKT0_RKN4mpl_4int_ILi64EEEE1c"
 "_ZGVZN5boost4math6detail9bessel_j0IeEET_S3_E2P1"
 "_ZGVZN5boost4math6detail9bessel_j0IeEET_S3_E2P2"
 "_ZGVZN5boost4math6detail9bessel_j0IeEET_S3_E2PC"
 "_ZGVZN5boost4math6detail9bessel_j0IeEET_S3_E2PS"
 "_ZGVZN5boost4math6detail9bessel_j0IeEET_S3_E2Q1"
 "_ZGVZN5boost4math6detail9bessel_j0IeEET_S3_E2Q2"
 "_ZGVZN5boost4math6detail9bessel_j0IeEET_S3_E2QC"
 "_ZGVZN5boost4math6detail9bessel_j0IeEET_S3_E2QS"
 "_ZGVZN5boost4math6detail9bessel_j0IeEET_S3_E2x1"
 "_ZGVZN5boost4math6detail9bessel_j0IeEET_S3_E2x2"
 "_ZGVZN5boost4math6detail9bessel_j0IeEET_S3_E3x11"
 "_ZGVZN5boost4math6detail9bessel_j0IeEET_S3_E3x12"
 "_ZGVZN5boost4math6detail9bessel_j0IeEET_S3_E3x21"
 "_ZGVZN5boost4math6detail9bessel_j0IeEET_S3_E3x22"
 "_ZGVZN5boost4math6detail9bessel_j1IeEET_S3_E2P1"
 "_ZGVZN5boost4math6detail9bessel_j1IeEET_S3_E2P2"
 "_ZGVZN5boost4math6detail9bessel_j1IeEET_S3_E2PC"
 "_ZGVZN5boost4math6detail9bessel_j1IeEET_S3_E2PS"
 "_ZGVZN5boost4math6detail9bessel_j1IeEET_S3_E2Q1"
 "_ZGVZN5boost4math6detail9bessel_j1IeEET_S3_E2Q2"
 "_ZGVZN5boost4math6detail9bessel_j1IeEET_S3_E2QC"
 "_ZGVZN5boost4math6detail9bessel_j1IeEET_S3_E2QS"
 "_ZGVZN5boost4math6detail9bessel_j1IeEET_S3_E2x1"
 "_ZGVZN5boost4math6detail9bessel_j1IeEET_S3_E2x2"
 "_ZGVZN5boost4math6detail9bessel_j1IeEET_S3_E3x11"
 "_ZGVZN5boost4math6detail9bessel_j1IeEET_S3_E3x12"
 "_ZGVZN5boost4math6detail9bessel_j1IeEET_S3_E3x21"
 "_ZGVZN5boost4math6detail9bessel_j1IeEET_S3_E3x22"
 "_ZGVZN5boost4math6detail9bessel_y0IeNS0_8policies6policyINS3_13promote_floatILb0EEENS3_14promote_doubleILb0EEENS3_14default_policyES9_S9_S9_S9_S9_S9_S9_S9_S9_S9_EEEET_SB_RKT0_E2P1"
 "_ZGVZN5boost4math6detail9bessel_y0IeNS0_8policies6policyINS3_13promote_floatILb0EEENS3_14promote_doubleILb0EEENS3_14default_policyES9_S9_S9_S9_S9_S9_S9_S9_S9_S9_EEEET_SB_RKT0_E2P2"
 "_ZGVZN5boost4math6detail9bessel_y0IeNS0_8policies6policyINS3_13promote_floatILb0EEENS3_14promote_doubleILb0EEENS3_14default_policyES9_S9_S9_S9_S9_S9_S9_S9_S9_S9_EEEET_SB_RKT0_E2P3"
 "_ZGVZN5boost4math6detail9bessel_y0IeNS0_8policies6policyINS3_13promote_floatILb0EEENS3_14promote_doubleILb0EEENS3_14default_policyES9_S9_S9_S9_S9_S9_S9_S9_S9_S9_EEEET_SB_RKT0_E2PC"
 "_ZGVZN5boost4math6detail9bessel_y0IeNS0_8policies6policyINS3_13promote_floatILb0EEENS3_14promote_doubleILb0EEENS3_14default_policyES9_S9_S9_S9_S9_S9_S9_S9_S9_S9_EEEET_SB_RKT0_E2PS"
 "_ZGVZN5boost4math6detail9bessel_y0IeNS0_8policies6policyINS3_13promote_floatILb0EEENS3_14promote_doubleILb0EEENS3_14default_policyES9_S9_S9_S9_S9_S9_S9_S9_S9_S9_EEEET_SB_RKT0_E2Q1"
 "_ZGVZN5boost4math6detail9bessel_y0IeNS0_8policies6policyINS3_13promote_floatILb0EEENS3_14promote_doubleILb0EEENS3_14default_policyES9_S9_S9_S9_S9_S9_S9_S9_S9_S9_EEEET_SB_RKT0_E2Q2"
 "_ZGVZN5boost4math6detail9bessel_y0IeNS0_8policies6policyINS3_13promote_floatILb0EEENS3_14promote_doubleILb0EEENS3_14default_policyES9_S9_S9_S9_S9_S9_S9_S9_S9_S9_EEEET_SB_RKT0_E2Q3"
 "_ZGVZN5boost4math6detail9bessel_y0IeNS0_8policies6policyINS3_13promote_floatILb0EEENS3_14promote_doubleILb0EEENS3_14default_policyES9_S9_S9_S9_S9_S9_S9_S9_S9_S9_EEEET_SB_RKT0_E2QC"
 "_ZGVZN5boost4math6detail9bessel_y0IeNS0_8policies6policyINS3_13promote_floatILb0EEENS3_14promote_doubleILb0EEENS3_14default_policyES9_S9_S9_S9_S9_S9_S9_S9_S9_S9_EEEET_SB_RKT0_E2QS"
 "_ZGVZN5boost4math6detail9bessel_y0IeNS0_8policies6policyINS3_13promote_floatILb0EEENS3_14promote_doubleILb0EEENS3_14default_policyES9_S9_S9_S9_S9_S9_S9_S9_S9_S9_EEEET_SB_RKT0_E2x1"
 "_ZGVZN5boost4math6detail9bessel_y0IeNS0_8policies6policyINS3_13promote_floatILb0EEENS3_14promote_doubleILb0EEENS3_14default_policyES9_S9_S9_S9_S9_S9_S9_S9_S9_S9_EEEET_SB_RKT0_E2x2"
 "_ZGVZN5boost4math6detail9bessel_y0IeNS0_8policies6policyINS3_13promote_floatILb0EEENS3_14promote_doubleILb0EEENS3_14default_policyES9_S9_S9_S9_S9_S9_S9_S9_S9_S9_EEEET_SB_RKT0_E2x3"
 "_ZGVZN5boost4math6detail9bessel_y0IeNS0_8policies6policyINS3_13promote_floatILb0EEENS3_14promote_doubleILb0EEENS3_14default_policyES9_S9_S9_S9_S9_S9_S9_S9_S9_S9_EEEET_SB_RKT0_E3x11"
 "_ZGVZN5boost4math6detail9bessel_y0IeNS0_8policies6policyINS3_13promote_floatILb0EEENS3_14promote_doubleILb0EEENS3_14default_policyES9_S9_S9_S9_S9_S9_S9_S9_S9_S9_EEEET_SB_RKT0_E3x12"
 "_ZGVZN5boost4math6detail9bessel_y0IeNS0_8policies6policyINS3_13promote_floatILb0EEENS3_14promote_doubleILb0EEENS3_14default_policyES9_S9_S9_S9_S9_S9_S9_S9_S9_S9_EEEET_SB_RKT0_E3x21"
 "_ZGVZN5boost4math6detail9bessel_y0IeNS0_8policies6policyINS3_13promote_floatILb0EEENS3_14promote_doubleILb0EEENS3_14default_policyES9_S9_S9_S9_S9_S9_S9_S9_S9_S9_EEEET_SB_RKT0_E3x22"
 "_ZGVZN5boost4math6detail9bessel_y0IeNS0_8policies6policyINS3_13promote_floatILb0EEENS3_14promote_doubleILb0EEENS3_14default_policyES9_S9_S9_S9_S9_S9_S9_S9_S9_S9_EEEET_SB_RKT0_E3x31"
 "_ZGVZN5boost4math6detail9bessel_y0IeNS0_8policies6policyINS3_13promote_floatILb0EEENS3_14promote_doubleILb0EEENS3_14default_policyES9_S9_S9_S9_S9_S9_S9_S9_S9_S9_EEEET_SB_RKT0_E3x32"
 "_ZGVZN5boost4math6detail9bessel_y1IeNS0_8policies6policyINS3_13promote_floatILb0EEENS3_14promote_doubleILb0EEENS3_14default_policyES9_S9_S9_S9_S9_S9_S9_S9_S9_S9_EEEET_SB_RKT0_E2P1"
 "_ZGVZN5boost4math6detail9bessel_y1IeNS0_8policies6policyINS3_13promote_floatILb0EEENS3_14promote_doubleILb0EEENS3_14default_policyES9_S9_S9_S9_S9_S9_S9_S9_S9_S9_EEEET_SB_RKT0_E2P2"
 "_ZGVZN5boost4math6detail9bessel_y1IeNS0_8policies6policyINS3_13promote_floatILb0EEENS3_14promote_doubleILb0EEENS3_14default_policyES9_S9_S9_S9_S9_S9_S9_S9_S9_S9_EEEET_SB_RKT0_E2PC"
 "_ZGVZN5boost4math6detail9bessel_y1IeNS0_8policies6policyINS3_13promote_floatILb0EEENS3_14promote_doubleILb0EEENS3_14default_policyES9_S9_S9_S9_S9_S9_S9_S9_S9_S9_EEEET_SB_RKT0_E2PS"
 "_ZGVZN5boost4math6detail9bessel_y1IeNS0_8policies6policyINS3_13promote_floatILb0EEENS3_14promote_doubleILb0EEENS3_14default_policyES9_S9_S9_S9_S9_S9_S9_S9_S9_S9_EEEET_SB_RKT0_E2Q1"
 "_ZGVZN5boost4math6detail9bessel_y1IeNS0_8policies6policyINS3_13promote_floatILb0EEENS3_14promote_doubleILb0EEENS3_14default_policyES9_S9_S9_S9_S9_S9_S9_S9_S9_S9_EEEET_SB_RKT0_E2Q2"
 "_ZGVZN5boost4math6detail9bessel_y1IeNS0_8policies6policyINS3_13promote_floatILb0EEENS3_14promote_doubleILb0EEENS3_14default_policyES9_S9_S9_S9_S9_S9_S9_S9_S9_S9_EEEET_SB_RKT0_E2QC"
 "_ZGVZN5boost4math6detail9bessel_y1IeNS0_8policies6policyINS3_13promote_floatILb0EEENS3_14promote_doubleILb0EEENS3_14default_policyES9_S9_S9_S9_S9_S9_S9_S9_S9_S9_EEEET_SB_RKT0_E2QS"
 "_ZGVZN5boost4math6detail9bessel_y1IeNS0_8policies6policyINS3_13promote_floatILb0EEENS3_14promote_doubleILb0EEENS3_14default_policyES9_S9_S9_S9_S9_S9_S9_S9_S9_S9_EEEET_SB_RKT0_E2x1"
 "_ZGVZN5boost4math6detail9bessel_y1IeNS0_8policies6policyINS3_13promote_floatILb0EEENS3_14promote_doubleILb0EEENS3_14default_policyES9_S9_S9_S9_S9_S9_S9_S9_S9_S9_EEEET_SB_RKT0_E2x2"
 "_ZGVZN5boost4math6detail9bessel_y1IeNS0_8policies6policyINS3_13promote_floatILb0EEENS3_14promote_doubleILb0EEENS3_14default_policyES9_S9_S9_S9_S9_S9_S9_S9_S9_S9_EEEET_SB_RKT0_E3x11"
 "_ZGVZN5boost4math6detail9bessel_y1IeNS0_8policies6policyINS3_13promote_floatILb0EEENS3_14promote_doubleILb0EEENS3_14default_policyES9_S9_S9_S9_S9_S9_S9_S9_S9_S9_EEEET_SB_RKT0_E3x12"
 "_ZGVZN5boost4math6detail9bessel_y1IeNS0_8policies6policyINS3_13promote_floatILb0EEENS3_14promote_doubleILb0EEENS3_14default_policyES9_S9_S9_S9_S9_S9_S9_S9_S9_S9_EEEET_SB_RKT0_E3x21"
 "_ZGVZN5boost4math6detail9bessel_y1IeNS0_8policies6policyINS3_13promote_floatILb0EEENS3_14promote_doubleILb0EEENS3_14default_policyES9_S9_S9_S9_S9_S9_S9_S9_S9_S9_EEEET_SB_RKT0_E3x22"
 "_ZGVZN5boost4math6detail9expm1_impIeNS0_8policies6policyINS3_13promote_floatILb0EEENS3_14promote_doubleILb0EEENS3_14default_policyES9_S9_S9_S9_S9_S9_S9_S9_S9_S9_EEEET_SB_RKN4mpl_4int_ILi64EEERKT0_E1d"
 "_ZGVZN5boost4math6detail9expm1_impIeNS0_8policies6policyINS3_13promote_floatILb0EEENS3_14promote_doubleILb0EEENS3_14default_policyES9_S9_S9_S9_S9_S9_S9_S9_S9_S9_EEEET_SB_RKN4mpl_4int_ILi64EEERKT0_E1n"
 "_ZGVZN5boost4math6detail9log1p_impIeNS0_8policies6policyINS3_13promote_floatILb0EEENS3_14promote_doubleILb0EEENS3_14default_policyES9_S9_S9_S9_S9_S9_S9_S9_S9_S9_EEEET_RKSB_RKT0_RKN4mpl_4int_ILi64EEEE1P"
 "_ZGVZN5boost4math6detail9log1p_impIeNS0_8policies6policyINS3_13promote_floatILb0EEENS3_14promote_doubleILb0EEENS3_14default_policyES9_S9_S9_S9_S9_S9_S9_S9_S9_S9_EEEET_RKSB_RKT0_RKN4mpl_4int_ILi64EEEE1Q"
 "_ZGVZN5boost4math7lanczos12lanczos17m6411lanczos_sumIeEET_RKS4_E3num"
 "_ZGVZN5boost4math7lanczos12lanczos17m6418lanczos_sum_near_1IeEET_RKS4_E1d"
 "_ZGVZN5boost4math7lanczos12lanczos17m6418lanczos_sum_near_2IeEET_RKS4_E1d"
 "_ZGVZN5boost4math7lanczos12lanczos17m6423lanczos_sum_expG_scaledIeEET_RKS4_E3num"
 "_ZGVZN5rstan8stan_fitIN18model_ef_namespace8model_efEN5boost6random23additive_combine_engineINS4_26linear_congruential_engineIjLj40014ELj0ELj2147483563EEENS6_IjLj40692ELj0ELj2147483399EEEEEE12call_samplerEP7SEXPRECE8stop_sym"
 "_ZGVZN5rstan8stan_fitIN18model_ef_namespace8model_efEN5boost6random23additive_combine_engineINS4_26linear_congruential_engineIjLj40014ELj0ELj2147483563EEENS6_IjLj40692ELj0ELj2147483399EEEEEE13grad_log_probEP7SEXPRECSC_E8stop_sym"
 "_ZGVZN5rstan8stan_fitIN18model_ef_namespace8model_efEN5boost6random23additive_combine_engineINS4_26linear_congruential_engineIjLj40014ELj0ELj2147483563EEENS6_IjLj40692ELj0ELj2147483399EEEEEE13param_oi_tidxEP7SEXPRECE8stop_sym"
 "_ZGVZN5rstan8stan_fitIN18model_ef_namespace8model_efEN5boost6random23additive_combine_engineINS4_26linear_congruential_engineIjLj40014ELj0ELj2147483563EEENS6_IjLj40692ELj0ELj2147483399EEEEEE14constrain_parsEP7SEXPRECE8stop_sym"
 "_ZGVZN5rstan8stan_fitIN18model_ef_namespace8model_efEN5boost6random23additive_combine_engineINS4_26linear_congruential_engineIjLj40014ELj0ELj2147483563EEENS6_IjLj40692ELj0ELj2147483399EEEEEE14standalone_gqsEP7SEXPRECSC_E8stop_sym"
 "_ZGVZN5rstan8stan_fitIN18model_ef_namespace8model_efEN5boost6random23additive_combine_engineINS4_26linear_congruential_engineIjLj40014ELj0ELj2147483563EEENS6_IjLj40692ELj0ELj2147483399EEEEEE16unconstrain_parsEP7SEXPRECE8stop_sym"
 "_ZGVZN5rstan8stan_fitIN18model_ef_namespace8model_efEN5boost6random23additive_combine_engineINS4_26linear_congruential_engineIjLj40014ELj0ELj2147483563EEENS6_IjLj40692ELj0ELj2147483399EEEEEE22num_pars_unconstrainedEvE8stop_sym"
 "_ZGVZN5rstan8stan_fitIN18model_ef_namespace8model_efEN5boost6random23additive_combine_engineINS4_26linear_congruential_engineIjLj40014ELj0ELj2147483563EEENS6_IjLj40692ELj0ELj2147483399EEEEEE23constrained_param_namesEP7SEXPRECSC_E8stop_sym"
 "_ZGVZN5rstan8stan_fitIN18model_ef_namespace8model_efEN5boost6random23additive_combine_engineINS4_26linear_congruential_engineIjLj40014ELj0ELj2147483563EEENS6_IjLj40692ELj0ELj2147483399EEEEEE25unconstrained_param_namesEP7SEXPRECSC_E8stop_sym"
 "_ZGVZN5rstan8stan_fitIN18model_ef_namespace8model_efEN5boost6random23additive_combine_engineINS4_26linear_congruential_engineIjLj40014ELj0ELj2147483563EEENS6_IjLj40692ELj0ELj2147483399EEEEEE8log_probEP7SEXPRECSC_SC_E8stop_sym"
 "_ZGVZNK4stan11variational15normal_fullrank7entropyEvE4mult"
 "_ZGVZNK5rstan8stan_fitIN18model_ef_namespace8model_efEN5boost6random23additive_combine_engineINS4_26linear_congruential_engineIjLj40014ELj0ELj2147483563EEENS6_IjLj40692ELj0ELj2147483399EEEEEE10param_dimsEvE8stop_sym"
 "_ZGVZNK5rstan8stan_fitIN18model_ef_namespace8model_efEN5boost6random23additive_combine_engineINS4_26linear_congruential_engineIjLj40014ELj0ELj2147483563EEENS6_IjLj40692ELj0ELj2147483399EEEEEE11param_namesEvE8stop_sym"
 "_ZGVZNK5rstan8stan_fitIN18model_ef_namespace8model_efEN5boost6random23additive_combine_engineINS4_26linear_congruential_engineIjLj40014ELj0ELj2147483563EEENS6_IjLj40692ELj0ELj2147483399EEEEEE13param_dims_oiEvE8stop_sym"
 "_ZGVZNK5rstan8stan_fitIN18model_ef_namespace8model_efEN5boost6random23additive_combine_engineINS4_26linear_congruential_engineIjLj40014ELj0ELj2147483563EEENS6_IjLj40692ELj0ELj2147483399EEEEEE14param_names_oiEvE8stop_sym"
 "_ZGVZNK5rstan8stan_fitIN18model_ef_namespace8model_efEN5boost6random23additive_combine_engineINS4_26linear_congruential_engineIjLj40014ELj0ELj2147483563EEENS6_IjLj40692ELj0ELj2147483399EEEEEE15param_fnames_oiEvE8stop_sym"
 "_ZN10tinyformat10FormatListC2EPNS_6detail9FormatArgEi"
 "_ZN10tinyformat11formatValueINSt7__cxx1112basic_stringIcSt11char_traitsIcESaIcEEEEEvRSoPKcS9_iRKT_"
 "_ZN10tinyformat11formatValueIPKcEEvRSoS2_S2_iRKT_"
 "_ZN10tinyformat11formatValueIiEEvRSoPKcS3_iRKT_"
 "_ZN10tinyformat14makeFormatListIJEEENS_6detail11FormatListNIXsZT_EEEDpRKT_"
 "_ZN10tinyformat14makeFormatListIJNSt7__cxx1112basic_stringIcSt11char_traitsIcESaIcEEEEEENS_6detail11FormatListNIXsZT_EEEDpRKT_"
 "_ZN10tinyformat14makeFormatListIJPKcEEENS_6detail11FormatListNIXsZT_EEEDpRKT_"
 "_ZN10tinyformat14makeFormatListIJPKciEEENS_6detail11FormatListNIXsZT_EEEDpRKT_"
 "_ZN10tinyformat14makeFormatListIJiEEENS_6detail11FormatListNIXsZT_EEEDpRKT_"
 "_ZN10tinyformat6detail10formatImplERSoPKcPKNS0_9FormatArgEi"
 "_ZN10tinyformat6detail11FormatListNILi0EEC1Ev"
 "_ZN10tinyformat6detail11FormatListNILi1EEC1IJNSt7__cxx1112basic_stringIcSt11char_traitsIcESaIcEEEEEEDpRKT_"
 "_ZN10tinyformat6detail11FormatListNILi1EEC1IJPKcEEEDpRKT_"
 "_ZN10tinyformat6detail11FormatListNILi1EEC1IJiEEEDpRKT_"
 "_ZN10tinyformat6detail11FormatListNILi2EEC1IJPKciEEEDpRKT_"
 "_ZN10tinyformat6detail12convertToIntINSt7__cxx1112basic_stringIcSt11char_traitsIcESaIcEEELb0EE6invokeERKS7_"
 "_ZN10tinyformat6detail12convertToIntIPKcLb0EE6invokeERKS3_"
 "_ZN10tinyformat6detail12convertToIntIiLb1EE6invokeERKi"
 "_ZN10tinyformat6detail15formatTruncatedERSoPKci"
 "_ZN10tinyformat6detail15formatTruncatedINSt7__cxx1112basic_stringIcSt11char_traitsIcESaIcEEEEEvRSoRKT_i"
 "_ZN10tinyformat6detail15formatTruncatedIiEEvRSoRKT_i"
 "_ZN10tinyformat6detail17formatValueAsTypeIPKcPKvLb1EE6invokeERSoRKS3_"
 "_ZN10tinyformat6detail17formatValueAsTypeIicLb1EE6invokeERSoRKi"
 "_ZN10tinyformat6detail18parseIntAndAdvanceERPKc"
 "_ZN10tinyformat6detail21streamStateFromFormatERSoRbRiPKcPKNS0_9FormatArgES3_i"
 "_ZN10tinyformat6detail24printFormatStringLiteralERSoPKc"
 "_ZN10tinyformat6detail9FormatArg10formatImplINSt7__cxx1112basic_stringIcSt11char_traitsIcESaIcEEEEEvRSoPKcSB_iPKv"
 "_ZN10tinyformat6detail9FormatArg10formatImplIPKcEEvRSoS4_S4_iPKv"
 "_ZN10tinyformat6detail9FormatArg10formatImplIiEEvRSoPKcS5_iPKv"
 "_ZN10tinyformat6detail9FormatArg9toIntImplINSt7__cxx1112basic_stringIcSt11char_traitsIcESaIcEEEEEiPKv"
 "_ZN10tinyformat6detail9FormatArg9toIntImplIPKcEEiPKv"
 "_ZN10tinyformat6detail9FormatArg9toIntImplIiEEiPKv"
 "_ZN10tinyformat6detail9FormatArgC1INSt7__cxx1112basic_stringIcSt11char_traitsIcESaIcEEEEERKT_"
 "_ZN10tinyformat6detail9FormatArgC1IPKcEERKT_"
 "_ZN10tinyformat6detail9FormatArgC1IiEERKT_"
 "_ZN10tinyformat6formatIJEEENSt7__cxx1112basic_stringIcSt11char_traitsIcESaIcEEEPKcDpRKT_"
 "_ZN10tinyformat6formatIJEEEvRSoPKcDpRKT_"
 "_ZN10tinyformat6formatIJNSt7__cxx1112basic_stringIcSt11char_traitsIcESaIcEEEEEES6_PKcDpRKT_"
 "_ZN10tinyformat6formatIJNSt7__cxx1112basic_stringIcSt11char_traitsIcESaIcEEEEEEvRSoPKcDpRKT_"
 "_ZN10tinyformat6formatIJPKcEEENSt7__cxx1112basic_stringIcSt11char_traitsIcESaIcEEES2_DpRKT_"
 "_ZN10tinyformat6formatIJPKcEEEvRSoS2_DpRKT_"
 "_ZN10tinyformat6formatIJPKciEEENSt7__cxx1112basic_stringIcSt11char_traitsIcESaIcEEES2_DpRKT_"
 "_ZN10tinyformat6formatIJPKciEEEvRSoS2_DpRKT_"
 "_ZN10tinyformat6formatIJiEEENSt7__cxx1112basic_stringIcSt11char_traitsIcESaIcEEEPKcDpRKT_"
 "_ZN10tinyformat6formatIJiEEEvRSoPKcDpRKT_"
 "_ZN10tinyformat7vformatERSoPKcRKNS_10FormatListE"
 "_ZN18model_ef_namespace13prog_reader__Ev"
 "_ZN18model_ef_namespace8model_ef9ctor_bodyERN4stan2io11var_contextEjPSo"
 "_ZN18model_ef_namespace8model_efC1ERN4stan2io11var_contextEjPSo"
 "_ZN18model_ef_namespace8model_efD0Ev"
 "_ZN18model_ef_namespace8model_efD1Ev"
 "_ZN3tbb8internal11atomic_implIxE11to_bits_refIxEERNS2_9converterIT_E9bits_typeERS5_"
 "_ZN3tbb8internal11atomic_implIxE13ptr_converterIPxEC1ES4_"
 "_ZN3tbb8internal11atomic_implIxE5storeILNS_16memory_semanticsE3EEEvx"
 "_ZN3tbb8internal11atomic_implIxE7to_bitsIxEENS2_9converterIT_E9bits_typeES5_"
 "_ZN3tbb8internal11atomic_implIxE9converterIxEC1Ex"
 "_ZN3tbb8internal19__TBB_store_relaxedIxxEEvRVT_T0_"
 "_ZN3tbb8internal24atomic_load_store_traitsILNS_16memory_semanticsE3EE5storeIxEEvRVT_S5_"
 "_ZN3tbb8internal26machine_load_store_relaxedIxLy8EE5storeERVxx"
 "_ZN3tbb8internal26task_scheduler_observer_v317on_scheduler_exitEb"
 "_ZN3tbb8internal26task_scheduler_observer_v318on_scheduler_entryEb"
 "_ZN3tbb8internal26task_scheduler_observer_v3C2Ev"
 "_ZN3tbb8internal26task_scheduler_observer_v3D0Ev"
 "_ZN3tbb8internal26task_scheduler_observer_v3D1Ev"
 "_ZN3tbb8internal26task_scheduler_observer_v3D2Ev"
 "_ZN4Rcpp10CppMethod0IN5rstan8stan_fitIN18model_ef_namespace8model_efEN5boost6random23additive_combine_engineINS6_26linear_congruential_engineIjLj40014ELj0ELj2147483563EEENS8_IjLj40692ELj0ELj2147483399EEEEEEEP7SEXPRECEC1EMSC_FSE_vE"
 "_ZN4Rcpp10CppMethod1IN5rstan8stan_fitIN18model_ef_namespace8model_efEN5boost6random23additive_combine_engineINS6_26linear_congruential_engineIjLj40014ELj0ELj2147483563EEENS8_IjLj40692ELj0ELj2147483399EEEEEEEP7SEXPRECSE_EC1EMSC_FSE_SE_E"
 "_ZN4Rcpp10CppMethod2IN5rstan8stan_fitIN18model_ef_namespace8model_efEN5boost6random23additive_combine_engineINS6_26linear_congruential_engineIjLj40014ELj0ELj2147483563EEENS8_IjLj40692ELj0ELj2147483399EEEEEEEP7SEXPRECSE_SE_EC1EMSC_FSE_SE_SE_E"
 "_ZN4Rcpp10CppMethod3IN5rstan8stan_fitIN18model_ef_namespace8model_efEN5boost6random23additive_combine_engineINS6_26linear_congruential_engineIjLj40014ELj0ELj2147483563EEENS8_IjLj40692ELj0ELj2147483399EEEEEEEP7SEXPRECSE_SE_SE_EC1EMSC_FSE_SE_SE_SE_E"
 "_ZN4Rcpp10RstreambufILb0EE4syncEv"
 "_ZN4Rcpp10RstreambufILb0EE6xsputnEPKcx"
 "_ZN4Rcpp10RstreambufILb0EE8overflowEi"
 "_ZN4Rcpp10RstreambufILb0EEC1Ev"
 "_ZN4Rcpp10RstreambufILb0EED0Ev"
 "_ZN4Rcpp10RstreambufILb0EED1Ev"
 "_ZN4Rcpp10RstreambufILb1EE4syncEv"
 "_ZN4Rcpp10RstreambufILb1EE6xsputnEPKcx"
 "_ZN4Rcpp10RstreambufILb1EE8overflowEi"
 "_ZN4Rcpp10RstreambufILb1EEC1Ev"
 "_ZN4Rcpp10RstreambufILb1EED0Ev"
 "_ZN4Rcpp10RstreambufILb1EED1Ev"
 "_ZN4Rcpp10class_Base10getMethodsERKNS_4XPtrIS0_NS_15PreserveStorageEXadL_ZNS_25standard_delete_finalizerIS0_EEvPT_EELb0EEERNSt7__cxx1112basic_stringIcSt11char_traitsIcESaIcEEE"
 "_ZN4Rcpp10class_Base10has_methodERKNSt7__cxx1112basic_stringIcSt11char_traitsIcESaIcEEE"
 "_ZN4Rcpp10class_Base11getPropertyEP7SEXPRECS2_"
 "_ZN4Rcpp10class_Base11invoke_voidEP7SEXPRECS2_PS2_i"
 "_ZN4Rcpp10class_Base11newInstanceEPP7SEXPRECi"
 "_ZN4Rcpp10class_Base11setPropertyEP7SEXPRECS2_S2_"
 "_ZN4Rcpp10class_Base12has_propertyERKNSt7__cxx1112basic_stringIcSt11char_traitsIcESaIcEEE"
 "_ZN4Rcpp10class_Base12method_namesEv"
 "_ZN4Rcpp10class_Base13methods_arityEv"
 "_ZN4Rcpp10class_Base13run_finalizerEP7SEXPREC"
 "_ZN4Rcpp10class_Base14invoke_notvoidEP7SEXPRECS2_PS2_i"
 "_ZN4Rcpp10class_Base14property_classERKNSt7__cxx1112basic_stringIcSt11char_traitsIcESaIcEEE"
 "_ZN4Rcpp10class_Base14property_namesEv"
 "_ZN4Rcpp10class_Base15getConstructorsERKNS_4XPtrIS0_NS_15PreserveStorageEXadL_ZNS_25standard_delete_finalizerIS0_EEvPT_EELb0EEERNSt7__cxx1112basic_stringIcSt11char_traitsIcESaIcEEE"
 "_ZN4Rcpp10class_Base16methods_voidnessEv"
 "_ZN4Rcpp10class_Base16property_classesEv"
 "_ZN4Rcpp10class_Base17get_typeinfo_nameB5cxx11Ev"
 "_ZN4Rcpp10class_Base20property_is_readonlyERKNSt7__cxx1112basic_stringIcSt11char_traitsIcESaIcEEE"
 "_ZN4Rcpp10class_Base23has_default_constructorEv"
 "_ZN4Rcpp10class_Base6fieldsERKNS_4XPtrIS0_NS_15PreserveStorageEXadL_ZNS_25standard_delete_finalizerIS0_EEvPT_EELb0EEE"
 "_ZN4Rcpp10class_Base6invokeEP7SEXPRECS2_PS2_i"
 "_ZN4Rcpp10class_Base8completeEv"
 "_ZN4Rcpp10class_BaseC2EPKcS2_"
 "_ZN4Rcpp10class_BaseC2Ev"
 "_ZN4Rcpp10class_BaseD0Ev"
 "_ZN4Rcpp10class_BaseD1Ev"
 "_ZN4Rcpp10class_BaseD2Ev"
 "_ZN4Rcpp10eval_errorC1ERKNSt7__cxx1112basic_stringIcSt11char_traitsIcESaIcEEE"
 "_ZN4Rcpp10eval_errorD0Ev"
 "_ZN4Rcpp10eval_errorD1Ev"
 "_ZN4Rcpp11module_wrapIP7SEXPRECEES2_RKT_"
 "_ZN4Rcpp12CppFinalizerIN5rstan8stan_fitIN18model_ef_namespace8model_efEN5boost6random23additive_combine_engineINS6_26linear_congruential_engineIjLj40014ELj0ELj2147483563EEENS8_IjLj40692ELj0ELj2147483399EEEEEEEEC1Ev"
 "_ZN4Rcpp12Rcpp_protectEP7SEXPREC"
 "_ZN4Rcpp12SignedMethodIN5rstan8stan_fitIN18model_ef_namespace8model_efEN5boost6random23additive_combine_engineINS6_26linear_congruential_engineIjLj40014ELj0ELj2147483563EEENS8_IjLj40692ELj0ELj2147483399EEEEEEEEC1EPNS_9CppMethodISC_EEPFbPP7SEXPRECiEPKc"
 "_ZN4Rcpp13Constructor_3IN5rstan8stan_fitIN18model_ef_namespace8model_efEN5boost6random23additive_combine_engineINS6_26linear_congruential_engineIjLj40014ELj0ELj2147483563EEENS8_IjLj40692ELj0ELj2147483399EEEEEEEP7SEXPRECSE_SE_EC1Ev"
 "_ZN4Rcpp13Function_ImplINS_15PreserveStorageEE6updateEP7SEXPREC"
 "_ZN4Rcpp13Function_ImplINS_15PreserveStorageEED1Ev"
 "_ZN4Rcpp13not_referenceC1Ev"
 "_ZN4Rcpp13not_referenceD0Ev"
 "_ZN4Rcpp13not_referenceD1Ev"
 "_ZN4Rcpp14Rcpp_fast_evalEP7SEXPRECS1_"
 "_ZN4Rcpp14Rcpp_unprotectEi"
 "_ZN4Rcpp14not_compatibleC1IJPKcEEES3_DpOT_"
 "_ZN4Rcpp14not_compatibleC1IJPKciEEES3_DpOT_"
 "_ZN4Rcpp14not_compatibleC1IJRKPKcEEES3_DpOT_"
 "_ZN4Rcpp14not_compatibleC1IJiEEEPKcDpOT_"
 "_ZN4Rcpp14not_compatibleD0Ev"
 "_ZN4Rcpp14not_compatibleD1Ev"
 "_ZN4Rcpp15PreserveStorageINS_13Function_ImplIS0_EEE5set__EP7SEXPREC"
 "_ZN4Rcpp15PreserveStorageINS_13Function_ImplIS0_EEEC2Ev"
 "_ZN4Rcpp15PreserveStorageINS_13Function_ImplIS0_EEED2Ev"
 "_ZN4Rcpp15PreserveStorageINS_4XPtrINS_6ModuleES0_XadL_ZNS_25standard_delete_finalizerIS2_EEvPT_EELb0EEEE5set__EP7SEXPREC"
 "_ZN4Rcpp15PreserveStorageINS_4XPtrINS_6ModuleES0_XadL_ZNS_25standard_delete_finalizerIS2_EEvPT_EELb0EEEEC2Ev"
 "_ZN4Rcpp15PreserveStorageINS_4XPtrINS_6ModuleES0_XadL_ZNS_25standard_delete_finalizerIS2_EEvPT_EELb0EEEED2Ev"
 "_ZN4Rcpp15PreserveStorageINS_6VectorILi10ES0_EEE5set__EP7SEXPREC"
 "_ZN4Rcpp15PreserveStorageINS_6VectorILi10ES0_EEEC2Ev"
 "_ZN4Rcpp15PreserveStorageINS_6VectorILi10ES0_EEED2Ev"
 "_ZN4Rcpp15PreserveStorageINS_6VectorILi13ES0_EEE5set__EP7SEXPREC"
 "_ZN4Rcpp15PreserveStorageINS_6VectorILi13ES0_EEEC2Ev"
 "_ZN4Rcpp15PreserveStorageINS_6VectorILi13ES0_EEED2Ev"
 "_ZN4Rcpp15PreserveStorageINS_6VectorILi14ES0_EEE5set__EP7SEXPREC"
 "_ZN4Rcpp15PreserveStorageINS_6VectorILi14ES0_EEE6copy__IS2_EERT_RKS5_"
 "_ZN4Rcpp15PreserveStorageINS_6VectorILi14ES0_EEEC2Ev"
 "_ZN4Rcpp15PreserveStorageINS_6VectorILi14ES0_EEED2Ev"
 "_ZN4Rcpp15PreserveStorageINS_6VectorILi16ES0_EEE5set__EP7SEXPREC"
 "_ZN4Rcpp15PreserveStorageINS_6VectorILi16ES0_EEEC2Ev"
 "_ZN4Rcpp15PreserveStorageINS_6VectorILi16ES0_EEED2Ev"
 "_ZN4Rcpp15PreserveStorageINS_6VectorILi19ES0_EEE5set__EP7SEXPREC"
 "_ZN4Rcpp15PreserveStorageINS_6VectorILi19ES0_EEE6copy__IS2_EERT_RKS5_"
 "_ZN4Rcpp15PreserveStorageINS_6VectorILi19ES0_EEEC2Ev"
 "_ZN4Rcpp15PreserveStorageINS_6VectorILi19ES0_EEED2Ev"
 "_ZN4Rcpp15get_return_typeIP7SEXPRECEENSt7__cxx1112basic_stringIcSt11char_traitsIcESaIcEEEv"
 "_ZN4Rcpp16Constructor_BaseIN5rstan8stan_fitIN18model_ef_namespace8model_efEN5boost6random23additive_combine_engineINS6_26linear_congruential_engineIjLj40014ELj0ELj2147483563EEENS8_IjLj40692ELj0ELj2147483399EEEEEEEEC2Ev"
 "_ZN4Rcpp16NamesProxyPolicyINS_6VectorILi13ENS_15PreserveStorageEEEE10NamesProxy3setEP7SEXPREC"
 "_ZN4Rcpp16NamesProxyPolicyINS_6VectorILi13ENS_15PreserveStorageEEEE10NamesProxyC1ERS3_"
 "_ZN4Rcpp16NamesProxyPolicyINS_6VectorILi13ENS_15PreserveStorageEEEE10NamesProxyaSINS1_ILi16ES2_EEEERS5_RKT_"
 "_ZN4Rcpp16NamesProxyPolicyINS_6VectorILi13ENS_15PreserveStorageEEEE5namesEv"
 "_ZN4Rcpp16NamesProxyPolicyINS_6VectorILi19ENS_15PreserveStorageEEEE10NamesProxy3setEP7SEXPREC"
 "_ZN4Rcpp16NamesProxyPolicyINS_6VectorILi19ENS_15PreserveStorageEEEE10NamesProxyC1ERS3_"
 "_ZN4Rcpp16NamesProxyPolicyINS_6VectorILi19ENS_15PreserveStorageEEEE10NamesProxyaSINS1_ILi16ES2_EEEERS5_RKT_"
 "_ZN4Rcpp16NamesProxyPolicyINS_6VectorILi19ENS_15PreserveStorageEEEE10NamesProxyaSISt6vectorINSt7__cxx1112basic_stringIcSt11char_traitsIcESaIcEEESaISD_EEEERS5_RKT_"
 "_ZN4Rcpp16NamesProxyPolicyINS_6VectorILi19ENS_15PreserveStorageEEEE5namesEv"
 "_ZN4Rcpp16const_CppMethod0IN5rstan8stan_fitIN18model_ef_namespace8model_efEN5boost6random23additive_combine_engineINS6_26linear_congruential_engineIjLj40014ELj0ELj2147483563EEENS8_IjLj40692ELj0ELj2147483399EEEEEEEP7SEXPRECEC1EMSC_KFSE_vE"
 "_ZN4Rcpp17SignedConstructorIN5rstan8stan_fitIN18model_ef_namespace8model_efEN5boost6random23additive_combine_engineINS6_26linear_congruential_engineIjLj40014ELj0ELj2147483563EEENS8_IjLj40692ELj0ELj2147483399EEEEEEEEC1EPNS_16Constructor_BaseISC_EEPFbPP7SEXPRECiEPKc"
 "_ZN4Rcpp17finalizer_wrapperINS_6ModuleEXadL_ZNS_25standard_delete_finalizerIS1_EEvPT_EEEEvP7SEXPREC"
 "_ZN4Rcpp18Rcpp_ReleaseObjectEP7SEXPREC"
 "_ZN4Rcpp18Rcpp_ReplaceObjectEP7SEXPRECS1_"
 "_ZN4Rcpp19Rcpp_PreserveObjectEP7SEXPREC"
 "_ZN4Rcpp19index_out_of_boundsC1IJEEEPKcDpOT_"
 "_ZN4Rcpp19index_out_of_boundsC1IJRKNSt7__cxx1112basic_stringIcSt11char_traitsIcESaIcEEEEEEPKcDpOT_"
 "_ZN4Rcpp19index_out_of_boundsD0Ev"
 "_ZN4Rcpp19index_out_of_boundsD1Ev"
 "_ZN4Rcpp20AttributeProxyPolicyINS_6VectorILi14ENS_15PreserveStorageEEEE14AttributeProxy3setEP7SEXPREC"
 "_ZN4Rcpp20AttributeProxyPolicyINS_6VectorILi14ENS_15PreserveStorageEEEE14AttributeProxyC1ERS3_RKNSt7__cxx1112basic_stringIcSt11char_traitsIcESaIcEEE"
 "_ZN4Rcpp20AttributeProxyPolicyINS_6VectorILi14ENS_15PreserveStorageEEEE14AttributeProxyaSINS_6ShieldIP7SEXPRECEEEERS5_RKT_"
 "_ZN4Rcpp20AttributeProxyPolicyINS_6VectorILi14ENS_15PreserveStorageEEEE14AttributeProxyaSISt6vectorIdSaIdEEEERS5_RKT_"
 "_ZN4Rcpp20AttributeProxyPolicyINS_6VectorILi14ENS_15PreserveStorageEEEE14AttributeProxyaSIdEERS5_RKT_"
 "_ZN4Rcpp20AttributeProxyPolicyINS_6VectorILi14ENS_15PreserveStorageEEEE4attrERKNSt7__cxx1112basic_stringIcSt11char_traitsIcESaIcEEE"
 "_ZN4Rcpp20AttributeProxyPolicyINS_6VectorILi19ENS_15PreserveStorageEEEE14AttributeProxy3setEP7SEXPREC"
 "_ZN4Rcpp20AttributeProxyPolicyINS_6VectorILi19ENS_15PreserveStorageEEEE14AttributeProxyC1ERS3_RKNSt7__cxx1112basic_stringIcSt11char_traitsIcESaIcEEE"
 "_ZN4Rcpp20AttributeProxyPolicyINS_6VectorILi19ENS_15PreserveStorageEEEE14AttributeProxyaSIA17_cEERS5_RKT_"
 "_ZN4Rcpp20AttributeProxyPolicyINS_6VectorILi19ENS_15PreserveStorageEEEE14AttributeProxyaSINS1_ILi14ES2_EEEERS5_RKT_"
 "_ZN4Rcpp20AttributeProxyPolicyINS_6VectorILi19ENS_15PreserveStorageEEEE14AttributeProxyaSINS_6ShieldIP7SEXPRECEEEERS5_RKT_"
 "_ZN4Rcpp20AttributeProxyPolicyINS_6VectorILi19ENS_15PreserveStorageEEEE14AttributeProxyaSINSt7__cxx1112basic_stringIcSt11char_traitsIcESaIcEEEEERS5_RKT_"
 "_ZN4Rcpp20AttributeProxyPolicyINS_6VectorILi19ENS_15PreserveStorageEEEE14AttributeProxyaSIP7SEXPRECEERS5_RKT_"
 "_ZN4Rcpp20AttributeProxyPolicyINS_6VectorILi19ENS_15PreserveStorageEEEE14AttributeProxyaSIS3_EERS5_RKT_"
 "_ZN4Rcpp20AttributeProxyPolicyINS_6VectorILi19ENS_15PreserveStorageEEEE14AttributeProxyaSISt6vectorIdSaIdEEEERS5_RKT_"
 "_ZN4Rcpp20AttributeProxyPolicyINS_6VectorILi19ENS_15PreserveStorageEEEE14AttributeProxyaSIdEERS5_RKT_"
 "_ZN4Rcpp20AttributeProxyPolicyINS_6VectorILi19ENS_15PreserveStorageEEEE14AttributeProxyaSIiEERS5_RKT_"
 "_ZN4Rcpp20AttributeProxyPolicyINS_6VectorILi19ENS_15PreserveStorageEEEE4attrERKNSt7__cxx1112basic_stringIcSt11char_traitsIcESaIcEEE"
 "_ZN4Rcpp25standard_delete_finalizerIN5rstan8stan_fitIN18model_ef_namespace8model_efEN5boost6random23additive_combine_engineINS6_26linear_congruential_engineIjLj40014ELj0ELj2147483563EEENS8_IjLj40692ELj0ELj2147483399EEEEEEEEEvPT_"
 "_ZN4Rcpp25standard_delete_finalizerINS_6ModuleEEEvPT_"
 "_ZN4Rcpp2asIN5Eigen3MapINS1_6MatrixIdLin1ELin1ELi0ELin1ELin1EEELi0ENS1_6StrideILi0ELi0EEEEEEET_P7SEXPREC"
 "_ZN4Rcpp2asINSt7__cxx1112basic_stringIcSt11char_traitsIcESaIcEEEEET_P7SEXPREC"
 "_ZN4Rcpp2asIP7SEXPRECEET_S2_"
 "_ZN4Rcpp2asISt6vectorINSt7__cxx1112basic_stringIcSt11char_traitsIcESaIcEEESaIS7_EEEET_P7SEXPREC"
 "_ZN4Rcpp2asISt6vectorIdSaIdEEEET_P7SEXPREC"
 "_ZN4Rcpp2asISt6vectorIiSaIiEEEET_P7SEXPREC"
 "_ZN4Rcpp2asISt6vectorIjSaIjEEEET_P7SEXPREC"
 "_ZN4Rcpp2asIbEET_P7SEXPREC"
 "_ZN4Rcpp2asIdEET_P7SEXPREC"
 "_ZN4Rcpp2asIiEET_P7SEXPREC"
 "_ZN4Rcpp2asIjEET_P7SEXPREC"
 "_ZN4Rcpp3yesEPP7SEXPRECi"
 "_ZN4Rcpp4XPtrINS_6ModuleENS_15PreserveStorageEXadL_ZNS_25standard_delete_finalizerIS1_EEvPT_EELb0EE18setDeleteFinalizerEv"
 "_ZN4Rcpp4XPtrINS_6ModuleENS_15PreserveStorageEXadL_ZNS_25standard_delete_finalizerIS1_EEvPT_EELb0EE6updateEP7SEXPREC"
 "_ZN4Rcpp4XPtrINS_6ModuleENS_15PreserveStorageEXadL_ZNS_25standard_delete_finalizerIS1_EEvPT_EELb0EEC1EPS1_bP7SEXPRECS9_"
 "_ZN4Rcpp4XPtrINS_6ModuleENS_15PreserveStorageEXadL_ZNS_25standard_delete_finalizerIS1_EEvPT_EELb0EED1Ev"
 "_ZN4Rcpp4stopERKNSt7__cxx1112basic_stringIcSt11char_traitsIcESaIcEEE"
 "_ZN4Rcpp4stopIJEEEvPKcDpOT_"
 "_ZN4Rcpp4wrapEPKc"
 "_ZN4Rcpp4wrapINS_4XPtrINS_10class_BaseENS_15PreserveStorageEXadL_ZNS_25standard_delete_finalizerIS2_EEvPT_EELb0EEEEEP7SEXPRECRKS5_"
 "_ZN4Rcpp4wrapINS_6ShieldIP7SEXPRECEEEES3_RKT_"
 "_ZN4Rcpp4wrapINS_6VectorILi14ENS_15PreserveStorageEEEEEP7SEXPRECRKT_"
 "_ZN4Rcpp4wrapINS_6VectorILi16ENS_15PreserveStorageEEEEEP7SEXPRECRKT_"
 "_ZN4Rcpp4wrapINS_6VectorILi19ENS_15PreserveStorageEEEEEP7SEXPRECRKT_"
 "_ZN4Rcpp4wrapINSt7__cxx1112basic_stringIcSt11char_traitsIcESaIcEEEEEP7SEXPRECRKT_"
 "_ZN4Rcpp4wrapIP7SEXPRECEES2_RKT_"
 "_ZN4Rcpp4wrapISt3mapINSt7__cxx1112basic_stringIcSt11char_traitsIcESaIcEEEP7SEXPRECSt4lessIS7_ESaISt4pairIKS7_S9_EEEEES9_RKT_"
 "_ZN4Rcpp4wrapISt6vectorINSt7__cxx1112basic_stringIcSt11char_traitsIcESaIcEEESaIS7_EEEEP7SEXPRECRKT_"
 "_ZN4Rcpp4wrapISt6vectorIS1_IjSaIjEESaIS3_EEEEP7SEXPRECRKT_"
 "_ZN4Rcpp4wrapISt6vectorIdSaIdEEEEP7SEXPRECRKT_"
 "_ZN4Rcpp4wrapIbEEP7SEXPRECRKT_"
 "_ZN4Rcpp4wrapIdEEP7SEXPRECRKT_"
 "_ZN4Rcpp4wrapIiEEP7SEXPRECRKT_"
 "_ZN4Rcpp4wrapIjEEP7SEXPRECRKT_"
 "_ZN4Rcpp5ArmorIP7SEXPRECE4initES2_"
 "_ZN4Rcpp5ArmorIP7SEXPRECEC1Ev"
 "_ZN4Rcpp5ArmorIP7SEXPRECED1Ev"
 "_ZN4Rcpp5ArmorIP7SEXPRECEaSIS2_EERS3_RKT_"
 "_ZN4Rcpp6Module17get_class_pointerERKNSt7__cxx1112basic_stringIcSt11char_traitsIcESaIcEEE"
 "_ZN4Rcpp6Module8AddClassEPKcPNS_10class_BaseE"
 "_ZN4Rcpp6Module9has_classERKNSt7__cxx1112basic_stringIcSt11char_traitsIcESaIcEEE"
 "_ZN4Rcpp6ModuleC1EPKc"
 "_ZN4Rcpp6ModuleD1Ev"
 "_ZN4Rcpp6ShieldIP7SEXPRECEC1ES2_"
 "_ZN4Rcpp6ShieldIP7SEXPRECED1Ev"
 "_ZN4Rcpp6VectorILi10ENS_15PreserveStorageEE4initEv"
 "_ZN4Rcpp6VectorILi10ENS_15PreserveStorageEE6updateEP7SEXPREC"
 "_ZN4Rcpp6VectorILi10ENS_15PreserveStorageEEC1ERKi"
 "_ZN4Rcpp6VectorILi10ENS_15PreserveStorageEED1Ev"
 "_ZN4Rcpp6VectorILi13ENS_15PreserveStorageEE4initEv"
 "_ZN4Rcpp6VectorILi13ENS_15PreserveStorageEE6updateEP7SEXPREC"
 "_ZN4Rcpp6VectorILi13ENS_15PreserveStorageEEC1ERKi"
 "_ZN4Rcpp6VectorILi13ENS_15PreserveStorageEED1Ev"
 "_ZN4Rcpp6VectorILi13ENS_15PreserveStorageEEixEx"
 "_ZN4Rcpp6VectorILi14ENS_15PreserveStorageEE15replace_elementINS_6traits12named_objectIdEEEEvPdP7SEXPRECxRKT_"
 "_ZN4Rcpp6VectorILi14ENS_15PreserveStorageEE16create__dispatchINS_6traits12named_objectIdEES6_EES2_NS4_17integral_constantIbLb1EEERKT_RKT0_"
 "_ZN4Rcpp6VectorILi14ENS_15PreserveStorageEE25replace_element__dispatchINS_6traits12named_objectIdEEEEvNS4_17integral_constantIbLb1EEEPdP7SEXPRECxRKT_"
 "_ZN4Rcpp6VectorILi14ENS_15PreserveStorageEE37replace_element__dispatch__isArgumentINS_6traits12named_objectIdEEEEvNS4_17integral_constantIbLb0EEEPdP7SEXPRECxRKT_"
 "_ZN4Rcpp6VectorILi14ENS_15PreserveStorageEE4initEv"
 "_ZN4Rcpp6VectorILi14ENS_15PreserveStorageEE5beginEv"
 "_ZN4Rcpp6VectorILi14ENS_15PreserveStorageEE6createINS_6traits12named_objectIdEES6_EES2_RKT_RKT0_"
 "_ZN4Rcpp6VectorILi14ENS_15PreserveStorageEE6updateEP7SEXPREC"
 "_ZN4Rcpp6VectorILi14ENS_15PreserveStorageEEC1EP7SEXPREC"
 "_ZN4Rcpp6VectorILi14ENS_15PreserveStorageEEC1ERKS2_"
 "_ZN4Rcpp6VectorILi14ENS_15PreserveStorageEEC1ERKi"
 "_ZN4Rcpp6VectorILi14ENS_15PreserveStorageEEC1IyEET_PNS_6traits9enable_ifIXsrNS5_13is_arithmeticIS4_EE5valueEvE4typeE"
 "_ZN4Rcpp6VectorILi14ENS_15PreserveStorageEED1Ev"
 "_ZN4Rcpp6VectorILi14ENS_15PreserveStorageEEixEx"
 "_ZN4Rcpp6VectorILi16ENS_15PreserveStorageEE4initEv"
 "_ZN4Rcpp6VectorILi16ENS_15PreserveStorageEE5beginEv"
 "_ZN4Rcpp6VectorILi16ENS_15PreserveStorageEE6updateEP7SEXPREC"
 "_ZN4Rcpp6VectorILi16ENS_15PreserveStorageEEC1ERKi"
 "_ZN4Rcpp6VectorILi16ENS_15PreserveStorageEEC1IyEET_PNS_6traits9enable_ifIXsrNS5_13is_arithmeticIS4_EE5valueEvE4typeE"
 "_ZN4Rcpp6VectorILi16ENS_15PreserveStorageEED1Ev"
 "_ZN4Rcpp6VectorILi16ENS_15PreserveStorageEEixEx"
 "_ZN4Rcpp6VectorILi19ENS_15PreserveStorageEE15replace_elementINS_6traits12named_objectIA1_cEEEEvNS_8internal14Proxy_IteratorINS8_13generic_proxyILi19ES1_EEEEP7SEXPRECxRKT_"
 "_ZN4Rcpp6VectorILi19ENS_15PreserveStorageEE15replace_elementINS_6traits12named_objectINS0_ILi16ES1_EEEEEEvNS_8internal14Proxy_IteratorINS8_13generic_proxyILi19ES1_EEEEP7SEXPRECxRKT_"
 "_ZN4Rcpp6VectorILi19ENS_15PreserveStorageEE15replace_elementINS_6traits12named_objectIP7SEXPRECEEEEvNS_8internal14Proxy_IteratorINS9_13generic_proxyILi19ES1_EEEES7_xRKT_"
 "_ZN4Rcpp6VectorILi19ENS_15PreserveStorageEE15replace_elementINS_6traits12named_objectISt6vectorIdSaIdEEEEEEvNS_8internal14Proxy_IteratorINSA_13generic_proxyILi19ES1_EEEEP7SEXPRECxRKT_"
 "_ZN4Rcpp6VectorILi19ENS_15PreserveStorageEE15replace_elementINS_6traits12named_objectIdEEEEvNS_8internal14Proxy_IteratorINS7_13generic_proxyILi19ES1_EEEEP7SEXPRECxRKT_"
 "_ZN4Rcpp6VectorILi19ENS_15PreserveStorageEE15replace_elementINS_6traits12named_objectIiEEEEvNS_8internal14Proxy_IteratorINS7_13generic_proxyILi19ES1_EEEEP7SEXPRECxRKT_"
 "_ZN4Rcpp6VectorILi19ENS_15PreserveStorageEE16create__dispatchINS_6traits12named_objectIA1_cEENS5_IiEENS5_INS0_ILi16ES1_EEEEEES2_NS4_17integral_constantIbLb1EEERKT_RKT0_RKT1_"
 "_ZN4Rcpp6VectorILi19ENS_15PreserveStorageEE16create__dispatchINS_6traits12named_objectIP7SEXPRECEEEES2_NS4_17integral_constantIbLb1EEERKT_"
 "_ZN4Rcpp6VectorILi19ENS_15PreserveStorageEE16create__dispatchINS_6traits12named_objectISt6vectorIdSaIdEEEENS5_IdEEEES2_NS4_17integral_constantIbLb1EEERKT_RKT0_"
 "_ZN4Rcpp6VectorILi19ENS_15PreserveStorageEE16create__dispatchINS_6traits12named_objectIiEEEES2_NS4_17integral_constantIbLb1EEERKT_"
 "_ZN4Rcpp6VectorILi19ENS_15PreserveStorageEE25replace_element__dispatchINS_6traits12named_objectIA1_cEEEEvNS4_17integral_constantIbLb1EEENS_8internal14Proxy_IteratorINSA_13generic_proxyILi19ES1_EEEEP7SEXPRECxRKT_"
 "_ZN4Rcpp6VectorILi19ENS_15PreserveStorageEE25replace_element__dispatchINS_6traits12named_objectINS0_ILi16ES1_EEEEEEvNS4_17integral_constantIbLb1EEENS_8internal14Proxy_IteratorINSA_13generic_proxyILi19ES1_EEEEP7SEXPRECxRKT_"
 "_ZN4Rcpp6VectorILi19ENS_15PreserveStorageEE25replace_element__dispatchINS_6traits12named_objectIP7SEXPRECEEEEvNS4_17integral_constantIbLb1EEENS_8internal14Proxy_IteratorINSB_13generic_proxyILi19ES1_EEEES7_xRKT_"
 "_ZN4Rcpp6VectorILi19ENS_15PreserveStorageEE25replace_element__dispatchINS_6traits12named_objectISt6vectorIdSaIdEEEEEEvNS4_17integral_constantIbLb1EEENS_8internal14Proxy_IteratorINSC_13generic_proxyILi19ES1_EEEEP7SEXPRECxRKT_"
 "_ZN4Rcpp6VectorILi19ENS_15PreserveStorageEE25replace_element__dispatchINS_6traits12named_objectIdEEEEvNS4_17integral_constantIbLb1EEENS_8internal14Proxy_IteratorINS9_13generic_proxyILi19ES1_EEEEP7SEXPRECxRKT_"
 "_ZN4Rcpp6VectorILi19ENS_15PreserveStorageEE25replace_element__dispatchINS_6traits12named_objectIiEEEEvNS4_17integral_constantIbLb1EEENS_8internal14Proxy_IteratorINS9_13generic_proxyILi19ES1_EEEEP7SEXPRECxRKT_"
 "_ZN4Rcpp6VectorILi19ENS_15PreserveStorageEE37replace_element__dispatch__isArgumentINS_6traits12named_objectIA1_cEEEEvNS4_17integral_constantIbLb0EEENS_8internal14Proxy_IteratorINSA_13generic_proxyILi19ES1_EEEEP7SEXPRECxRKT_"
 "_ZN4Rcpp6VectorILi19ENS_15PreserveStorageEE37replace_element__dispatch__isArgumentINS_6traits12named_objectINS0_ILi16ES1_EEEEEEvNS4_17integral_constantIbLb0EEENS_8internal14Proxy_IteratorINSA_13generic_proxyILi19ES1_EEEEP7SEXPRECxRKT_"
 "_ZN4Rcpp6VectorILi19ENS_15PreserveStorageEE37replace_element__dispatch__isArgumentINS_6traits12named_objectIP7SEXPRECEEEEvNS4_17integral_constantIbLb0EEENS_8internal14Proxy_IteratorINSB_13generic_proxyILi19ES1_EEEES7_xRKT_"
 "_ZN4Rcpp6VectorILi19ENS_15PreserveStorageEE37replace_element__dispatch__isArgumentINS_6traits12named_objectISt6vectorIdSaIdEEEEEEvNS4_17integral_constantIbLb0EEENS_8internal14Proxy_IteratorINSC_13generic_proxyILi19ES1_EEEEP7SEXPRECxRKT_"
 "_ZN4Rcpp6VectorILi19ENS_15PreserveStorageEE37replace_element__dispatch__isArgumentINS_6traits12named_objectIdEEEEvNS4_17integral_constantIbLb0EEENS_8internal14Proxy_IteratorINS9_13generic_proxyILi19ES1_EEEEP7SEXPRECxRKT_"
 "_ZN4Rcpp6VectorILi19ENS_15PreserveStorageEE37replace_element__dispatch__isArgumentINS_6traits12named_objectIiEEEEvNS4_17integral_constantIbLb0EEENS_8internal14Proxy_IteratorINS9_13generic_proxyILi19ES1_EEEEP7SEXPRECxRKT_"
 "_ZN4Rcpp6VectorILi19ENS_15PreserveStorageEE4initEv"
 "_ZN4Rcpp6VectorILi19ENS_15PreserveStorageEE5beginEv"
 "_ZN4Rcpp6VectorILi19ENS_15PreserveStorageEE6createINS_6traits12named_objectIA1_cEENS5_IiEENS5_INS0_ILi16ES1_EEEEEES2_RKT_RKT0_RKT1_"
 "_ZN4Rcpp6VectorILi19ENS_15PreserveStorageEE6createINS_6traits12named_objectIP7SEXPRECEEEES2_RKT_"
 "_ZN4Rcpp6VectorILi19ENS_15PreserveStorageEE6createINS_6traits12named_objectISt6vectorIdSaIdEEEENS5_IdEEEES2_RKT_RKT0_"
 "_ZN4Rcpp6VectorILi19ENS_15PreserveStorageEE6createINS_6traits12named_objectIiEEEES2_RKT_"
 "_ZN4Rcpp6VectorILi19ENS_15PreserveStorageEE6updateEP7SEXPREC"
 "_ZN4Rcpp6VectorILi19ENS_15PreserveStorageEEC1EP7SEXPREC"
 "_ZN4Rcpp6VectorILi19ENS_15PreserveStorageEEC1ERKi"
 "_ZN4Rcpp6VectorILi19ENS_15PreserveStorageEEC1Ev"
 "_ZN4Rcpp6VectorILi19ENS_15PreserveStorageEEC1IN9__gnu_cxx17__normal_iteratorIPKNS0_ILi14ES1_EESt6vectorIS6_SaIS6_EEEEEET_SD_"
 "_ZN4Rcpp6VectorILi19ENS_15PreserveStorageEED1Ev"
 "_ZN4Rcpp6VectorILi19ENS_15PreserveStorageEEaSERKS2_"
 "_ZN4Rcpp6VectorILi19ENS_15PreserveStorageEEixERKNSt7__cxx1112basic_stringIcSt11char_traitsIcESaIcEEE"
 "_ZN4Rcpp6VectorILi19ENS_15PreserveStorageEEixEx"
 "_ZN4Rcpp6class_IN5rstan8stan_fitIN18model_ef_namespace8model_efEN5boost6random23additive_combine_engineINS6_26linear_congruential_engineIjLj40014ELj0ELj2147483563EEENS8_IjLj40692ELj0ELj2147483399EEEEEEEE11constructorIP7SEXPRECSG_SG_EERSD_PKcPFbPSG_iE"
 "_ZN4Rcpp6class_IN5rstan8stan_fitIN18model_ef_namespace8model_efEN5boost6random23additive_combine_engineINS6_26linear_congruential_engineIjLj40014ELj0ELj2147483563EEENS8_IjLj40692ELj0ELj2147483399EEEEEEEE12get_instanceEv"
 "_ZN4Rcpp6class_IN5rstan8stan_fitIN18model_ef_namespace8model_efEN5boost6random23additive_combine_engineINS6_26linear_congruential_engineIjLj40014ELj0ELj2147483563EEENS8_IjLj40692ELj0ELj2147483399EEEEEEEE14AddConstructorEPNS_16Constructor_BaseISC_EEPFbPP7SEXPRECiEPKc"
 "_ZN4Rcpp6class_IN5rstan8stan_fitIN18model_ef_namespace8model_efEN5boost6random23additive_combine_engineINS6_26linear_congruential_engineIjLj40014ELj0ELj2147483563EEENS8_IjLj40692ELj0ELj2147483399EEEEEEEE6methodIP7SEXPRECEERSD_PKcMSC_FT_vESJ_PFbPSG_iE"
 "_ZN4Rcpp6class_IN5rstan8stan_fitIN18model_ef_namespace8model_efEN5boost6random23additive_combine_engineINS6_26linear_congruential_engineIjLj40014ELj0ELj2147483563EEENS8_IjLj40692ELj0ELj2147483399EEEEEEEE6methodIP7SEXPRECEERSD_PKcMSC_KFT_vESJ_PFbPSG_iE"
 "_ZN4Rcpp6class_IN5rstan8stan_fitIN18model_ef_namespace8model_efEN5boost6random23additive_combine_engineINS6_26linear_congruential_engineIjLj40014ELj0ELj2147483563EEENS8_IjLj40692ELj0ELj2147483399EEEEEEEE6methodIP7SEXPRECSG_EERSD_PKcMSC_FT_T0_ESJ_PFbPSG_iE"
 "_ZN4Rcpp6class_IN5rstan8stan_fitIN18model_ef_namespace8model_efEN5boost6random23additive_combine_engineINS6_26linear_congruential_engineIjLj40014ELj0ELj2147483563EEENS8_IjLj40692ELj0ELj2147483399EEEEEEEE6methodIP7SEXPRECSG_SG_EERSD_PKcMSC_FT_T0_T1_ESJ_PFbPSG_iE"
 "_ZN4Rcpp6class_IN5rstan8stan_fitIN18model_ef_namespace8model_efEN5boost6random23additive_combine_engineINS6_26linear_congruential_engineIjLj40014ELj0ELj2147483563EEENS8_IjLj40692ELj0ELj2147483399EEEEEEEE6methodIP7SEXPRECSG_SG_SG_EERSD_PKcMSC_FT_T0_T1_T2_ESJ_PFbPSG_iE"
 "_ZN4Rcpp6class_IN5rstan8stan_fitIN18model_ef_namespace8model_efEN5boost6random23additive_combine_engineINS6_26linear_congruential_engineIjLj40014ELj0ELj2147483563EEENS8_IjLj40692ELj0ELj2147483399EEEEEEEE9AddMethodEPKcPNS_9CppMethodISC_EEPFbPP7SEXPRECiESF_"
 "_ZN4Rcpp6class_IN5rstan8stan_fitIN18model_ef_namespace8model_efEN5boost6random23additive_combine_engineINS6_26linear_congruential_engineIjLj40014ELj0ELj2147483563EEENS8_IjLj40692ELj0ELj2147483399EEEEEEEEC1EPKcSF_"
 "_ZN4Rcpp6class_IN5rstan8stan_fitIN18model_ef_namespace8model_efEN5boost6random23additive_combine_engineINS6_26linear_congruential_engineIjLj40014ELj0ELj2147483563EEENS8_IjLj40692ELj0ELj2147483399EEEEEEEEC1Ev"
 "_ZN4Rcpp6class_IN5rstan8stan_fitIN18model_ef_namespace8model_efEN5boost6random23additive_combine_engineINS6_26linear_congruential_engineIjLj40014ELj0ELj2147483563EEENS8_IjLj40692ELj0ELj2147483399EEEEEEEED0Ev"
 "_ZN4Rcpp6class_IN5rstan8stan_fitIN18model_ef_namespace8model_efEN5boost6random23additive_combine_engineINS6_26linear_congruential_engineIjLj40014ELj0ELj2147483563EEENS8_IjLj40692ELj0ELj2147483399EEEEEEEED1Ev"
 "_ZN4Rcpp6r_castILi10EEEP7SEXPRECS2_"
 "_ZN4Rcpp6r_castILi13EEEP7SEXPRECS2_"
 "_ZN4Rcpp6r_castILi14EEEP7SEXPRECS2_"
 "_ZN4Rcpp6r_castILi16EEEP7SEXPRECS2_"
 "_ZN4Rcpp6r_castILi19EEEP7SEXPRECS2_"
 "_ZN4Rcpp6traits11proxy_cacheILi16ENS_15PreserveStorageEE3refEx"
 "_ZN4Rcpp6traits11proxy_cacheILi16ENS_15PreserveStorageEE6updateERKNS_6VectorILi16ES2_EE"
 "_ZN4Rcpp6traits11proxy_cacheILi16ENS_15PreserveStorageEEC1Ev"
 "_ZN4Rcpp6traits11proxy_cacheILi16ENS_15PreserveStorageEED1Ev"
 "_ZN4Rcpp6traits11proxy_cacheILi19ENS_15PreserveStorageEE3refEx"
 "_ZN4Rcpp6traits11proxy_cacheILi19ENS_15PreserveStorageEE6updateERKNS_6VectorILi19ES2_EE"
 "_ZN4Rcpp6traits11proxy_cacheILi19ENS_15PreserveStorageEEC1Ev"
 "_ZN4Rcpp6traits11proxy_cacheILi19ENS_15PreserveStorageEED1Ev"
 "_ZN4Rcpp6traits12named_objectIA1_cEC1ERKNSt7__cxx1112basic_stringIcSt11char_traitsIcESaIcEEERA1_Kc"
 "_ZN4Rcpp6traits12named_objectINS_6VectorILi16ENS_15PreserveStorageEEEEC1ERKNSt7__cxx1112basic_stringIcSt11char_traitsIcESaIcEEERKS4_"
 "_ZN4Rcpp6traits12named_objectIP7SEXPRECEC1ERKNSt7__cxx1112basic_stringIcSt11char_traitsIcESaIcEEERKS3_"
 "_ZN4Rcpp6traits12named_objectIP7SEXPRECED1Ev"
 "_ZN4Rcpp6traits12named_objectISt6vectorIdSaIdEEEC1ERKNSt7__cxx1112basic_stringIcSt11char_traitsIcESaIcEEERKS4_"
 "_ZN4Rcpp6traits12named_objectIdEC1ERKNSt7__cxx1112basic_stringIcSt11char_traitsIcESaIcEEERKd"
 "_ZN4Rcpp6traits12named_objectIiEC1ERKNSt7__cxx1112basic_stringIcSt11char_traitsIcESaIcEEERKi"
 "_ZN4Rcpp6traits13RangeExporterISt6vectorINSt7__cxx1112basic_stringIcSt11char_traitsIcESaIcEEESaIS8_EEE3getEv"
 "_ZN4Rcpp6traits13RangeExporterISt6vectorINSt7__cxx1112basic_stringIcSt11char_traitsIcESaIcEEESaIS8_EEEC2EP7SEXPREC"
 "_ZN4Rcpp6traits13RangeExporterISt6vectorINSt7__cxx1112basic_stringIcSt11char_traitsIcESaIcEEESaIS8_EEED2Ev"
 "_ZN4Rcpp6traits13RangeExporterISt6vectorIjSaIjEEE3getEv"
 "_ZN4Rcpp6traits13RangeExporterISt6vectorIjSaIjEEEC2EP7SEXPREC"
 "_ZN4Rcpp6traits13RangeExporterISt6vectorIjSaIjEEED2Ev"
 "_ZN4Rcpp6traits14r_vector_cacheILi10ENS_15PreserveStorageEE6updateERKNS_6VectorILi10ES2_EE"
 "_ZN4Rcpp6traits14r_vector_cacheILi10ENS_15PreserveStorageEEC1Ev"
 "_ZN4Rcpp6traits14r_vector_cacheILi13ENS_15PreserveStorageEE3refEx"
 "_ZN4Rcpp6traits14r_vector_cacheILi13ENS_15PreserveStorageEE6updateERKNS_6VectorILi13ES2_EE"
 "_ZN4Rcpp6traits14r_vector_cacheILi13ENS_15PreserveStorageEEC1Ev"
 "_ZN4Rcpp6traits14r_vector_cacheILi14ENS_15PreserveStorageEE3refEx"
 "_ZN4Rcpp6traits14r_vector_cacheILi14ENS_15PreserveStorageEE6updateERKNS_6VectorILi14ES2_EE"
 "_ZN4Rcpp6traits14r_vector_cacheILi14ENS_15PreserveStorageEEC1Ev"
 "_ZN4Rcpp6traits17ContainerExporterISt6vectordE3getEv"
 "_ZN4Rcpp6traits17ContainerExporterISt6vectordEC2EP7SEXPREC"
 "_ZN4Rcpp6traits17ContainerExporterISt6vectordED2Ev"
 "_ZN4Rcpp6traits17ContainerExporterISt6vectoriE3getEv"
 "_ZN4Rcpp6traits17ContainerExporterISt6vectoriEC2EP7SEXPREC"
 "_ZN4Rcpp6traits17ContainerExporterISt6vectoriED2Ev"
 "_ZN4Rcpp6traits8ExporterIN5Eigen3MapINS2_6MatrixIdLin1ELin1ELi0ELin1ELin1EEELi0ENS2_6StrideILi0ELi0EEEEEE3getEv"
 "_ZN4Rcpp6traits8ExporterIN5Eigen3MapINS2_6MatrixIdLin1ELin1ELi0ELin1ELin1EEELi0ENS2_6StrideILi0ELi0EEEEEEC1EP7SEXPREC"
 "_ZN4Rcpp6traits8ExporterIN5Eigen3MapINS2_6MatrixIdLin1ELin1ELi0ELin1ELin1EEELi0ENS2_6StrideILi0ELi0EEEEEED1Ev"
 "_ZN4Rcpp6traits8ExporterISt6vectorINSt7__cxx1112basic_stringIcSt11char_traitsIcESaIcEEESaIS8_EEEC1EP7SEXPREC"
 "_ZN4Rcpp6traits8ExporterISt6vectorINSt7__cxx1112basic_stringIcSt11char_traitsIcESaIcEEESaIS8_EEED1Ev"
 "_ZN4Rcpp6traits8ExporterISt6vectorIdSaIdEEEC1EP7SEXPREC"
 "_ZN4Rcpp6traits8ExporterISt6vectorIdSaIdEEED1Ev"
 "_ZN4Rcpp6traits8ExporterISt6vectorIiSaIiEEEC1EP7SEXPREC"
 "_ZN4Rcpp6traits8ExporterISt6vectorIiSaIiEEED1Ev"
 "_ZN4Rcpp6traits8ExporterISt6vectorIjSaIjEEEC1EP7SEXPREC"
 "_ZN4Rcpp6traits8ExporterISt6vectorIjSaIjEEED1Ev"
 "_ZN4Rcpp7ShelterIP7SEXPRECEC1Ev"
 "_ZN4Rcpp7ShelterIP7SEXPRECED1Ev"
 "_ZN4Rcpp7ShelterIP7SEXPRECEclES2_"
 "_ZN4Rcpp8ArgumentC1ERKNSt7__cxx1112basic_stringIcSt11char_traitsIcESaIcEEE"
 "_ZN4Rcpp8ArgumentD1Ev"
 "_ZN4Rcpp8ArgumentaSIA1_cEENS_6traits12named_objectIT_EERKS5_"
 "_ZN4Rcpp8ArgumentaSINS_6VectorILi16ENS_15PreserveStorageEEEEENS_6traits12named_objectIT_EERKS7_"
 "_ZN4Rcpp8ArgumentaSIP7SEXPRECEENS_6traits12named_objectIT_EERKS6_"
 "_ZN4Rcpp8ArgumentaSISt6vectorIdSaIdEEEENS_6traits12named_objectIT_EERKS7_"
 "_ZN4Rcpp8ArgumentaSIdEENS_6traits12named_objectIT_EERKS4_"
 "_ZN4Rcpp8ArgumentaSIiEENS_6traits12named_objectIT_EERKS4_"
 "_ZN4Rcpp8RostreamILb0EEC1Ev"
 "_ZN4Rcpp8RostreamILb1EEC1Ev"
 "_ZN4Rcpp8internal10basic_castILi10EEEP7SEXPRECS3_"
 "_ZN4Rcpp8internal10basic_castILi13EEEP7SEXPRECS3_"
 "_ZN4Rcpp8internal10basic_castILi14EEEP7SEXPRECS3_"
 "_ZN4Rcpp8internal10range_wrapIN9__gnu_cxx17__normal_iteratorIPKNSt7__cxx1112basic_stringIcSt11char_traitsIcESaIcEEESt6vectorIS9_SaIS9_EEEEEEP7SEXPRECT_SI_"
 "_ZN4Rcpp8internal10range_wrapIN9__gnu_cxx17__normal_iteratorIPKSt6vectorIjSaIjEES4_IS6_SaIS6_EEEEEEP7SEXPRECT_SE_"
 "_ZN4Rcpp8internal10range_wrapIN9__gnu_cxx17__normal_iteratorIPKdSt6vectorIdSaIdEEEEEEP7SEXPRECT_SC_"
 "_ZN4Rcpp8internal10range_wrapISt23_Rb_tree_const_iteratorISt4pairIKNSt7__cxx1112basic_stringIcSt11char_traitsIcESaIcEEEP7SEXPRECEEEESC_T_SF_"
 "_ZN4Rcpp8internal10resumeJumpEP7SEXPREC"
 "_ZN4Rcpp8internal11r_true_castILi10EEEP7SEXPRECS3_"
 "_ZN4Rcpp8internal11r_true_castILi13EEEP7SEXPRECS3_"
 "_ZN4Rcpp8internal11r_true_castILi14EEEP7SEXPRECS3_"
 "_ZN4Rcpp8internal11r_true_castILi16EEEP7SEXPRECS3_"
 "_ZN4Rcpp8internal11r_true_castILi19EEEP7SEXPRECS3_"
 "_ZN4Rcpp8internal12export_rangeIN9__gnu_cxx17__normal_iteratorIPNSt7__cxx1112basic_stringIcSt11char_traitsIcESaIcEEESt6vectorIS9_SaIS9_EEEEEEvP7SEXPRECT_"
 "_ZN4Rcpp8internal12export_rangeIN9__gnu_cxx17__normal_iteratorIPdSt6vectorIdSaIdEEEEEEvP7SEXPRECT_"
 "_ZN4Rcpp8internal12export_rangeIN9__gnu_cxx17__normal_iteratorIPiSt6vectorIiSaIiEEEEEEvP7SEXPRECT_"
 "_ZN4Rcpp8internal12export_rangeIN9__gnu_cxx17__normal_iteratorIPjSt6vectorIjSaIjEEEEEEvP7SEXPRECT_"
 "_ZN4Rcpp8internal12primitive_asIbEET_P7SEXPREC"
 "_ZN4Rcpp8internal12primitive_asIdEET_P7SEXPREC"
 "_ZN4Rcpp8internal12primitive_asIiEET_P7SEXPREC"
 "_ZN4Rcpp8internal12primitive_asIjEET_P7SEXPREC"
 "_ZN4Rcpp8internal12string_proxyILi16ENS_15PreserveStorageEE3setEP7SEXPREC"
 "_ZN4Rcpp8internal12string_proxyILi16ENS_15PreserveStorageEE3setINSt7__cxx1112basic_stringIcSt11char_traitsIcESaIcEEEEEvRKT_"
 "_ZN4Rcpp8internal12string_proxyILi16ENS_15PreserveStorageEE4moveEx"
 "_ZN4Rcpp8internal12string_proxyILi16ENS_15PreserveStorageEEC1ERKS3_"
 "_ZN4Rcpp8internal12string_proxyILi16ENS_15PreserveStorageEEC1ERNS_6VectorILi16ES2_EEx"
 "_ZN4Rcpp8internal12string_proxyILi16ENS_15PreserveStorageEEaSIcEERS3_RKNSt7__cxx1112basic_stringIT_St11char_traitsIS8_ESaIS8_EEE"
 "_ZN4Rcpp8internal13as_string_eltINSt7__cxx1112basic_stringIcSt11char_traitsIcESaIcEEEEEKNS3_INS_6traits9char_typeIT_E4typeES4_ISC_ESaISC_EEEP7SEXPRECx"
 "_ZN4Rcpp8internal13generic_proxyILi19ENS_15PreserveStorageEE3setEP7SEXPREC"
 "_ZN4Rcpp8internal13generic_proxyILi19ENS_15PreserveStorageEE4moveEx"
 "_ZN4Rcpp8internal13generic_proxyILi19ENS_15PreserveStorageEEC1ERKS3_"
 "_ZN4Rcpp8internal13generic_proxyILi19ENS_15PreserveStorageEEC1ERNS_6VectorILi19ES2_EEx"
 "_ZN4Rcpp8internal13generic_proxyILi19ENS_15PreserveStorageEEaSEP7SEXPREC"
 "_ZN4Rcpp8internal13generic_proxyILi19ENS_15PreserveStorageEEaSINS_6VectorILi14ES2_EEEERS3_RKT_"
 "_ZN4Rcpp8internal13make_charsexpINSt7__cxx1112basic_stringIcSt11char_traitsIcESaIcEEEEEP7SEXPRECRKT_"
 "_ZN4Rcpp8internal13r_init_vectorILi10EEEvP7SEXPREC"
 "_ZN4Rcpp8internal13r_init_vectorILi13EEEvP7SEXPREC"
 "_ZN4Rcpp8internal13r_init_vectorILi14EEEvP7SEXPREC"
 "_ZN4Rcpp8internal13r_init_vectorILi16EEEvP7SEXPREC"
 "_ZN4Rcpp8internal13r_init_vectorILi19EEEvP7SEXPREC"
 "_ZN4Rcpp8internal13wrap_dispatchINS_4XPtrINS_10class_BaseENS_15PreserveStorageEXadL_ZNS_25standard_delete_finalizerIS3_EEvPT_EELb0EEEEEP7SEXPRECRKS6_NS_6traits21wrap_type_unknown_tagE"
 "_ZN4Rcpp8internal13wrap_dispatchINS_6ShieldIP7SEXPRECEEEES4_RKT_NS_6traits21wrap_type_unknown_tagE"
 "_ZN4Rcpp8internal13wrap_dispatchINS_6VectorILi14ENS_15PreserveStorageEEEEEP7SEXPRECRKT_NS_6traits21wrap_type_unknown_tagE"
 "_ZN4Rcpp8internal13wrap_dispatchINS_6VectorILi16ENS_15PreserveStorageEEEEEP7SEXPRECRKT_NS_6traits21wrap_type_unknown_tagE"
 "_ZN4Rcpp8internal13wrap_dispatchINS_6VectorILi19ENS_15PreserveStorageEEEEEP7SEXPRECRKT_NS_6traits21wrap_type_unknown_tagE"
 "_ZN4Rcpp8internal13wrap_dispatchINSt7__cxx1112basic_stringIcSt11char_traitsIcESaIcEEEEEP7SEXPRECRKT_NS_6traits23wrap_type_primitive_tagE"
 "_ZN4Rcpp8internal13wrap_dispatchIP7SEXPRECEES3_RKT_NS_6traits21wrap_type_unknown_tagE"
 "_ZN4Rcpp8internal13wrap_dispatchISt3mapINSt7__cxx1112basic_stringIcSt11char_traitsIcESaIcEEEP7SEXPRECSt4lessIS8_ESaISt4pairIKS8_SA_EEEEESA_RKT_NS_6traits21wrap_type_unknown_tagE"
 "_ZN4Rcpp8internal13wrap_dispatchISt6vectorINSt7__cxx1112basic_stringIcSt11char_traitsIcESaIcEEESaIS8_EEEEP7SEXPRECRKT_NS_6traits21wrap_type_unknown_tagE"
 "_ZN4Rcpp8internal13wrap_dispatchISt6vectorIS2_IjSaIjEESaIS4_EEEEP7SEXPRECRKT_NS_6traits21wrap_type_unknown_tagE"
 "_ZN4Rcpp8internal13wrap_dispatchISt6vectorIdSaIdEEEEP7SEXPRECRKT_NS_6traits21wrap_type_unknown_tagE"
 "_ZN4Rcpp8internal13wrap_dispatchIbEEP7SEXPRECRKT_NS_6traits23wrap_type_primitive_tagE"
 "_ZN4Rcpp8internal13wrap_dispatchIdEEP7SEXPRECRKT_NS_6traits23wrap_type_primitive_tagE"
 "_ZN4Rcpp8internal13wrap_dispatchIiEEP7SEXPRECRKT_NS_6traits23wrap_type_primitive_tagE"
 "_ZN4Rcpp8internal13wrap_dispatchIjEEP7SEXPRECRKT_NS_6traits23wrap_type_primitive_tagE"
 "_ZN4Rcpp8internal14Proxy_IteratorINS0_12string_proxyILi16ENS_15PreserveStorageEEEEC1ERKS4_"
 "_ZN4Rcpp8internal14Proxy_IteratorINS0_12string_proxyILi16ENS_15PreserveStorageEEEEC1ERKS5_"
 "_ZN4Rcpp8internal14Proxy_IteratorINS0_12string_proxyILi16ENS_15PreserveStorageEEEEdeEv"
 "_ZN4Rcpp8internal14Proxy_IteratorINS0_12string_proxyILi16ENS_15PreserveStorageEEEEppEv"
 "_ZN4Rcpp8internal14Proxy_IteratorINS0_13generic_proxyILi19ENS_15PreserveStorageEEEEC1ERKS4_"
 "_ZN4Rcpp8internal14Proxy_IteratorINS0_13generic_proxyILi19ENS_15PreserveStorageEEEEC1ERKS5_"
 "_ZN4Rcpp8internal14Proxy_IteratorINS0_13generic_proxyILi19ENS_15PreserveStorageEEEEdeEv"
 "_ZN4Rcpp8internal14Proxy_IteratorINS0_13generic_proxyILi19ENS_15PreserveStorageEEEEppEv"
 "_ZN4Rcpp8internal14Rcpp_eval_implEP7SEXPRECS2_"
 "_ZN4Rcpp8internal14primitive_wrapINSt7__cxx1112basic_stringIcSt11char_traitsIcESaIcEEEEEP7SEXPRECRKT_"
 "_ZN4Rcpp8internal14primitive_wrapIbEEP7SEXPRECRKT_"
 "_ZN4Rcpp8internal14primitive_wrapIdEEP7SEXPRECRKT_"
 "_ZN4Rcpp8internal14primitive_wrapIiEEP7SEXPRECRKT_"
 "_ZN4Rcpp8internal14primitive_wrapIjEEP7SEXPRECRKT_"
 "_ZN4Rcpp8internal14r_vector_startILi10EEEPNS_6traits12storage_typeIXT_EE4typeEP7SEXPREC"
 "_ZN4Rcpp8internal14r_vector_startILi13EEEPNS_6traits12storage_typeIXT_EE4typeEP7SEXPREC"
 "_ZN4Rcpp8internal14r_vector_startILi14EEEPNS_6traits12storage_typeIXT_EE4typeEP7SEXPREC"
 "_ZN4Rcpp8internal16NamedPlaceHolderC1Ev"
 "_ZN4Rcpp8internal16NamedPlaceHolderD1Ev"
 "_ZN4Rcpp8internal16getLongjumpTokenEP7SEXPREC"
 "_ZN4Rcpp8internal17element_converterILi14EE3getERKd"
 "_ZN4Rcpp8internal17is_Rcpp_eval_callEP7SEXPREC"
 "_ZN4Rcpp8internal18export_range__implIN9__gnu_cxx17__normal_iteratorIPdSt6vectorIdSaIdEEEEdEEvP7SEXPRECT_NS_6traits17integral_constantIbLb0EEE"
 "_ZN4Rcpp8internal18export_range__implIN9__gnu_cxx17__normal_iteratorIPiSt6vectorIiSaIiEEEEiEEvP7SEXPRECT_NS_6traits17integral_constantIbLb0EEE"
 "_ZN4Rcpp8internal18export_range__implIN9__gnu_cxx17__normal_iteratorIPjSt6vectorIjSaIjEEEEjEEvP7SEXPRECT_NS_6traits17integral_constantIbLb1EEE"
 "_ZN4Rcpp8internal18generic_name_proxyILi19ENS_15PreserveStorageEEC1ERNS_6VectorILi19ES2_EERKNSt7__cxx1112basic_stringIcSt11char_traitsIcESaIcEEE"
 "_ZN4Rcpp8internal18generic_name_proxyILi19ENS_15PreserveStorageEED1Ev"
 "_ZN4Rcpp8internal18get_Rcpp_namespaceEv"
 "_ZN4Rcpp8internal18isLongjumpSentinelEP7SEXPREC"
 "_ZN4Rcpp8internal19as_string_elt__implINSt7__cxx1112basic_stringIcSt11char_traitsIcESaIcEEEEES7_P7SEXPRECxNS_6traits17integral_constantIbLb0EEE"
 "_ZN4Rcpp8internal19check_single_stringEP7SEXPREC"
 "_ZN4Rcpp8internal19make_charsexp__implINSt7__cxx1112basic_stringIcSt11char_traitsIcESaIcEEEEEP7SEXPRECRKT_NS_6traits17integral_constantIbLb0EEE"
 "_ZN4Rcpp8internal19range_wrap_dispatchIN9__gnu_cxx17__normal_iteratorIPKNSt7__cxx1112basic_stringIcSt11char_traitsIcESaIcEEESt6vectorIS9_SaIS9_EEEES9_EEP7SEXPRECT_SI_"
 "_ZN4Rcpp8internal19range_wrap_dispatchIN9__gnu_cxx17__normal_iteratorIPKSt6vectorIjSaIjEES4_IS6_SaIS6_EEEES6_EEP7SEXPRECT_SE_"
 "_ZN4Rcpp8internal19range_wrap_dispatchIN9__gnu_cxx17__normal_iteratorIPKdSt6vectorIdSaIdEEEEdEEP7SEXPRECT_SC_"
 "_ZN4Rcpp8internal19range_wrap_dispatchISt23_Rb_tree_const_iteratorISt4pairIKNSt7__cxx1112basic_stringIcSt11char_traitsIcESaIcEEEP7SEXPRECEESD_EESC_T_SF_"
 "_ZN4Rcpp8internal19wrap_dispatch_eigenINS_4XPtrINS_10class_BaseENS_15PreserveStorageEXadL_ZNS_25standard_delete_finalizerIS3_EEvPT_EELb0EEEEEP7SEXPRECRKS6_NS_6traits17integral_constantIbLb0EEE"
 "_ZN4Rcpp8internal19wrap_dispatch_eigenINS_6ShieldIP7SEXPRECEEEES4_RKT_NS_6traits17integral_constantIbLb0EEE"
 "_ZN4Rcpp8internal19wrap_dispatch_eigenINS_6VectorILi14ENS_15PreserveStorageEEEEEP7SEXPRECRKT_NS_6traits17integral_constantIbLb0EEE"
 "_ZN4Rcpp8internal19wrap_dispatch_eigenINS_6VectorILi16ENS_15PreserveStorageEEEEEP7SEXPRECRKT_NS_6traits17integral_constantIbLb0EEE"
 "_ZN4Rcpp8internal19wrap_dispatch_eigenINS_6VectorILi19ENS_15PreserveStorageEEEEEP7SEXPRECRKT_NS_6traits17integral_constantIbLb0EEE"
 "_ZN4Rcpp8internal19wrap_dispatch_eigenIP7SEXPRECEES3_RKT_NS_6traits17integral_constantIbLb0EEE"
 "_ZN4Rcpp8internal19wrap_dispatch_eigenISt3mapINSt7__cxx1112basic_stringIcSt11char_traitsIcESaIcEEEP7SEXPRECSt4lessIS8_ESaISt4pairIKS8_SA_EEEEESA_RKT_NS_6traits17integral_constantIbLb0EEE"
 "_ZN4Rcpp8internal19wrap_dispatch_eigenISt6vectorINSt7__cxx1112basic_stringIcSt11char_traitsIcESaIcEEESaIS8_EEEEP7SEXPRECRKT_NS_6traits17integral_constantIbLb0EEE"
 "_ZN4Rcpp8internal19wrap_dispatch_eigenISt6vectorIS2_IjSaIjEESaIS4_EEEEP7SEXPRECRKT_NS_6traits17integral_constantIbLb0EEE"
 "_ZN4Rcpp8internal19wrap_dispatch_eigenISt6vectorIdSaIdEEEEP7SEXPRECRKT_NS_6traits17integral_constantIbLb0EEE"
 "_ZN4Rcpp8internal20primitive_wrap__implINSt7__cxx1112basic_stringIcSt11char_traitsIcESaIcEEEEEP7SEXPRECRKT_NS_6traits17r_type_string_tagE"
 "_ZN4Rcpp8internal20primitive_wrap__implIbEEP7SEXPRECRKT_NS_6traits20r_type_primitive_tagE"
 "_ZN4Rcpp8internal20primitive_wrap__implIdEEP7SEXPRECRKT_NS_6traits20r_type_primitive_tagE"
 "_ZN4Rcpp8internal20primitive_wrap__implIiEEP7SEXPRECRKT_NS_6traits20r_type_primitive_tagE"
 "_ZN4Rcpp8internal20primitive_wrap__implIjEEP7SEXPRECRKT_NS_6traits20r_type_primitive_tagE"
 "_ZN4Rcpp8internal21wrap_dispatch_unknownINS_4XPtrINS_10class_BaseENS_15PreserveStorageEXadL_ZNS_25standard_delete_finalizerIS3_EEvPT_EELb0EEEEEP7SEXPRECRKS6_NS_6traits17integral_constantIbLb1EEE"
 "_ZN4Rcpp8internal21wrap_dispatch_unknownINS_6ShieldIP7SEXPRECEEEES4_RKT_NS_6traits17integral_constantIbLb1EEE"
 "_ZN4Rcpp8internal21wrap_dispatch_unknownINS_6VectorILi14ENS_15PreserveStorageEEEEEP7SEXPRECRKT_NS_6traits17integral_constantIbLb1EEE"
 "_ZN4Rcpp8internal21wrap_dispatch_unknownINS_6VectorILi16ENS_15PreserveStorageEEEEEP7SEXPRECRKT_NS_6traits17integral_constantIbLb1EEE"
 "_ZN4Rcpp8internal21wrap_dispatch_unknownINS_6VectorILi19ENS_15PreserveStorageEEEEEP7SEXPRECRKT_NS_6traits17integral_constantIbLb1EEE"
 "_ZN4Rcpp8internal21wrap_dispatch_unknownIP7SEXPRECEES3_RKT_NS_6traits17integral_constantIbLb1EEE"
 "_ZN4Rcpp8internal21wrap_dispatch_unknownISt3mapINSt7__cxx1112basic_stringIcSt11char_traitsIcESaIcEEEP7SEXPRECSt4lessIS8_ESaISt4pairIKS8_SA_EEEEESA_RKT_NS_6traits17integral_constantIbLb0EEE"
 "_ZN4Rcpp8internal21wrap_dispatch_unknownISt6vectorINSt7__cxx1112basic_stringIcSt11char_traitsIcESaIcEEESaIS8_EEEEP7SEXPRECRKT_NS_6traits17integral_constantIbLb0EEE"
 "_ZN4Rcpp8internal21wrap_dispatch_unknownISt6vectorIS2_IjSaIjEESaIS4_EEEEP7SEXPRECRKT_NS_6traits17integral_constantIbLb0EEE"
 "_ZN4Rcpp8internal21wrap_dispatch_unknownISt6vectorIdSaIdEEEEP7SEXPRECRKT_NS_6traits17integral_constantIbLb0EEE"
 "_ZN4Rcpp8internal22export_range__dispatchIN9__gnu_cxx17__normal_iteratorIPNSt7__cxx1112basic_stringIcSt11char_traitsIcESaIcEEESt6vectorIS9_SaIS9_EEEES9_EEvP7SEXPRECT_NS_6traits17r_type_string_tagE"
 "_ZN4Rcpp8internal22export_range__dispatchIN9__gnu_cxx17__normal_iteratorIPdSt6vectorIdSaIdEEEEdEEvP7SEXPRECT_NS_6traits20r_type_primitive_tagE"
 "_ZN4Rcpp8internal22export_range__dispatchIN9__gnu_cxx17__normal_iteratorIPiSt6vectorIiSaIiEEEEiEEvP7SEXPRECT_NS_6traits20r_type_primitive_tagE"
 "_ZN4Rcpp8internal22export_range__dispatchIN9__gnu_cxx17__normal_iteratorIPjSt6vectorIjSaIjEEEEjEEvP7SEXPRECT_NS_6traits20r_type_primitive_tagE"
 "_ZN4Rcpp8internal23convert_using_rfunctionEP7SEXPRECPKc"
 "_ZN4Rcpp8internal25generic_element_converterILi19EE3getEP7SEXPREC"
 "_ZN4Rcpp8internal25generic_element_converterILi19EE3getEPKc"
 "_ZN4Rcpp8internal25generic_element_converterILi19EE3getINS_6VectorILi16ENS_15PreserveStorageEEEEEP7SEXPRECRKT_"
 "_ZN4Rcpp8internal25generic_element_converterILi19EE3getISt6vectorIdSaIdEEEEP7SEXPRECRKT_"
 "_ZN4Rcpp8internal25generic_element_converterILi19EE3getIbEEP7SEXPRECRKT_"
 "_ZN4Rcpp8internal25generic_element_converterILi19EE3getIdEEP7SEXPRECRKT_"
 "_ZN4Rcpp8internal25generic_element_converterILi19EE3getIiEEP7SEXPRECRKT_"
 "_ZN4Rcpp8internal26primitive_wrap__impl__castIbEEP7SEXPRECRKT_NS_6traits17integral_constantIbLb1EEE"
 "_ZN4Rcpp8internal26primitive_wrap__impl__castIdEEP7SEXPRECRKT_NS_6traits17integral_constantIbLb0EEE"
 "_ZN4Rcpp8internal26primitive_wrap__impl__castIiEEP7SEXPRECRKT_NS_6traits17integral_constantIbLb0EEE"
 "_ZN4Rcpp8internal26primitive_wrap__impl__castIjEEP7SEXPRECRKT_NS_6traits17integral_constantIbLb1EEE"
 "_ZN4Rcpp8internal26range_wrap_dispatch___implIN9__gnu_cxx17__normal_iteratorIPKNSt7__cxx1112basic_stringIcSt11char_traitsIcESaIcEEESt6vectorIS9_SaIS9_EEEES9_EEP7SEXPRECT_SI_NS_6traits17r_type_string_tagE"
 "_ZN4Rcpp8internal26range_wrap_dispatch___implIN9__gnu_cxx17__normal_iteratorIPKSt6vectorIjSaIjEES4_IS6_SaIS6_EEEES6_EEP7SEXPRECT_SE_NS_6traits18r_type_generic_tagE"
 "_ZN4Rcpp8internal26range_wrap_dispatch___implIN9__gnu_cxx17__normal_iteratorIPKdSt6vectorIdSaIdEEEEdEEP7SEXPRECT_SC_NS_6traits20r_type_primitive_tagE"
 "_ZN4Rcpp8internal26range_wrap_dispatch___implISt23_Rb_tree_const_iteratorISt4pairIKNSt7__cxx1112basic_stringIcSt11char_traitsIcESaIcEEEP7SEXPRECEESD_EESC_T_SF_NS_6traits29r_type_pairstring_generic_tagE"
 "_ZN4Rcpp8internal27wrap_range_sugar_expressionISt3mapINSt7__cxx1112basic_stringIcSt11char_traitsIcESaIcEEEP7SEXPRECSt4lessIS8_ESaISt4pairIKS8_SA_EEEEESA_RKT_NS_6traits17integral_constantIbLb0EEE"
 "_ZN4Rcpp8internal27wrap_range_sugar_expressionISt6vectorINSt7__cxx1112basic_stringIcSt11char_traitsIcESaIcEEESaIS8_EEEEP7SEXPRECRKT_NS_6traits17integral_constantIbLb0EEE"
 "_ZN4Rcpp8internal27wrap_range_sugar_expressionISt6vectorIS2_IjSaIjEESaIS4_EEEEP7SEXPRECRKT_NS_6traits17integral_constantIbLb0EEE"
 "_ZN4Rcpp8internal27wrap_range_sugar_expressionISt6vectorIdSaIdEEEEP7SEXPRECRKT_NS_6traits17integral_constantIbLb0EEE"
 "_ZN4Rcpp8internal28make_charsexp__impl__cstringEPKc"
 "_ZN4Rcpp8internal28make_charsexp__impl__cstringERKNSt7__cxx1112basic_stringIcSt11char_traitsIcESaIcEEE"
 "_ZN4Rcpp8internal2asIN5Eigen3MapINS2_6MatrixIdLin1ELin1ELi0ELin1ELin1EEELi0ENS2_6StrideILi0ELi0EEEEEEET_P7SEXPRECNS_6traits18r_type_generic_tagE"
 "_ZN4Rcpp8internal2asINSt7__cxx1112basic_stringIcSt11char_traitsIcESaIcEEEEET_P7SEXPRECNS_6traits17r_type_string_tagE"
 "_ZN4Rcpp8internal2asISt6vectorINSt7__cxx1112basic_stringIcSt11char_traitsIcESaIcEEESaIS8_EEEET_P7SEXPRECNS_6traits18r_type_generic_tagE"
 "_ZN4Rcpp8internal2asISt6vectorIdSaIdEEEET_P7SEXPRECNS_6traits18r_type_generic_tagE"
 "_ZN4Rcpp8internal2asISt6vectorIiSaIiEEEET_P7SEXPRECNS_6traits18r_type_generic_tagE"
 "_ZN4Rcpp8internal2asISt6vectorIjSaIjEEEET_P7SEXPRECNS_6traits18r_type_generic_tagE"
 "_ZN4Rcpp8internal2asIbEET_P7SEXPRECNS_6traits20r_type_primitive_tagE"
 "_ZN4Rcpp8internal2asIdEET_P7SEXPRECNS_6traits20r_type_primitive_tagE"
 "_ZN4Rcpp8internal2asIiEET_P7SEXPRECNS_6traits20r_type_primitive_tagE"
 "_ZN4Rcpp8internal2asIjEET_P7SEXPRECNS_6traits20r_type_primitive_tagE"
 "_ZN4Rcpp8internal30wrap_dispatch_unknown_iterableISt3mapINSt7__cxx1112basic_stringIcSt11char_traitsIcESaIcEEEP7SEXPRECSt4lessIS8_ESaISt4pairIKS8_SA_EEEEESA_RKT_NS_6traits17integral_constantIbLb1EEE"
 "_ZN4Rcpp8internal30wrap_dispatch_unknown_iterableISt6vectorINSt7__cxx1112basic_stringIcSt11char_traitsIcESaIcEEESaIS8_EEEEP7SEXPRECRKT_NS_6traits17integral_constantIbLb1EEE"
 "_ZN4Rcpp8internal30wrap_dispatch_unknown_iterableISt6vectorIS2_IjSaIjEESaIS4_EEEEP7SEXPRECRKT_NS_6traits17integral_constantIbLb1EEE"
 "_ZN4Rcpp8internal30wrap_dispatch_unknown_iterableISt6vectorIdSaIdEEEEP7SEXPRECRKT_NS_6traits17integral_constantIbLb1EEE"
 "_ZN4Rcpp8internal32wrap_dispatch_unknown_importableINS_4XPtrINS_10class_BaseENS_15PreserveStorageEXadL_ZNS_25standard_delete_finalizerIS3_EEvPT_EELb0EEEEEP7SEXPRECRKS6_NS_6traits17integral_constantIbLb0EEE"
 "_ZN4Rcpp8internal32wrap_dispatch_unknown_importableINS_6ShieldIP7SEXPRECEEEES4_RKT_NS_6traits17integral_constantIbLb0EEE"
 "_ZN4Rcpp8internal32wrap_dispatch_unknown_importableINS_6VectorILi14ENS_15PreserveStorageEEEEEP7SEXPRECRKT_NS_6traits17integral_constantIbLb0EEE"
 "_ZN4Rcpp8internal32wrap_dispatch_unknown_importableINS_6VectorILi16ENS_15PreserveStorageEEEEEP7SEXPRECRKT_NS_6traits17integral_constantIbLb0EEE"
 "_ZN4Rcpp8internal32wrap_dispatch_unknown_importableINS_6VectorILi19ENS_15PreserveStorageEEEEEP7SEXPRECRKT_NS_6traits17integral_constantIbLb0EEE"
 "_ZN4Rcpp8internal32wrap_dispatch_unknown_importableIP7SEXPRECEES3_RKT_NS_6traits17integral_constantIbLb0EEE"
 "_ZN4Rcpp8internal32wrap_dispatch_unknown_importableISt3mapINSt7__cxx1112basic_stringIcSt11char_traitsIcESaIcEEEP7SEXPRECSt4lessIS8_ESaISt4pairIKS8_SA_EEEEESA_RKT_NS_6traits17integral_constantIbLb0EEE"
 "_ZN4Rcpp8internal32wrap_dispatch_unknown_importableISt6vectorINSt7__cxx1112basic_stringIcSt11char_traitsIcESaIcEEESaIS8_EEEEP7SEXPRECRKT_NS_6traits17integral_constantIbLb0EEE"
 "_ZN4Rcpp8internal32wrap_dispatch_unknown_importableISt6vectorIS2_IjSaIjEESaIS4_EEEEP7SEXPRECRKT_NS_6traits17integral_constantIbLb0EEE"
 "_ZN4Rcpp8internal32wrap_dispatch_unknown_importableISt6vectorIdSaIdEEEEP7SEXPRECRKT_NS_6traits17integral_constantIbLb0EEE"
 "_ZN4Rcpp8internal39wrap_dispatch_unknown_iterable__logicalISt3mapINSt7__cxx1112basic_stringIcSt11char_traitsIcESaIcEEEP7SEXPRECSt4lessIS8_ESaISt4pairIKS8_SA_EEEEESA_RKT_NS_6traits17integral_constantIbLb0EEE"
 "_ZN4Rcpp8internal39wrap_dispatch_unknown_iterable__logicalISt6vectorINSt7__cxx1112basic_stringIcSt11char_traitsIcESaIcEEESaIS8_EEEEP7SEXPRECRKT_NS_6traits17integral_constantIbLb0EEE"
 "_ZN4Rcpp8internal39wrap_dispatch_unknown_iterable__logicalISt6vectorIS2_IjSaIjEESaIS4_EEEEP7SEXPRECRKT_NS_6traits17integral_constantIbLb0EEE"
 "_ZN4Rcpp8internal39wrap_dispatch_unknown_iterable__logicalISt6vectorIdSaIdEEEEP7SEXPRECRKT_NS_6traits17integral_constantIbLb0EEE"
 "_ZN4Rcpp8internal3nthEP7SEXPRECi"
 "_ZN4Rcpp8internal48wrap_dispatch_unknown_iterable__matrix_interfaceISt3mapINSt7__cxx1112basic_stringIcSt11char_traitsIcESaIcEEEP7SEXPRECSt4lessIS8_ESaISt4pairIKS8_SA_EEEEESA_RKT_NS_6traits17integral_constantIbLb0EEE"
 "_ZN4Rcpp8internal48wrap_dispatch_unknown_iterable__matrix_interfaceISt6vectorINSt7__cxx1112basic_stringIcSt11char_traitsIcESaIcEEESaIS8_EEEEP7SEXPRECRKT_NS_6traits17integral_constantIbLb0EEE"
 "_ZN4Rcpp8internal48wrap_dispatch_unknown_iterable__matrix_interfaceISt6vectorIS2_IjSaIjEESaIS4_EEEEP7SEXPRECRKT_NS_6traits17integral_constantIbLb0EEE"
 "_ZN4Rcpp8internal48wrap_dispatch_unknown_iterable__matrix_interfaceISt6vectorIdSaIdEEEEP7SEXPRECRKT_NS_6traits17integral_constantIbLb0EEE"
 "_ZN4Rcpp8internal6casterIbiEET0_T_"
 "_ZN4Rcpp8internal6casterIddEET0_T_"
 "_ZN4Rcpp8internal6casterIdjEET0_T_"
 "_ZN4Rcpp8internal6casterIibEET0_T_"
 "_ZN4Rcpp8internal6casterIiiEET0_T_"
 "_ZN4Rcpp8internal6casterIjdEET0_T_"
 "_ZN4Rcpp8internal8get_zeroILi10EiEET0_v"
 "_ZN4Rcpp8internal8get_zeroILi13EiEET0_v"
 "_ZN4Rcpp8internal8get_zeroILi14EdEET0_v"
 "_ZN4Rcpp8internal9as_stringINSt7__cxx1112basic_stringIcSt11char_traitsIcESaIcEEEEET_P7SEXPRECNS_6traits17integral_constantIbLb0EEE"
 "_ZN4Rcpp9CppMethodIN5rstan8stan_fitIN18model_ef_namespace8model_efEN5boost6random23additive_combine_engineINS6_26linear_congruential_engineIjLj40014ELj0ELj2147483563EEENS8_IjLj40692ELj0ELj2147483399EEEEEEEEC2Ev"
 "_ZN4Rcpp9CppMethodIN5rstan8stan_fitIN18model_ef_namespace8model_efEN5boost6random23additive_combine_engineINS6_26linear_congruential_engineIjLj40014ELj0ELj2147483563EEENS8_IjLj40692ELj0ELj2147483399EEEEEEEED0Ev"
 "_ZN4Rcpp9CppMethodIN5rstan8stan_fitIN18model_ef_namespace8model_efEN5boost6random23additive_combine_engineINS6_26linear_congruential_engineIjLj40014ELj0ELj2147483563EEENS8_IjLj40692ELj0ELj2147483399EEEEEEEED1Ev"
 "_ZN4Rcpp9CppMethodIN5rstan8stan_fitIN18model_ef_namespace8model_efEN5boost6random23additive_combine_engineINS6_26linear_congruential_engineIjLj40014ELj0ELj2147483563EEENS8_IjLj40692ELj0ELj2147483399EEEEEEEED2Ev"
 "_ZN4Rcpp9Rcpp_evalEP7SEXPRECS1_"
 "_ZN4Rcpp9exception18record_stack_traceEv"
 "_ZN4Rcpp9exceptionC1EPKcb"
 "_ZN4Rcpp9exceptionD0Ev"
 "_ZN4Rcpp9exceptionD1Ev"
 "_ZN4Rcpp9yes_arityILi1EEEbPP7SEXPRECi"
 "_ZN4Rcpp9yes_arityILi2EEEbPP7SEXPRECi"
 "_ZN4Rcpp9yes_arityILi3EEEbPP7SEXPRECi"
 "_ZN4stan11variational11base_familyC2ERKS1_"
 "_ZN4stan11variational11base_familyC2Ev"
 "_ZN4stan11variational14print_progressEiiiibRKNSt7__cxx1112basic_stringIcSt11char_traitsIcESaIcEEES8_RNS_9callbacks6loggerE"
 "_ZN4stan11variational15normal_fullrank10set_L_cholERKN5Eigen6MatrixIdLin1ELin1ELi0ELin1ELin1EEE"
 "_ZN4stan11variational15normal_fullrank11set_to_zeroEv"
 "_ZN4stan11variational15normal_fullrank13validate_meanEPKcRKN5Eigen6MatrixIdLin1ELi1ELi0ELin1ELi1EEE"
 "_ZN4stan11variational15normal_fullrank24validate_cholesky_factorEPKcRKN5Eigen6MatrixIdLin1ELin1ELi0ELin1ELin1EEE"
 "_ZN4stan11variational15normal_fullrank6set_muERKN5Eigen6MatrixIdLin1ELi1ELi0ELin1ELi1EEE"
 "_ZN4stan11variational15normal_fullrankC1ERKN5Eigen6MatrixIdLin1ELi1ELi0ELin1ELi1EEE"
 "_ZN4stan11variational15normal_fullrankC1ERKN5Eigen6MatrixIdLin1ELi1ELi0ELin1ELi1EEERKNS3_IdLin1ELin1ELi0ELin1ELin1EEE"
 "_ZN4stan11variational15normal_fullrankC1ERKS1_"
 "_ZN4stan11variational15normal_fullrankC1Ey"
 "_ZN4stan11variational15normal_fullrankD1Ev"
 "_ZN4stan11variational15normal_fullrankaSERKS1_"
 "_ZN4stan11variational15normal_fullrankdVERKS1_"
 "_ZN4stan11variational15normal_fullrankmLEd"
 "_ZN4stan11variational15normal_fullrankpLERKS1_"
 "_ZN4stan11variational15normal_fullrankpLEd"
 "_ZN4stan11variational16normal_meanfield11set_to_zeroEv"
 "_ZN4stan11variational16normal_meanfield6set_muERKN5Eigen6MatrixIdLin1ELi1ELi0ELin1ELi1EEE"
 "_ZN4stan11variational16normal_meanfield9set_omegaERKN5Eigen6MatrixIdLin1ELi1ELi0ELin1ELi1EEE"
 "_ZN4stan11variational16normal_meanfieldC1ERKN5Eigen6MatrixIdLin1ELi1ELi0ELin1ELi1EEE"
 "_ZN4stan11variational16normal_meanfieldC1ERKN5Eigen6MatrixIdLin1ELi1ELi0ELin1ELi1EEES6_"
 "_ZN4stan11variational16normal_meanfieldC1ERKS1_"
 "_ZN4stan11variational16normal_meanfieldC1Ey"
 "_ZN4stan11variational16normal_meanfieldD1Ev"
 "_ZN4stan11variational16normal_meanfieldaSERKS1_"
 "_ZN4stan11variational16normal_meanfielddVERKS1_"
 "_ZN4stan11variational16normal_meanfieldmLEd"
 "_ZN4stan11variational16normal_meanfieldpLERKS1_"
 "_ZN4stan11variational16normal_meanfieldpLEd"
 "_ZN4stan11variational4adviIN18model_ef_namespace8model_efENS0_15normal_fullrankEN5boost6random23additive_combine_engineINS6_26linear_congruential_engineIjLj40014ELj0ELj2147483563EEENS8_IjLj40692ELj0ELj2147483399EEEEEEC1ERS3_RN5Eigen6MatrixIdLin1ELi1ELi0ELin1ELi1EEERSB_iiii"
 "_ZN4stan11variational4adviIN18model_ef_namespace8model_efENS0_16normal_meanfieldEN5boost6random23additive_combine_engineINS6_26linear_congruential_engineIjLj40014ELj0ELj2147483563EEENS8_IjLj40692ELj0ELj2147483399EEEEEEC1ERS3_RN5Eigen6MatrixIdLin1ELi1ELi0ELin1ELi1EEERSB_iiii"
 "_ZN4stan11variationaldvENS0_15normal_fullrankERKS1_"
 "_ZN4stan11variationaldvENS0_16normal_meanfieldERKS1_"
 "_ZN4stan11variationalmlEdNS0_15normal_fullrankE"
 "_ZN4stan11variationalmlEdNS0_16normal_meanfieldE"
 "_ZN4stan11variationalplENS0_15normal_fullrankERKS1_"
 "_ZN4stan11variationalplENS0_16normal_meanfieldERKS1_"
 "_ZN4stan11variationalplEdNS0_15normal_fullrankE"
 "_ZN4stan11variationalplEdNS0_16normal_meanfieldE"
 "_ZN4stan12optimization10WolfLSZoomINS0_12ModelAdaptorIN18model_ef_namespace8model_efEEEdN5Eigen6MatrixIdLin1ELi1ELi0ELin1ELi1EEEEEiRT0_RT1_SA_SC_RT_RKSB_RKS9_SI_SI_SI_SG_S9_S9_S9_S9_S9_S9_SI_"
 "_ZN4stan12optimization11CubicInterpIdEET_RKS2_S4_S4_S4_S4_S4_"
 "_ZN4stan12optimization11LBFGSUpdateIdLin1EE16set_history_sizeEy"
 "_ZN4stan12optimization11LBFGSUpdateIdLin1EE6updateERKN5Eigen6MatrixIdLin1ELi1ELi0ELin1ELi1EEES7_b"
 "_ZN4stan12optimization11LBFGSUpdateIdLin1EEC1Ey"
 "_ZN4stan12optimization11LBFGSUpdateIdLin1EED1Ev"
 "_ZN4stan12optimization11newton_stepIN18model_ef_namespace8model_efEEEdRT_RSt6vectorIdSaIdEERS6_IiSaIiEEPSo"
 "_ZN4stan12optimization12ModelAdaptorIN18model_ef_namespace8model_efEEC1ERS3_RKSt6vectorIiSaIiEEPSo"
 "_ZN4stan12optimization12ModelAdaptorIN18model_ef_namespace8model_efEED1Ev"
 "_ZN4stan12optimization12ModelAdaptorIN18model_ef_namespace8model_efEEclERKN5Eigen6MatrixIdLin1ELi1ELi0ELin1ELi1EEERdRS7_"
 "_ZN4stan12optimization13BFGSMinimizerINS0_12ModelAdaptorIN18model_ef_namespace8model_efEEENS0_11LBFGSUpdateIdLin1EEEdLin1EE10initializeERKN5Eigen6MatrixIdLin1ELi1ELi0ELin1ELi1EEE"
 "_ZN4stan12optimization13BFGSMinimizerINS0_12ModelAdaptorIN18model_ef_namespace8model_efEEENS0_11LBFGSUpdateIdLin1EEEdLin1EE12get_qnupdateEv"
 "_ZN4stan12optimization13BFGSMinimizerINS0_12ModelAdaptorIN18model_ef_namespace8model_efEEENS0_11LBFGSUpdateIdLin1EEEdLin1EE15get_code_stringB5cxx11Ei"
 "_ZN4stan12optimization13BFGSMinimizerINS0_12ModelAdaptorIN18model_ef_namespace8model_efEEENS0_11LBFGSUpdateIdLin1EEEdLin1EE4stepEv"
 "_ZN4stan12optimization13BFGSMinimizerINS0_12ModelAdaptorIN18model_ef_namespace8model_efEEENS0_11LBFGSUpdateIdLin1EEEdLin1EEC2ERS5_"
 "_ZN4stan12optimization13BFGSMinimizerINS0_12ModelAdaptorIN18model_ef_namespace8model_efEEENS0_11LBFGSUpdateIdLin1EEEdLin1EED2Ev"
 "_ZN4stan12optimization13BFGSMinimizerINS0_12ModelAdaptorIN18model_ef_namespace8model_efEEENS0_15BFGSUpdate_HInvIdLin1EEEdLin1EE10initializeERKN5Eigen6MatrixIdLin1ELi1ELi0ELin1ELi1EEE"
 "_ZN4stan12optimization13BFGSMinimizerINS0_12ModelAdaptorIN18model_ef_namespace8model_efEEENS0_15BFGSUpdate_HInvIdLin1EEEdLin1EE15get_code_stringB5cxx11Ei"
 "_ZN4stan12optimization13BFGSMinimizerINS0_12ModelAdaptorIN18model_ef_namespace8model_efEEENS0_15BFGSUpdate_HInvIdLin1EEEdLin1EE4stepEv"
 "_ZN4stan12optimization13BFGSMinimizerINS0_12ModelAdaptorIN18model_ef_namespace8model_efEEENS0_15BFGSUpdate_HInvIdLin1EEEdLin1EEC2ERS5_"
 "_ZN4stan12optimization13BFGSMinimizerINS0_12ModelAdaptorIN18model_ef_namespace8model_efEEENS0_15BFGSUpdate_HInvIdLin1EEEdLin1EED2Ev"
 "_ZN4stan12optimization14BFGSLineSearchIN18model_ef_namespace8model_efENS0_11LBFGSUpdateIdLin1EEEdLin1EE10grad_evalsEv"
 "_ZN4stan12optimization14BFGSLineSearchIN18model_ef_namespace8model_efENS0_11LBFGSUpdateIdLin1EEEdLin1EE10initializeERKSt6vectorIdSaIdEE"
 "_ZN4stan12optimization14BFGSLineSearchIN18model_ef_namespace8model_efENS0_11LBFGSUpdateIdLin1EEEdLin1EE4logpEv"
 "_ZN4stan12optimization14BFGSLineSearchIN18model_ef_namespace8model_efENS0_11LBFGSUpdateIdLin1EEEdLin1EE8params_rERSt6vectorIdSaIdEE"
 "_ZN4stan12optimization14BFGSLineSearchIN18model_ef_namespace8model_efENS0_11LBFGSUpdateIdLin1EEEdLin1EEC1ERS3_RKSt6vectorIdSaIdEERKS8_IiSaIiEEPSo"
 "_ZN4stan12optimization14BFGSLineSearchIN18model_ef_namespace8model_efENS0_11LBFGSUpdateIdLin1EEEdLin1EED1Ev"
 "_ZN4stan12optimization14BFGSLineSearchIN18model_ef_namespace8model_efENS0_15BFGSUpdate_HInvIdLin1EEEdLin1EE10grad_evalsEv"
 "_ZN4stan12optimization14BFGSLineSearchIN18model_ef_namespace8model_efENS0_15BFGSUpdate_HInvIdLin1EEEdLin1EE10initializeERKSt6vectorIdSaIdEE"
 "_ZN4stan12optimization14BFGSLineSearchIN18model_ef_namespace8model_efENS0_15BFGSUpdate_HInvIdLin1EEEdLin1EE4logpEv"
 "_ZN4stan12optimization14BFGSLineSearchIN18model_ef_namespace8model_efENS0_15BFGSUpdate_HInvIdLin1EEEdLin1EE8params_rERSt6vectorIdSaIdEE"
 "_ZN4stan12optimization14BFGSLineSearchIN18model_ef_namespace8model_efENS0_15BFGSUpdate_HInvIdLin1EEEdLin1EEC1ERS3_RKSt6vectorIdSaIdEERKS8_IiSaIiEEPSo"
 "_ZN4stan12optimization14BFGSLineSearchIN18model_ef_namespace8model_efENS0_15BFGSUpdate_HInvIdLin1EEEdLin1EED1Ev"
 "_ZN4stan12optimization15BFGSUpdate_HInvIdLin1EE6updateERKN5Eigen6MatrixIdLin1ELi1ELi0ELin1ELi1EEES7_b"
 "_ZN4stan12optimization15BFGSUpdate_HInvIdLin1EEC1Ev"
 "_ZN4stan12optimization15BFGSUpdate_HInvIdLin1EED1Ev"
 "_ZN4stan12optimization15WolfeLineSearchINS0_12ModelAdaptorIN18model_ef_namespace8model_efEEEdN5Eigen6MatrixIdLin1ELi1ELi0ELin1ELi1EEEEEiRT_RT0_RT1_SC_SE_RKSD_SG_RKSB_SG_SI_SI_SI_SI_SI_"
 "_ZN4stan12optimization18ConvergenceOptionsIdEC1Ev"
 "_ZN4stan12optimization32make_negative_definite_and_solveERN5Eigen6MatrixIdLin1ELin1ELi0ELin1ELin1EEERNS2_IdLin1ELi1ELi0ELin1ELi1EEE"
 "_ZN4stan12optimization9LSOptionsIdEC1Ev"
 "_ZN4stan13VectorBuilderILb1EdJiiEE4dataEv"
 "_ZN4stan13VectorBuilderILb1EdJiiEEC1Ey"
 "_ZN4stan13VectorBuilderILb1EdJiiEEixEy"
 "_ZN4stan14size_of_helperIiLb0EE7size_ofERKi"
 "_ZN4stan15scalar_seq_viewIdvEC1ERKd"
 "_ZN4stan15scalar_seq_viewIdvEixEi"
 "_ZN4stan15scalar_seq_viewIivEC1ERKi"
 "_ZN4stan15scalar_seq_viewIivEixEi"
 "_ZN4stan15scalar_seq_viewIxvEC1ERKx"
 "_ZN4stan15scalar_seq_viewIxvEixEi"
 "_ZN4stan15scalar_seq_viewIyvEC1ERKy"
 "_ZN4stan15scalar_seq_viewIyvEixEi"
 "_ZN4stan19VectorBuilderHelperIdLb1ELb0EE4dataEv"
 "_ZN4stan19VectorBuilderHelperIdLb1ELb0EEC1Ey"
 "_ZN4stan19VectorBuilderHelperIdLb1ELb0EEixEy"
 "_ZN4stan2io11dump_reader10int_valuesEv"
 "_ZN4stan2io11dump_reader10scan_charsEPKcb"
 "_ZN4stan2io11dump_reader10scan_valueEv"
 "_ZN4stan2io11dump_reader11scan_doubleEv"
 "_ZN4stan2io11dump_reader11scan_numberEb"
 "_ZN4stan2io11dump_reader11scan_numberEv"
 "_ZN4stan2io11dump_reader13double_valuesEv"
 "_ZN4stan2io11dump_reader14scan_seq_valueEv"
 "_ZN4stan2io11dump_reader16scan_single_charEc"
 "_ZN4stan2io11dump_reader17scan_struct_valueEv"
 "_ZN4stan2io11dump_reader17scan_zero_doublesEv"
 "_ZN4stan2io11dump_reader18scan_name_unquotedEv"
 "_ZN4stan2io11dump_reader18scan_optional_longEv"
 "_ZN4stan2io11dump_reader18scan_zero_integersEv"
 "_ZN4stan2io11dump_reader4dimsEv"
 "_ZN4stan2io11dump_reader4nameB5cxx11Ev"
 "_ZN4stan2io11dump_reader4nextEv"
 "_ZN4stan2io11dump_reader6is_intEv"
 "_ZN4stan2io11dump_reader7get_intEv"
 "_ZN4stan2io11dump_reader8scan_dimEv"
 "_ZN4stan2io11dump_reader8scan_intEv"
 "_ZN4stan2io11dump_reader9scan_charEc"
 "_ZN4stan2io11dump_reader9scan_nameEv"
 "_ZN4stan2io11dump_readerC1ERSi"
 "_ZN4stan2io11dump_readerD1Ev"
 "_ZN4stan2io11var_context6to_vecEv"
 "_ZN4stan2io11var_context6to_vecEy"
 "_ZN4stan2io11var_context6to_vecEyy"
 "_ZN4stan2io11var_context6to_vecEyyy"
 "_ZN4stan2io11var_contextC2Ev"
 "_ZN4stan2io11var_contextD2Ev"
 "_ZN4stan2io13preproc_eventC1EOS1_"
 "_ZN4stan2io13preproc_eventC1ERKS1_"
 "_ZN4stan2io13preproc_eventC1EiiRKNSt7__cxx1112basic_stringIcSt11char_traitsIcESaIcEEES9_"
 "_ZN4stan2io13preproc_eventD1Ev"
 "_ZN4stan2io14program_reader9add_eventEiiRKNSt7__cxx1112basic_stringIcSt11char_traitsIcESaIcEEES9_"
 "_ZN4stan2io14program_readerC1Ev"
 "_ZN4stan2io14program_readerD1Ev"
 "_ZN4stan2io17array_var_context13validate_dimsIxEESt6vectorIySaIyEERKS3_INSt7__cxx1112basic_stringIcSt11char_traitsIcESaIcEEESaISB_EET_RKS3_IS5_SaIS5_EE"
 "_ZN4stan2io17array_var_context5add_rERKSt6vectorINSt7__cxx1112basic_stringIcSt11char_traitsIcESaIcEEESaIS8_EERKN5Eigen6MatrixIdLin1ELi1ELi0ELin1ELi1EEERKS2_IS2_IySaIyEESaISJ_EE"
 "_ZN4stan2io17array_var_contextC1ERKSt6vectorINSt7__cxx1112basic_stringIcSt11char_traitsIcESaIcEEESaIS8_EERKN5Eigen6MatrixIdLin1ELi1ELi0ELin1ELi1EEERKS2_IS2_IySaIyEESaISJ_EE"
 "_ZN4stan2io17array_var_contextD0Ev"
 "_ZN4stan2io17array_var_contextD1Ev"
 "_ZN4stan2io17empty_var_contextC1Ev"
 "_ZN4stan2io17empty_var_contextD0Ev"
 "_ZN4stan2io17empty_var_contextD1Ev"
 "_ZN4stan2io17validate_zero_bufINSt7__cxx1112basic_stringIcSt11char_traitsIcESaIcEEEEEvRKT_"
 "_ZN4stan2io18random_var_context21constrained_to_vals_rERKSt6vectorIdSaIdEERKS2_IS2_IySaIyEESaIS8_EE"
 "_ZN4stan2io18random_var_context8dim_sizeERKSt6vectorIySaIyEE"
 "_ZN4stan2io18random_var_contextC1IN18model_ef_namespace8model_efEN5boost6random23additive_combine_engineINS6_26linear_congruential_engineIjLj40014ELj0ELj2147483563EEENS8_IjLj40692ELj0ELj2147483399EEEEEEERT_RT0_db"
 "_ZN4stan2io18random_var_contextD0Ev"
 "_ZN4stan2io18random_var_contextD1Ev"
 "_ZN4stan2io19chained_var_contextC1ERKNS0_11var_contextES4_"
 "_ZN4stan2io19chained_var_contextD0Ev"
 "_ZN4stan2io19chained_var_contextD1Ev"
 "_ZN4stan2io4dumpC1ERSi"
 "_ZN4stan2io6readerINS_4math3varEE16vector_constrainEy"
 "_ZN4stan2io6readerINS_4math3varEE16vector_constrainEyRS3_"
 "_ZN4stan2io6readerINS_4math3varEE20scalar_ptr_incrementEy"
 "_ZN4stan2io6readerINS_4math3varEEC1ERSt6vectorIS3_SaIS3_EERS5_IiSaIiEE"
 "_ZN4stan2io6readerINS_4math3varEED1Ev"
 "_ZN4stan2io6readerIdE16vector_constrainEy"
 "_ZN4stan2io6readerIdE16vector_constrainEyRd"
 "_ZN4stan2io6readerIdE20scalar_ptr_incrementEy"
 "_ZN4stan2io6readerIdEC1ERSt6vectorIdSaIdEERS3_IiSaIiEE"
 "_ZN4stan2io6readerIdED1Ev"
 "_ZN4stan2io6writerIdE18vector_unconstrainERKN5Eigen6MatrixIdLin1ELi1ELi0ELin1ELi1EEE"
 "_ZN4stan2io6writerIdE6data_iEv"
 "_ZN4stan2io6writerIdE6data_rEv"
 "_ZN4stan2io6writerIdEC1ERSt6vectorIdSaIdEERS3_IiSaIiEE"
 "_ZN4stan2io6writerIdED1Ev"
 "_ZN4stan3getINS_4math3varELin1ELi1EEET_RKN5Eigen6MatrixIS3_XT0_EXT1_EXorLNS4_14StorageOptionsE0EquaaeqT0_Li1EneT1_Li1ELS6_1EquaaeqT1_Li1EneT0_Li1ELS6_0ELS6_0EEXT0_EXT1_EEEy"
 "_ZN4stan3getIdLi1ELin1EEET_RKN5Eigen6MatrixIS1_XT0_EXT1_EXorLNS2_14StorageOptionsE0EquaaeqT0_Li1EneT1_Li1ELS4_1EquaaeqT1_Li1EneT0_Li1ELS4_0ELS4_0EEXT0_EXT1_EEEy"
 "_ZN4stan3getIdLin1ELi1EEET_RKN5Eigen6MatrixIS1_XT0_EXT1_EXorLNS2_14StorageOptionsE0EquaaeqT0_Li1EneT1_Li1ELS4_1EquaaeqT1_Li1EneT0_Li1ELS4_0ELS4_0EEXT0_EXT1_EEEy"
 "_ZN4stan3getIdLin1ELin1EEET_RKN5Eigen6MatrixIS1_XT0_EXT1_EXorLNS2_14StorageOptionsE0EquaaeqT0_Li1EneT1_Li1ELS4_1EquaaeqT1_Li1EneT0_Li1ELS4_0ELS4_0EEXT0_EXT1_EEEy"
 "_ZN4stan4lang15rethrow_locatedERKSt9exceptionNSt7__cxx1112basic_stringIcSt11char_traitsIcESaIcEEE"
 "_ZN4stan4lang15rethrow_locatedERKSt9exceptioniRKNS_2io14program_readerE"
 "_ZN4stan4lang17located_exceptionISt10bad_typeidEC1ERKNSt7__cxx1112basic_stringIcSt11char_traitsIcESaIcEEESB_"
 "_ZN4stan4lang17located_exceptionISt10bad_typeidED0Ev"
 "_ZN4stan4lang17located_exceptionISt10bad_typeidED1Ev"
 "_ZN4stan4lang17located_exceptionISt13bad_exceptionEC1ERKNSt7__cxx1112basic_stringIcSt11char_traitsIcESaIcEEESB_"
 "_ZN4stan4lang17located_exceptionISt13bad_exceptionED0Ev"
 "_ZN4stan4lang17located_exceptionISt13bad_exceptionED1Ev"
 "_ZN4stan4lang17located_exceptionISt8bad_castEC1ERKNSt7__cxx1112basic_stringIcSt11char_traitsIcESaIcEEESB_"
 "_ZN4stan4lang17located_exceptionISt8bad_castED0Ev"
 "_ZN4stan4lang17located_exceptionISt8bad_castED1Ev"
 "_ZN4stan4lang17located_exceptionISt9bad_allocEC1ERKNSt7__cxx1112basic_stringIcSt11char_traitsIcESaIcEEESB_"
 "_ZN4stan4lang17located_exceptionISt9bad_allocED0Ev"
 "_ZN4stan4lang17located_exceptionISt9bad_allocED1Ev"
 "_ZN4stan4lang17located_exceptionISt9exceptionEC1ERKNSt7__cxx1112basic_stringIcSt11char_traitsIcESaIcEEESB_"
 "_ZN4stan4lang17located_exceptionISt9exceptionED0Ev"
 "_ZN4stan4lang17located_exceptionISt9exceptionED1Ev"
 "_ZN4stan4lang7is_typeISt10bad_typeidEEbRKSt9exception"
 "_ZN4stan4lang7is_typeISt11logic_errorEEbRKSt9exception"
 "_ZN4stan4lang7is_typeISt11range_errorEEbRKSt9exception"
 "_ZN4stan4lang7is_typeISt12domain_errorEEbRKSt9exception"
 "_ZN4stan4lang7is_typeISt12length_errorEEbRKSt9exception"
 "_ZN4stan4lang7is_typeISt12out_of_rangeEEbRKSt9exception"
 "_ZN4stan4lang7is_typeISt13bad_exceptionEEbRKSt9exception"
 "_ZN4stan4lang7is_typeISt13runtime_errorEEbRKSt9exception"
 "_ZN4stan4lang7is_typeISt14overflow_errorEEbRKSt9exception"
 "_ZN4stan4lang7is_typeISt15underflow_errorEEbRKSt9exception"
 "_ZN4stan4lang7is_typeISt16invalid_argumentEEbRKSt9exception"
 "_ZN4stan4lang7is_typeISt8bad_castEEbRKSt9exception"
 "_ZN4stan4lang7is_typeISt9bad_allocEEbRKSt9exception"
 "_ZN4stan4math10elt_divideIdNS0_3varELin1ELi1EEEN5Eigen6MatrixINS_11return_typeIT_JT0_EE4typeEXT1_EXT2_EXorLNS3_14StorageOptionsE0EquaaeqT1_Li1EneT2_Li1ELSA_1EquaaeqT2_Li1EneT1_Li1ELSA_0ELSA_0EEXT1_EXT2_EEES6_RKNS4_IS7_XT1_EXT2_EXorLSA_0EquaaeqT1_Li1EneT2_Li1ELSA_1EquaaeqT2_Li1EneT1_Li1ELSA_0ELSA_0EEXT1_EXT2_EEE"
 "_ZN4stan4math10elt_divideIddLin1ELi1EEEN5Eigen6MatrixINS_11return_typeIT_JT0_EE4typeEXT1_EXT2_EXorLNS2_14StorageOptionsE0EquaaeqT1_Li1EneT2_Li1ELS9_1EquaaeqT2_Li1EneT1_Li1ELS9_0ELS9_0EEXT1_EXT2_EEES5_RKNS3_IS6_XT1_EXT2_EXorLS9_0EquaaeqT1_Li1EneT2_Li1ELS9_1EquaaeqT2_Li1EneT1_Li1ELS9_0ELS9_0EEXT1_EXT2_EEE"
 "_ZN4stan4math10initializeIN5Eigen6MatrixINS0_3varELin1ELi1ELi0ELin1ELi1EEES4_EEvRSt6vectorIT_SaIS7_EERKT0_"
 "_ZN4stan4math10initializeIN5Eigen6MatrixIdLin1ELi1ELi0ELin1ELi1EEEdEEvRSt6vectorIT_SaIS6_EERKT0_"
 "_ZN4stan4math10initializeINS0_3varEEEvRT_RKS3_"
 "_ZN4stan4math10initializeINS0_3varELin1ELi1ES2_EEvRN5Eigen6MatrixIT_XT0_EXT1_EXorLNS3_14StorageOptionsE0EquaaeqT0_Li1EneT1_Li1ELS6_1EquaaeqT1_Li1EneT0_Li1ELS6_0ELS6_0EEXT0_EXT1_EEERKT2_"
 "_ZN4stan4math10initializeIdEEvRT_RKS2_"
 "_ZN4stan4math10initializeIdLin1ELi1EdEEvRN5Eigen6MatrixIT_XT0_EXT1_EXorLNS2_14StorageOptionsE0EquaaeqT0_Li1EneT1_Li1ELS5_1EquaaeqT1_Li1EneT0_Li1ELS5_0ELS5_0EEXT0_EXT1_EEERKT2_"
 "_ZN4stan4math10is_alignedIcEEbPT_j"
 "_ZN4stan4math10is_any_nanIdEEbRKT_"
 "_ZN4stan4math10is_any_nanIdJdEEEbRKT_DpRKT0_"
 "_ZN4stan4math10normal_rngIiiN5boost6random23additive_combine_engineINS3_26linear_congruential_engineIjLj40014ELj0ELj2147483563EEENS5_IjLj40692ELj0ELj2147483399EEEEEEENS_13VectorBuilderILb1EdJT_T0_EE4typeERKSA_RKSB_RT1_"
 "_ZN4stan4math10op_dv_variC2EddPNS0_4variE"
 "_ZN4stan4math10op_dv_variD0Ev"
 "_ZN4stan4math10op_dv_variD1Ev"
 "_ZN4stan4math10op_dv_variD2Ev"
 "_ZN4stan4math10op_vd_variC2EdPNS0_4variEd"
 "_ZN4stan4math10op_vd_variD0Ev"
 "_ZN4stan4math10op_vd_variD1Ev"
 "_ZN4stan4math10op_vd_variD2Ev"
 "_ZN4stan4math10op_vv_variC2EdPNS0_4variES3_"
 "_ZN4stan4math10op_vv_variD0Ev"
 "_ZN4stan4math10op_vv_variD1Ev"
 "_ZN4stan4math10op_vv_variD2Ev"
 "_ZN4stan4math10sum_v_vari10sum_of_valERKSt6vectorINS0_3varESaIS3_EE"
 "_ZN4stan4math10sum_v_vari5chainEv"
 "_ZN4stan4math10sum_v_variC1ERKSt6vectorINS0_3varESaIS3_EE"
 "_ZN4stan4math11accumulatorINS0_3varEE3addIS2_vvEEvRKT_"
 "_ZN4stan4math11accumulatorINS0_3varEEC1Ev"
 "_ZN4stan4math11accumulatorINS0_3varEED1Ev"
 "_ZN4stan4math11accumulatorIdE3addIdvEEvT_"
 "_ZN4stan4math11accumulatorIdEC1Ev"
 "_ZN4stan4math11accumulatorIdED1Ev"
 "_ZN4stan4math11check_rangeEPKcS2_ii"
 "_ZN4stan4math11check_rangeEPKcS2_iiiS2_"
 "_ZN4stan4math11log_sum_expIddEENS_11return_typeIT_JT0_EE4typeERKS4_RKS3_"
 "_ZN4stan4math11stack_alloc11alloc_arrayIPNS0_4variEEEPT_y"
 "_ZN4stan4math11stack_alloc11alloc_arrayIdEEPT_y"
 "_ZN4stan4math11stack_alloc11recover_allEv"
 "_ZN4stan4math11stack_alloc12start_nestedEv"
 "_ZN4stan4math11stack_alloc14recover_nestedEv"
 "_ZN4stan4math11stack_alloc18move_to_next_blockEy"
 "_ZN4stan4math11stack_alloc5allocEy"
 "_ZN4stan4math11stack_allocC1Ey"
 "_ZN4stan4math11stack_allocD1Ev"
 "_ZN4stan4math12check_finiteIN5Eigen6MatrixIdLin1ELi1ELi0ELin1ELi1EEEEEvPKcS6_RKT_"
 "_ZN4stan4math12check_finiteIdEEvPKcS3_RKT_"
 "_ZN4stan4math12check_finiteIiEEvPKcS3_RKT_"
 "_ZN4stan4math12check_squareIdEEvPKcS3_RKN5Eigen6MatrixIT_Lin1ELin1ELi0ELin1ELin1EEE"
 "_ZN4stan4math12domain_errorIA1_cEEvPKcS4_RKT_S4_"
 "_ZN4stan4math12domain_errorIA1_cEEvPKcS4_RKT_S4_S4_"
 "_ZN4stan4math12domain_errorIA26_cEEvPKcS4_RKT_S4_"
 "_ZN4stan4math12domain_errorIA26_cEEvPKcS4_RKT_S4_S4_"
 "_ZN4stan4math12domain_errorINS0_3varEEEvPKcS4_RKT_S4_S4_"
 "_ZN4stan4math12domain_errorIdEEvPKcS3_RKT_S3_"
 "_ZN4stan4math12domain_errorIdEEvPKcS3_RKT_S3_S3_"
 "_ZN4stan4math12domain_errorIiEEvPKcS3_RKT_S3_S3_"
 "_ZN4stan4math12domain_errorIyEEvPKcS3_RKT_S3_S3_"
 "_ZN4stan4math12elt_multiplyINS0_3varES2_Lin1ELi1EEEN5Eigen6MatrixINS_11return_typeIT_JT0_EE4typeEXT1_EXT2_EXorLNS3_14StorageOptionsE0EquaaeqT1_Li1EneT2_Li1ELSA_1EquaaeqT2_Li1EneT1_Li1ELSA_0ELSA_0EEXT1_EXT2_EEERKNS4_IS6_XT1_EXT2_EXorLSA_0EquaaeqT1_Li1EneT2_Li1ELSA_1EquaaeqT2_Li1EneT1_Li1ELSA_0ELSA_0EEXT1_EXT2_EEERKNS4_IS7_XT1_EXT2_EXorLSA_0EquaaeqT1_Li1EneT2_Li1ELSA_1EquaaeqT2_Li1EneT1_Li1ELSA_0ELSA_0EEXT1_EXT2_EEE"
 "_ZN4stan4math12elt_multiplyIddLin1ELi1EEEN5Eigen6MatrixINS_11return_typeIT_JT0_EE4typeEXT1_EXT2_EXorLNS2_14StorageOptionsE0EquaaeqT1_Li1EneT2_Li1ELS9_1EquaaeqT2_Li1EneT1_Li1ELS9_0ELS9_0EEXT1_EXT2_EEERKNS3_IS5_XT1_EXT2_EXorLS9_0EquaaeqT1_Li1EneT2_Li1ELS9_1EquaaeqT2_Li1EneT1_Li1ELS9_0ELS9_0EEXT1_EXT2_EEERKNS3_IS6_XT1_EXT2_EXorLS9_0EquaaeqT1_Li1EneT2_Li1ELS9_1EquaaeqT2_Li1EneT1_Li1ELS9_0ELS9_0EEXT1_EXT2_EEE"
 "_ZN4stan4math12out_of_rangeEPKciiS2_S2_"
 "_ZN4stan4math12value_of_recERKNS0_3varE"
 "_ZN4stan4math12value_of_recILin1ELin1EEERKN5Eigen6MatrixIdXT_EXT0_EXorLNS2_14StorageOptionsE0EquaaeqT_Li1EneT0_Li1ELS4_1EquaaeqT0_Li1EneT_Li1ELS4_0ELS4_0EEXT_EXT0_EEES7_"
 "_ZN4stan4math12value_of_recIdEEdT_"
 "_ZN4stan4math12value_of_recIiEEdT_"
 "_ZN4stan4math13check_not_nanIN5Eigen6MatrixINS0_3varELin1ELi1ELi0ELin1ELi1EEEEEvPKcS7_RKT_"
 "_ZN4stan4math13check_not_nanIN5Eigen6MatrixIdLi1ELin1ELi1ELi1ELin1EEEEEvPKcS6_RKT_"
 "_ZN4stan4math13check_not_nanIN5Eigen6MatrixIdLin1ELi1ELi0ELin1ELi1EEEEEvPKcS6_RKT_"
 "_ZN4stan4math13check_not_nanIN5Eigen6MatrixIdLin1ELin1ELi0ELin1ELin1EEEEEvPKcS6_RKT_"
 "_ZN4stan4math14check_positiveEPKcS2_S2_i"
 "_ZN4stan4math14check_positiveIN5Eigen6MatrixIdLin1ELi1ELi0ELin1ELi1EEEEEvPKcS6_RKT_"
 "_ZN4stan4math14check_positiveIdEEvPKcS3_RKT_"
 "_ZN4stan4math14check_positiveIiEEvPKcS3_RKT_"
 "_ZN4stan4math15check_symmetricIdEEvPKcS3_RKN5Eigen6MatrixIT_Lin1ELin1ELi0ELin1ELin1EEE"
 "_ZN4stan4math16ad_tape_observer17on_scheduler_exitEb"
 "_ZN4stan4math16ad_tape_observer18on_scheduler_entryEb"
 "_ZN4stan4math16ad_tape_observerC1Ev"
 "_ZN4stan4math16ad_tape_observerD0Ev"
 "_ZN4stan4math16ad_tape_observerD1Ev"
 "_ZN4stan4math16check_size_matchIiiEEvPKcS3_T_S3_T0_"
 "_ZN4stan4math16check_size_matchIixEEvPKcS3_T_S3_T0_"
 "_ZN4stan4math16check_size_matchIiyEEvPKcS3_T_S3_T0_"
 "_ZN4stan4math16check_size_matchIxiEEvPKcS3_T_S3_T0_"
 "_ZN4stan4math16check_size_matchIxxEEvPKcS3_S3_T_S3_S3_T0_"
 "_ZN4stan4math16check_size_matchIxxEEvPKcS3_T_S3_T0_"
 "_ZN4stan4math16domain_error_vecIN5Eigen6MatrixINS0_3varELin1ELi1ELi0ELin1ELi1EEEEEvPKcS7_RKT_yS7_S7_"
 "_ZN4stan4math16domain_error_vecIN5Eigen6MatrixIdLi1ELin1ELi1ELi1ELin1EEEEEvPKcS6_RKT_yS6_S6_"
 "_ZN4stan4math16domain_error_vecIN5Eigen6MatrixIdLin1ELi1ELi0ELin1ELi1EEEEEvPKcS6_RKT_yS6_S6_"
 "_ZN4stan4math16domain_error_vecIN5Eigen6MatrixIdLin1ELin1ELi0ELin1ELin1EEEEEvPKcS6_RKT_yS6_S6_"
 "_ZN4stan4math16invalid_argumentIiEEvPKcS3_RKT_S3_S3_"
 "_ZN4stan4math16invalid_argumentIxEEvPKcS3_RKT_S3_S3_"
 "_ZN4stan4math16is_uninitializedENS0_3varE"
 "_ZN4stan4math16is_uninitializedIdEEbT_"
 "_ZN4stan4math17check_nonnegativeIiEEvPKcS3_RKT_"
 "_ZN4stan4math17multiply_mat_variIdLi1ELin1ENS0_3varELi1EEC1ERKN5Eigen6MatrixIdLi1ELin1ELi1ELi1ELin1EEERKNS5_IS2_Lin1ELi1ELi0ELin1ELi1EEE"
 "_ZN4stan4math17multiply_mat_variIdLin1ELin1ENS0_3varELi1EEC1ERKN5Eigen6MatrixIdLin1ELin1ELi0ELin1ELin1EEERKNS5_IS2_Lin1ELi1ELi0ELin1ELi1EEE"
 "_ZN4stan4math18apply_scalar_unaryINS0_7exp_funEN5Eigen6MatrixINS0_3varELin1ELi1ELi0ELin1ELi1EEEE5applyERKS6_"
 "_ZN4stan4math18apply_scalar_unaryINS0_7exp_funEN5Eigen6MatrixIdLin1ELi1ELi0ELin1ELi1EEEE5applyERKS5_"
 "_ZN4stan4math18apply_scalar_unaryINS0_7exp_funENS0_3varEE5applyERKS3_"
 "_ZN4stan4math18apply_scalar_unaryINS0_7exp_funEdE5applyEd"
 "_ZN4stan4math18apply_scalar_unaryINS0_7log_funEN5Eigen6MatrixINS0_3varELin1ELi1ELi0ELin1ELi1EEEE5applyERKS6_"
 "_ZN4stan4math18apply_scalar_unaryINS0_7log_funEN5Eigen6MatrixIdLin1ELi1ELi0ELin1ELi1EEEE5applyERKS5_"
 "_ZN4stan4math18apply_scalar_unaryINS0_7log_funENS0_3varEE5applyERKS3_"
 "_ZN4stan4math18apply_scalar_unaryINS0_7log_funEdE5applyEd"
 "_ZN4stan4math18check_pos_definiteIdEEvPKcS3_RKN5Eigen6MatrixIT_Lin1ELin1ELi0ELin1ELin1EEE"
 "_ZN4stan4math19check_less_or_equalIyxEEvPKcS3_RKT_RKT0_"
 "_ZN4stan4math19check_less_or_equalIyyEEvPKcS3_RKT_RKT0_"
 "_ZN4stan4math19check_matching_dimsINS0_3varES2_Lin1ELi1ELin1ELi1EEEvPKcS4_RKN5Eigen6MatrixIT_XT1_EXT2_EXorLNS5_14StorageOptionsE0EquaaeqT1_Li1EneT2_Li1ELS8_1EquaaeqT2_Li1EneT1_Li1ELS8_0ELS8_0EEXT1_EXT2_EEES4_RKNS6_IT0_XT3_EXT4_EXorLS8_0EquaaeqT3_Li1EneT4_Li1ELS8_1EquaaeqT4_Li1EneT3_Li1ELS8_0ELS8_0EEXT3_EXT4_EEE"
 "_ZN4stan4math19check_matching_dimsINS0_3varEdLin1ELi1ELin1ELi1EEEvPKcS4_RKN5Eigen6MatrixIT_XT1_EXT2_EXorLNS5_14StorageOptionsE0EquaaeqT1_Li1EneT2_Li1ELS8_1EquaaeqT2_Li1EneT1_Li1ELS8_0ELS8_0EEXT1_EXT2_EEES4_RKNS6_IT0_XT3_EXT4_EXorLS8_0EquaaeqT3_Li1EneT4_Li1ELS8_1EquaaeqT4_Li1EneT3_Li1ELS8_0ELS8_0EEXT3_EXT4_EEE"
 "_ZN4stan4math19check_matching_dimsIddLin1ELi1ELin1ELi1EEEvPKcS3_RKN5Eigen6MatrixIT_XT1_EXT2_EXorLNS4_14StorageOptionsE0EquaaeqT1_Li1EneT2_Li1ELS7_1EquaaeqT2_Li1EneT1_Li1ELS7_0ELS7_0EEXT1_EXT2_EEES3_RKNS5_IT0_XT3_EXT4_EXorLS7_0EquaaeqT3_Li1EneT4_Li1ELS7_1EquaaeqT4_Li1EneT3_Li1ELS7_0ELS7_0EEXT3_EXT4_EEE"
 "_ZN4stan4math19check_multiplicableIN5Eigen6MatrixIdLi1ELin1ELi1ELi1ELin1EEENS3_INS0_3varELin1ELi1ELi0ELin1ELi1EEEEEvPKcS8_RKT_S8_RKT0_"
 "_ZN4stan4math19check_multiplicableIN5Eigen6MatrixIdLin1ELin1ELi0ELin1ELin1EEENS3_INS0_3varELin1ELi1ELi0ELin1ELi1EEEEEvPKcS8_RKT_S8_RKT0_"
 "_ZN4stan4math19check_multiplicableIN5Eigen6MatrixIdLin1ELin1ELi0ELin1ELin1EEENS3_IdLin1ELi1ELi0ELin1ELi1EEEEEvPKcS7_RKT_S7_RKT0_"
 "_ZN4stan4math20check_matching_sizesIN5Eigen6MatrixIdLi1ELin1ELi1ELi1ELin1EEENS3_IdLin1ELi1ELi0ELin1ELi1EEEEEvPKcS7_RKT_S7_RKT0_"
 "_ZN4stan4math21check_consistent_sizeIiEEvPKcS3_RKT_y"
 "_ZN4stan4math21check_positive_finiteIiEEvPKcS3_RKT_"
 "_ZN4stan4math21welford_var_estimator10add_sampleERKN5Eigen6MatrixIdLin1ELi1ELi0ELin1ELi1EEE"
 "_ZN4stan4math21welford_var_estimator11num_samplesEv"
 "_ZN4stan4math21welford_var_estimator15sample_varianceERN5Eigen6MatrixIdLin1ELi1ELi0ELin1ELi1EEE"
 "_ZN4stan4math21welford_var_estimator7restartEv"
 "_ZN4stan4math21welford_var_estimatorC1Ei"
 "_ZN4stan4math21welford_var_estimatorD1Ev"
 "_ZN4stan4math22AutodiffStackSingletonINS0_4variENS0_15chainable_allocEE20AutodiffStackStorageC1Ev"
 "_ZN4stan4math22AutodiffStackSingletonINS0_4variENS0_15chainable_allocEE20AutodiffStackStorageD1Ev"
 "_ZN4stan4math22AutodiffStackSingletonINS0_4variENS0_15chainable_allocEE4initEv"
 "_ZN4stan4math22AutodiffStackSingletonINS0_4variENS0_15chainable_allocEEC1Ev"
 "_ZN4stan4math22AutodiffStackSingletonINS0_4variENS0_15chainable_allocEED1Ev"
 "_ZN4stan4math22check_consistent_sizesIiiEEvPKcS3_RKT_S3_RKT0_"
 "_ZN4stan4math22check_greater_or_equalIddEEvPKcS3_RKT_RKT0_"
 "_ZN4stan4math22check_greater_or_equalIiiEEvPKcS3_RKT_RKT0_"
 "_ZN4stan4math22check_lower_triangularIdEEvPKcS3_RKN5Eigen6MatrixIT_Lin1ELin1ELi0ELin1ELin1EEE"
 "_ZN4stan4math23welford_covar_estimator10add_sampleERKN5Eigen6MatrixIdLin1ELi1ELi0ELin1ELi1EEE"
 "_ZN4stan4math23welford_covar_estimator11num_samplesEv"
 "_ZN4stan4math23welford_covar_estimator17sample_covarianceERN5Eigen6MatrixIdLin1ELin1ELi0ELin1ELin1EEE"
 "_ZN4stan4math23welford_covar_estimator7restartEv"
 "_ZN4stan4math23welford_covar_estimatorC1Ei"
 "_ZN4stan4math23welford_covar_estimatorD1Ev"
 "_ZN4stan4math27validate_non_negative_indexEPKcS2_i"
 "_ZN4stan4math2piEv"
 "_ZN4stan4math3addIdNS0_3varELin1ELi1EEEN5Eigen6MatrixINS_11return_typeIT_JT0_EE4typeEXT1_EXT2_EXorLNS3_14StorageOptionsE0EquaaeqT1_Li1EneT2_Li1ELSA_1EquaaeqT2_Li1EneT1_Li1ELSA_0ELSA_0EEXT1_EXT2_EEERKS6_RKNS4_IS7_XT1_EXT2_EXorLSA_0EquaaeqT1_Li1EneT2_Li1ELSA_1EquaaeqT2_Li1EneT1_Li1ELSA_0ELSA_0EEXT1_EXT2_EEE"
 "_ZN4stan4math3addIddLin1ELi1EEEN5Eigen6MatrixINS_11return_typeIT_JT0_EE4typeEXT1_EXT2_EXorLNS2_14StorageOptionsE0EquaaeqT1_Li1EneT2_Li1ELS9_1EquaaeqT2_Li1EneT1_Li1ELS9_0ELS9_0EEXT1_EXT2_EEERKS5_RKNS3_IS6_XT1_EXT2_EXorLS9_0EquaaeqT1_Li1EneT2_Li1ELS9_1EquaaeqT2_Li1EneT1_Li1ELS9_0ELS9_0EEXT1_EXT2_EEE"
 "_ZN4stan4math3expERKNS0_3varE"
 "_ZN4stan4math3expIN5Eigen6MatrixINS0_3varELin1ELi1ELi0ELin1ELi1EEEEENS0_18apply_scalar_unaryINS0_7exp_funET_E8return_tERKS8_"
 "_ZN4stan4math3expIN5Eigen6MatrixIdLin1ELi1ELi0ELin1ELi1EEEEENS0_18apply_scalar_unaryINS0_7exp_funET_E8return_tERKS7_"
 "_ZN4stan4math3invEd"
 "_ZN4stan4math3logERKNS0_3varE"
 "_ZN4stan4math3logIN5Eigen6MatrixINS0_3varELin1ELi1ELi0ELin1ELi1EEEEENS0_18apply_scalar_unaryINS0_7log_funET_E8return_tERKS8_"
 "_ZN4stan4math3logIN5Eigen6MatrixIdLin1ELi1ELi0ELin1ELi1EEEEENS0_18apply_scalar_unaryINS0_7log_funET_E8return_tERKS7_"
 "_ZN4stan4math3sumERKSt6vectorINS0_3varESaIS2_EE"
 "_ZN4stan4math3sumIdEET_RKSt6vectorIS2_SaIS2_EE"
 "_ZN4stan4math3var16is_uninitializedEv"
 "_ZN4stan4math3var4gradERSt6vectorIS1_SaIS1_EERS2_IdSaIdEE"
 "_ZN4stan4math3varC1EPNS0_4variE"
 "_ZN4stan4math3varC1Ed"
 "_ZN4stan4math3varC1Ei"
 "_ZN4stan4math3varC1Ev"
 "_ZN4stan4math4fillIN5Eigen6MatrixINS0_3varELin1ELi1ELi0ELin1ELi1EEES4_EEvRSt6vectorIT_SaIS7_EERKT0_"
 "_ZN4stan4math4fillIN5Eigen6MatrixIdLin1ELi1ELi0ELin1ELi1EEEdEEvRSt6vectorIT_SaIS6_EERKT0_"
 "_ZN4stan4math4fillINS0_3varELin1ELi1ES2_EEvRN5Eigen6MatrixIT_XT0_EXT1_EXorLNS3_14StorageOptionsE0EquaaeqT0_Li1EneT1_Li1ELS6_1EquaaeqT1_Li1EneT0_Li1ELS6_0ELS6_0EEXT0_EXT1_EEERKT2_"
 "_ZN4stan4math4fillIdLin1ELi1EdEEvRN5Eigen6MatrixIT_XT0_EXT1_EXorLNS2_14StorageOptionsE0EquaaeqT0_Li1EneT1_Li1ELS5_1EquaaeqT1_Li1EneT0_Li1ELS5_0ELS5_0EEXT0_EXT1_EEERKT2_"
 "_ZN4stan4math4vari14init_dependentEv"
 "_ZN4stan4math4vari16set_zero_adjointEv"
 "_ZN4stan4math4vari5chainEv"
 "_ZN4stan4math4variC1Ed"
 "_ZN4stan4math4variC1Edb"
 "_ZN4stan4math4variC2Ed"
 "_ZN4stan4math4variD0Ev"
 "_ZN4stan4math4variD1Ev"
 "_ZN4stan4math4variD2Ev"
 "_ZN4stan4math4varidlEPv"
 "_ZN4stan4math4varinwEy"
 "_ZN4stan4math5log1pEd"
 "_ZN4stan4math6assignINS0_3varES2_EEvRT_RKT0_"
 "_ZN4stan4math6assignINS0_3varES2_Lin1ELi1EEEvRN5Eigen6MatrixIT_XT1_EXT2_EXorLNS3_14StorageOptionsE0EquaaeqT1_Li1EneT2_Li1ELS6_1EquaaeqT2_Li1EneT1_Li1ELS6_0ELS6_0EEXT1_EXT2_EEERKNS4_IT0_XT1_EXT2_EXorLS6_0EquaaeqT1_Li1EneT2_Li1ELS6_1EquaaeqT2_Li1EneT1_Li1ELS6_0ELS6_0EEXT1_EXT2_EEE"
 "_ZN4stan4math6assignIddEEvRT_RKT0_"
 "_ZN4stan4math6assignIddLin1ELi1EEEvRN5Eigen6MatrixIT_XT1_EXT2_EXorLNS2_14StorageOptionsE0EquaaeqT1_Li1EneT2_Li1ELS5_1EquaaeqT2_Li1EneT1_Li1ELS5_0ELS5_0EEXT1_EXT2_EEERKNS3_IT0_XT1_EXT2_EXorLS5_0EquaaeqT1_Li1EneT2_Li1ELS5_1EquaaeqT2_Li1EneT1_Li1ELS5_0ELS5_0EEXT1_EXT2_EEE"
 "_ZN4stan4math6is_nanIdvEEbT_"
 "_ZN4stan4math6squareEd"
 "_ZN4stan4math7exp_fun3funINS0_3varEEET_RKS4_"
 "_ZN4stan4math7exp_fun3funIdEET_RKS3_"
 "_ZN4stan4math7log_fun3funINS0_3varEEET_RKS4_"
 "_ZN4stan4math7log_fun3funIdEET_RKS3_"
 "_ZN4stan4math8gradientINS_5model16model_functionalIN18model_ef_namespace8model_efEEEEEvRKT_RKN5Eigen6MatrixIdLin1ELi1ELi0ELin1ELi1EEERdRSC_"
 "_ZN4stan4math8internal11add_vd_vari5chainEv"
 "_ZN4stan4math8internal11add_vd_variC1EPNS0_4variEd"
 "_ZN4stan4math8internal11add_vv_vari5chainEv"
 "_ZN4stan4math8internal11add_vv_variC1EPNS0_4variES4_"
 "_ZN4stan4math8internal11nonnegativeIiLb0EE5checkEPKcS5_RKi"
 "_ZN4stan4math8internal13less_or_equalIyxLb0EE5checkEPKcS5_RKyRKx"
 "_ZN4stan4math8internal13less_or_equalIyyLb0EE5checkEPKcS5_RKyS7_"
 "_ZN4stan4math8internal14divide_dv_vari5chainEv"
 "_ZN4stan4math8internal14divide_dv_variC1EdPNS0_4variE"
 "_ZN4stan4math8internal16greater_or_equalIddLb0EE5checkEPKcS5_RKdS7_"
 "_ZN4stan4math8internal16greater_or_equalIiiLb0EE5checkEPKcS5_RKiS7_"
 "_ZN4stan4math8internal16multiply_vv_vari5chainEv"
 "_ZN4stan4math8internal16multiply_vv_variC1EPNS0_4variES4_"
 "_ZN4stan4math8internal16subtract_vd_vari5chainEv"
 "_ZN4stan4math8internal16subtract_vd_variC1EPNS0_4variEd"
 "_ZN4stan4math8internal16subtract_vv_vari5chainEv"
 "_ZN4stan4math8internal16subtract_vv_variC1EPNS0_4variES4_"
 "_ZN4stan4math8internal25eight_byte_aligned_mallocEy"
 "_ZN4stan4math8internal6finiteIN5Eigen6MatrixIdLin1ELi1ELi0ELin1ELi1EEELb1EE5checkEPKcS8_RKS5_"
 "_ZN4stan4math8internal6finiteIdLb0EE5checkEPKcS5_RKd"
 "_ZN4stan4math8internal6finiteIiLb0EE5checkEPKcS5_RKi"
 "_ZN4stan4math8internal7not_nanIN5Eigen6MatrixINS0_3varELin1ELi1ELi0ELin1ELi1EEELb1EE5checkEPKcS9_RKS6_"
 "_ZN4stan4math8internal7not_nanIN5Eigen6MatrixIdLi1ELin1ELi1ELi1ELin1EEELb1EE5checkEPKcS8_RKS5_"
 "_ZN4stan4math8internal7not_nanIN5Eigen6MatrixIdLin1ELi1ELi0ELin1ELi1EEELb1EE5checkEPKcS8_RKS5_"
 "_ZN4stan4math8internal7not_nanIN5Eigen6MatrixIdLin1ELin1ELi0ELin1ELin1EEELb1EE5checkEPKcS8_RKS5_"
 "_ZN4stan4math8internal8exp_vari5chainEv"
 "_ZN4stan4math8internal8exp_variC1EPNS0_4variE"
 "_ZN4stan4math8internal8log_vari5chainEv"
 "_ZN4stan4math8internal8log_variC1EPNS0_4variE"
 "_ZN4stan4math8multiplyILi1ELin1EddvEEN5Eigen6MatrixINS_11return_typeIT1_JT2_EE4typeEXT_EXT0_EXorLNS2_14StorageOptionsE0EquaaeqT_Li1EneT0_Li1ELS9_1EquaaeqT0_Li1EneT_Li1ELS9_0ELS9_0EEXT_EXT0_EEES5_RKNS3_IS6_XT_EXT0_EXorLS9_0EquaaeqT_Li1EneT0_Li1ELS9_1EquaaeqT0_Li1EneT_Li1ELS9_0ELS9_0EEXT_EXT0_EEE"
 "_ZN4stan4math8multiplyILin1ELin1ELin1ELi1EddvEEN5Eigen6MatrixINS_11return_typeIT3_JT4_EE4typeEXT_EXT2_EXorLNS2_14StorageOptionsE0EquaaeqT_Li1EneT2_Li1ELS9_1EquaaeqT2_Li1EneT_Li1ELS9_0ELS9_0EEXT_EXT2_EEERKNS3_IS5_XT_EXT0_EXorLS9_0EquaaeqT_Li1EneT0_Li1ELS9_1EquaaeqT0_Li1EneT_Li1ELS9_0ELS9_0EEXT_EXT0_EEERKNS3_IS6_XT1_EXT2_EXorLS9_0EquaaeqT1_Li1EneT2_Li1ELS9_1EquaaeqT2_Li1EneT1_Li1ELS9_0ELS9_0EEXT1_EXT2_EEE"
 "_ZN4stan4math8multiplyILin1ELin1EddvEEN5Eigen6MatrixINS_11return_typeIT1_JT2_EE4typeEXT_EXT0_EXorLNS2_14StorageOptionsE0EquaaeqT_Li1EneT0_Li1ELS9_1EquaaeqT0_Li1EneT_Li1ELS9_0ELS9_0EEXT_EXT0_EEES5_RKNS3_IS6_XT_EXT0_EXorLS9_0EquaaeqT_Li1EneT0_Li1ELS9_1EquaaeqT0_Li1EneT_Li1ELS9_0ELS9_0EEXT_EXT0_EEE"
 "_ZN4stan4math8multiplyILin1ELin1EddvEENS_11return_typeIT1_JT2_EE4typeERKN5Eigen6MatrixIS3_Li1EXT_EXorLNS7_14StorageOptionsE0EquaaeqLi1ELi1EneT_Li1ELS9_1EquaaeqT_Li1EneLi1ELi1ELS9_0ELS9_0EELi1EXT_EEERKNS8_IS4_XT0_ELi1EXorLS9_0EquaaeqT0_Li1EneLi1ELi1ELS9_1EquaaeqLi1ELi1EneT0_Li1ELS9_0ELS9_0EEXT0_ELi1EEE"
 "_ZN4stan4math8multiplyIdLin1ELin1ENS0_3varELi1EvEEN5Eigen6MatrixIS2_XT0_EXT3_EXorLNS3_14StorageOptionsE0EquaaeqT0_Li1EneT3_Li1ELS5_1EquaaeqT3_Li1EneT0_Li1ELS5_0ELS5_0EEXT0_EXT3_EEERKNS4_IT_XT0_EXT1_EXorLS5_0EquaaeqT0_Li1EneT1_Li1ELS5_1EquaaeqT1_Li1EneT0_Li1ELS5_0ELS5_0EEXT0_EXT1_EEERKNS4_IT2_XT1_EXT3_EXorLS5_0EquaaeqT1_Li1EneT3_Li1ELS5_1EquaaeqT3_Li1EneT1_Li1ELS5_0ELS5_0EEXT1_EXT3_EEE"
 "_ZN4stan4math8multiplyIdLin1ENS0_3varEvEES2_RKN5Eigen6MatrixIT_Li1EXT0_EXorLNS3_14StorageOptionsE0EquaaeqLi1ELi1EneT0_Li1ELS6_1EquaaeqT0_Li1EneLi1ELi1ELS6_0ELS6_0EELi1EXT0_EEERKNS4_IT1_XT0_ELi1EXorLS6_0EquaaeqT0_Li1EneLi1ELi1ELS6_1EquaaeqLi1ELi1EneT0_Li1ELS6_0ELS6_0EEXT0_ELi1EEE"
 "_ZN4stan4math8subtractINS0_3varEdLin1ELi1EEEN5Eigen6MatrixINS_11return_typeIT_JT0_EE4typeEXT1_EXT2_EXorLNS3_14StorageOptionsE0EquaaeqT1_Li1EneT2_Li1ELSA_1EquaaeqT2_Li1EneT1_Li1ELSA_0ELSA_0EEXT1_EXT2_EEERKNS4_IS6_XT1_EXT2_EXorLSA_0EquaaeqT1_Li1EneT2_Li1ELSA_1EquaaeqT2_Li1EneT1_Li1ELSA_0ELSA_0EEXT1_EXT2_EEERKNS4_IS7_XT1_EXT2_EXorLSA_0EquaaeqT1_Li1EneT2_Li1ELSA_1EquaaeqT2_Li1EneT1_Li1ELSA_0ELSA_0EEXT1_EXT2_EEE"
 "_ZN4stan4math8subtractIddLin1ELi1EEEN5Eigen6MatrixINS_11return_typeIT_JT0_EE4typeEXT1_EXT2_EXorLNS2_14StorageOptionsE0EquaaeqT1_Li1EneT2_Li1ELS9_1EquaaeqT2_Li1EneT1_Li1ELS9_0ELS9_0EEXT1_EXT2_EEERKNS3_IS5_XT1_EXT2_EXorLS9_0EquaaeqT1_Li1EneT2_Li1ELS9_1EquaaeqT2_Li1EneT1_Li1ELS9_0ELS9_0EEXT1_EXT2_EEERKNS3_IS6_XT1_EXT2_EXorLS9_0EquaaeqT1_Li1EneT2_Li1ELS9_1EquaaeqT2_Li1EneT1_Li1ELS9_0ELS9_0EEXT1_EXT2_EEE"
 "_ZN4stan4math8subtractIiNS0_3varELin1ELi1EEEN5Eigen6MatrixINS_11return_typeIT_JT0_EE4typeEXT1_EXT2_EXorLNS3_14StorageOptionsE0EquaaeqT1_Li1EneT2_Li1ELSA_1EquaaeqT2_Li1EneT1_Li1ELSA_0ELSA_0EEXT1_EXT2_EEERKS6_RKNS4_IS7_XT1_EXT2_EXorLSA_0EquaaeqT1_Li1EneT2_Li1ELSA_1EquaaeqT2_Li1EneT1_Li1ELSA_0ELSA_0EEXT1_EXT2_EEE"
 "_ZN4stan4math8subtractIidLin1ELi1EEEN5Eigen6MatrixINS_11return_typeIT_JT0_EE4typeEXT1_EXT2_EXorLNS2_14StorageOptionsE0EquaaeqT1_Li1EneT2_Li1ELS9_1EquaaeqT2_Li1EneT1_Li1ELS9_0ELS9_0EEXT1_EXT2_EEERKS5_RKNS3_IS6_XT1_EXT2_EXorLS9_0EquaaeqT1_Li1EneT2_Li1ELS9_1EquaaeqT2_Li1EneT1_Li1ELS9_0ELS9_0EEXT1_EXT2_EEE"
 "_ZN4stan4math8value_ofILin1ELi1EEERKN5Eigen6MatrixIdXT_EXT0_EXorLNS2_14StorageOptionsE0EquaaeqT_Li1EneT0_Li1ELS4_1EquaaeqT0_Li1EneT_Li1ELS4_0ELS4_0EEXT_EXT0_EEES7_"
 "_ZN4stan4math8value_ofIdEEdT_"
 "_ZN4stan4math9get_base1IN5Eigen6MatrixINS0_3varELin1ELi1ELi0ELin1ELi1EEEEERKT_RKSt6vectorIS6_SaIS6_EEyPKcy"
 "_ZN4stan4math9get_base1IN5Eigen6MatrixIdLi1ELin1ELi1ELi1ELin1EEEEERKT_RKSt6vectorIS5_SaIS5_EEyPKcy"
 "_ZN4stan4math9get_base1IN5Eigen6MatrixIdLin1ELi1ELi0ELin1ELi1EEEEERKT_RKSt6vectorIS5_SaIS5_EEyPKcy"
 "_ZN4stan4math9get_base1IN5Eigen6MatrixIdLin1ELin1ELi0ELin1ELin1EEEEERKT_RKSt6vectorIS5_SaIS5_EEyPKcy"
 "_ZN4stan4math9get_base1INS0_3varEEERKT_RKN5Eigen6MatrixIS3_Lin1ELi1ELi0ELin1ELi1EEEyPKcy"
 "_ZN4stan4math9get_base1IdEERKT_RKN5Eigen6MatrixIS2_Lin1ELi1ELi0ELin1ELi1EEEyPKcy"
 "_ZN4stan4math9get_base1IiEERKT_RKSt6vectorIS2_SaIS2_EEyPKcy"
 "_ZN4stan4math9log1p_expEd"
 "_ZN4stan4math9op_v_variC2EdPNS0_4variE"
 "_ZN4stan4math9op_v_variD0Ev"
 "_ZN4stan4math9op_v_variD1Ev"
 "_ZN4stan4math9op_v_variD2Ev"
 "_ZN4stan4math9to_matrixIdEEN5Eigen6MatrixIT_Lin1ELin1ELi0ELin1ELin1EEERKSt6vectorIS4_SaIS4_EEii"
 "_ZN4stan4mathdvEdRKNS0_3varE"
 "_ZN4stan4mathlsERSoRKNS0_3varE"
 "_ZN4stan4mathmiERKNS0_3varES3_"
 "_ZN4stan4mathmiERKNS0_3varEd"
 "_ZN4stan4mathmlERKNS0_3varES3_"
 "_ZN4stan4mathplERKNS0_3varES3_"
 "_ZN4stan4mathplEdRKNS0_3varE"
 "_ZN4stan4mcmc11diag_e_nutsIN18model_ef_namespace8model_efEN5boost6random23additive_combine_engineINS5_26linear_congruential_engineIjLj40014ELj0ELj2147483563EEENS7_IjLj40692ELj0ELj2147483399EEEEEEC1ERKS3_RSA_"
 "_ZN4stan4mcmc11diag_e_nutsIN18model_ef_namespace8model_efEN5boost6random23additive_combine_engineINS5_26linear_congruential_engineIjLj40014ELj0ELj2147483563EEENS7_IjLj40692ELj0ELj2147483399EEEEEEC2ERKS3_RSA_"
 "_ZN4stan4mcmc11diag_e_nutsIN18model_ef_namespace8model_efEN5boost6random23additive_combine_engineINS5_26linear_congruential_engineIjLj40014ELj0ELj2147483563EEENS7_IjLj40692ELj0ELj2147483399EEEEEED0Ev"
 "_ZN4stan4mcmc11diag_e_nutsIN18model_ef_namespace8model_efEN5boost6random23additive_combine_engineINS5_26linear_congruential_engineIjLj40014ELj0ELj2147483563EEENS7_IjLj40692ELj0ELj2147483399EEEEEED1Ev"
 "_ZN4stan4mcmc11diag_e_nutsIN18model_ef_namespace8model_efEN5boost6random23additive_combine_engineINS5_26linear_congruential_engineIjLj40014ELj0ELj2147483563EEENS7_IjLj40692ELj0ELj2147483399EEEEEED2Ev"
 "_ZN4stan4mcmc11unit_e_nutsIN18model_ef_namespace8model_efEN5boost6random23additive_combine_engineINS5_26linear_congruential_engineIjLj40014ELj0ELj2147483563EEENS7_IjLj40692ELj0ELj2147483399EEEEEEC1ERKS3_RSA_"
 "_ZN4stan4mcmc11unit_e_nutsIN18model_ef_namespace8model_efEN5boost6random23additive_combine_engineINS5_26linear_congruential_engineIjLj40014ELj0ELj2147483563EEENS7_IjLj40692ELj0ELj2147483399EEEEEEC2ERKS3_RSA_"
 "_ZN4stan4mcmc11unit_e_nutsIN18model_ef_namespace8model_efEN5boost6random23additive_combine_engineINS5_26linear_congruential_engineIjLj40014ELj0ELj2147483563EEENS7_IjLj40692ELj0ELj2147483399EEEEEED0Ev"
 "_ZN4stan4mcmc11unit_e_nutsIN18model_ef_namespace8model_efEN5boost6random23additive_combine_engineINS5_26linear_congruential_engineIjLj40014ELj0ELj2147483563EEENS7_IjLj40692ELj0ELj2147483399EEEEEED1Ev"
 "_ZN4stan4mcmc11unit_e_nutsIN18model_ef_namespace8model_efEN5boost6random23additive_combine_engineINS5_26linear_congruential_engineIjLj40014ELj0ELj2147483563EEENS7_IjLj40692ELj0ELj2147483399EEEEEED2Ev"
 "_ZN4stan4mcmc12base_adapter17engage_adaptationEv"
 "_ZN4stan4mcmc12base_adapter20disengage_adaptationEv"
 "_ZN4stan4mcmc12base_adapterC2Ev"
 "_ZN4stan4mcmc12dense_e_nutsIN18model_ef_namespace8model_efEN5boost6random23additive_combine_engineINS5_26linear_congruential_engineIjLj40014ELj0ELj2147483563EEENS7_IjLj40692ELj0ELj2147483399EEEEEEC1ERKS3_RSA_"
 "_ZN4stan4mcmc12dense_e_nutsIN18model_ef_namespace8model_efEN5boost6random23additive_combine_engineINS5_26linear_congruential_engineIjLj40014ELj0ELj2147483563EEENS7_IjLj40692ELj0ELj2147483399EEEEEEC2ERKS3_RSA_"
 "_ZN4stan4mcmc12dense_e_nutsIN18model_ef_namespace8model_efEN5boost6random23additive_combine_engineINS5_26linear_congruential_engineIjLj40014ELj0ELj2147483563EEENS7_IjLj40692ELj0ELj2147483399EEEEEED0Ev"
 "_ZN4stan4mcmc12dense_e_nutsIN18model_ef_namespace8model_efEN5boost6random23additive_combine_engineINS5_26linear_congruential_engineIjLj40014ELj0ELj2147483563EEENS7_IjLj40692ELj0ELj2147483399EEEEEED1Ev"
 "_ZN4stan4mcmc12dense_e_nutsIN18model_ef_namespace8model_efEN5boost6random23additive_combine_engineINS5_26linear_congruential_engineIjLj40014ELj0ELj2147483563EEENS7_IjLj40692ELj0ELj2147483399EEEEEED2Ev"
 "_ZN4stan4mcmc12diag_e_point10set_metricERKN5Eigen6MatrixIdLin1ELi1ELi0ELin1ELi1EEE"
 "_ZN4stan4mcmc12diag_e_point12write_metricERNS_9callbacks6writerE"
 "_ZN4stan4mcmc12diag_e_pointC1Ei"
 "_ZN4stan4mcmc12diag_e_pointD1Ev"
 "_ZN4stan4mcmc12unit_e_pointC1Ei"
 "_ZN4stan4mcmc12unit_e_pointD1Ev"
 "_ZN4stan4mcmc13base_leapfrogINS0_13diag_e_metricIN18model_ef_namespace8model_efEN5boost6random23additive_combine_engineINS6_26linear_congruential_engineIjLj40014ELj0ELj2147483563EEENS8_IjLj40692ELj0ELj2147483399EEEEEEEE6evolveERNS0_12diag_e_pointERSC_dRNS_9callbacks6loggerE"
 "_ZN4stan4mcmc13base_leapfrogINS0_13diag_e_metricIN18model_ef_namespace8model_efEN5boost6random23additive_combine_engineINS6_26linear_congruential_engineIjLj40014ELj0ELj2147483563EEENS8_IjLj40692ELj0ELj2147483399EEEEEEEEC2Ev"
 "_ZN4stan4mcmc13base_leapfrogINS0_13unit_e_metricIN18model_ef_namespace8model_efEN5boost6random23additive_combine_engineINS6_26linear_congruential_engineIjLj40014ELj0ELj2147483563EEENS8_IjLj40692ELj0ELj2147483399EEEEEEEE6evolveERNS0_12unit_e_pointERSC_dRNS_9callbacks6loggerE"
 "_ZN4stan4mcmc13base_leapfrogINS0_13unit_e_metricIN18model_ef_namespace8model_efEN5boost6random23additive_combine_engineINS6_26linear_congruential_engineIjLj40014ELj0ELj2147483563EEENS8_IjLj40692ELj0ELj2147483399EEEEEEEEC2Ev"
 "_ZN4stan4mcmc13base_leapfrogINS0_14dense_e_metricIN18model_ef_namespace8model_efEN5boost6random23additive_combine_engineINS6_26linear_congruential_engineIjLj40014ELj0ELj2147483563EEENS8_IjLj40692ELj0ELj2147483399EEEEEEEE6evolveERNS0_13dense_e_pointERSC_dRNS_9callbacks6loggerE"
 "_ZN4stan4mcmc13base_leapfrogINS0_14dense_e_metricIN18model_ef_namespace8model_efEN5boost6random23additive_combine_engineINS6_26linear_congruential_engineIjLj40014ELj0ELj2147483563EEENS8_IjLj40692ELj0ELj2147483399EEEEEEEEC2Ev"
 "_ZN4stan4mcmc13dense_e_point10set_metricERKN5Eigen6MatrixIdLin1ELin1ELi0ELin1ELin1EEE"
 "_ZN4stan4mcmc13dense_e_point12write_metricERNS_9callbacks6writerE"
 "_ZN4stan4mcmc13dense_e_pointC1Ei"
 "_ZN4stan4mcmc13dense_e_pointD1Ev"
 "_ZN4stan4mcmc13diag_e_metricIN18model_ef_namespace8model_efEN5boost6random23additive_combine_engineINS5_26linear_congruential_engineIjLj40014ELj0ELj2147483563EEENS7_IjLj40692ELj0ELj2147483399EEEEEE8sample_pERNS0_12diag_e_pointERSA_"
 "_ZN4stan4mcmc13diag_e_metricIN18model_ef_namespace8model_efEN5boost6random23additive_combine_engineINS5_26linear_congruential_engineIjLj40014ELj0ELj2147483563EEENS7_IjLj40692ELj0ELj2147483399EEEEEEC1ERKS3_"
 "_ZN4stan4mcmc13diag_e_metricIN18model_ef_namespace8model_efEN5boost6random23additive_combine_engineINS5_26linear_congruential_engineIjLj40014ELj0ELj2147483563EEENS7_IjLj40692ELj0ELj2147483399EEEEEED1Ev"
 "_ZN4stan4mcmc13expl_leapfrogINS0_13diag_e_metricIN18model_ef_namespace8model_efEN5boost6random23additive_combine_engineINS6_26linear_congruential_engineIjLj40014ELj0ELj2147483563EEENS8_IjLj40692ELj0ELj2147483399EEEEEEEEC1Ev"
 "_ZN4stan4mcmc13expl_leapfrogINS0_13unit_e_metricIN18model_ef_namespace8model_efEN5boost6random23additive_combine_engineINS6_26linear_congruential_engineIjLj40014ELj0ELj2147483563EEENS8_IjLj40692ELj0ELj2147483399EEEEEEEEC1Ev"
 "_ZN4stan4mcmc13expl_leapfrogINS0_14dense_e_metricIN18model_ef_namespace8model_efEN5boost6random23additive_combine_engineINS6_26linear_congruential_engineIjLj40014ELj0ELj2147483563EEENS8_IjLj40692ELj0ELj2147483399EEEEEEEEC1Ev"
 "_ZN4stan4mcmc13unit_e_metricIN18model_ef_namespace8model_efEN5boost6random23additive_combine_engineINS5_26linear_congruential_engineIjLj40014ELj0ELj2147483563EEENS7_IjLj40692ELj0ELj2147483399EEEEEE8sample_pERNS0_12unit_e_pointERSA_"
 "_ZN4stan4mcmc13unit_e_metricIN18model_ef_namespace8model_efEN5boost6random23additive_combine_engineINS5_26linear_congruential_engineIjLj40014ELj0ELj2147483563EEENS7_IjLj40692ELj0ELj2147483399EEEEEEC1ERKS3_"
 "_ZN4stan4mcmc13unit_e_metricIN18model_ef_namespace8model_efEN5boost6random23additive_combine_engineINS5_26linear_congruential_engineIjLj40014ELj0ELj2147483563EEENS7_IjLj40692ELj0ELj2147483399EEEEEED1Ev"
 "_ZN4stan4mcmc14dense_e_metricIN18model_ef_namespace8model_efEN5boost6random23additive_combine_engineINS5_26linear_congruential_engineIjLj40014ELj0ELj2147483563EEENS7_IjLj40692ELj0ELj2147483399EEEEEE8sample_pERNS0_13dense_e_pointERSA_"
 "_ZN4stan4mcmc14dense_e_metricIN18model_ef_namespace8model_efEN5boost6random23additive_combine_engineINS5_26linear_congruential_engineIjLj40014ELj0ELj2147483563EEENS7_IjLj40692ELj0ELj2147483399EEEEEEC1ERKS3_"
 "_ZN4stan4mcmc14dense_e_metricIN18model_ef_namespace8model_efEN5boost6random23additive_combine_engineINS5_26linear_congruential_engineIjLj40014ELj0ELj2147483563EEENS7_IjLj40692ELj0ELj2147483399EEEEEED1Ev"
 "_ZN4stan4mcmc14var_adaptation14learn_varianceERN5Eigen6MatrixIdLin1ELi1ELi0ELin1ELi1EEERKS4_"
 "_ZN4stan4mcmc14var_adaptationC1Ei"
 "_ZN4stan4mcmc14var_adaptationD1Ev"
 "_ZN4stan4mcmc15base_adaptation7restartEv"
 "_ZN4stan4mcmc15base_adaptationC2Ev"
 "_ZN4stan4mcmc15base_integratorINS0_13diag_e_metricIN18model_ef_namespace8model_efEN5boost6random23additive_combine_engineINS6_26linear_congruential_engineIjLj40014ELj0ELj2147483563EEENS8_IjLj40692ELj0ELj2147483399EEEEEEEEC2Ev"
 "_ZN4stan4mcmc15base_integratorINS0_13unit_e_metricIN18model_ef_namespace8model_efEN5boost6random23additive_combine_engineINS6_26linear_congruential_engineIjLj40014ELj0ELj2147483563EEENS8_IjLj40692ELj0ELj2147483399EEEEEEEEC2Ev"
 "_ZN4stan4mcmc15base_integratorINS0_14dense_e_metricIN18model_ef_namespace8model_efEN5boost6random23additive_combine_engineINS6_26linear_congruential_engineIjLj40014ELj0ELj2147483563EEENS8_IjLj40692ELj0ELj2147483399EEEEEEEEC2Ev"
 "_ZN4stan4mcmc15base_static_hmcIN18model_ef_namespace8model_efENS0_13diag_e_metricENS0_13expl_leapfrogEN5boost6random23additive_combine_engineINS7_26linear_congruential_engineIjLj40014ELj0ELj2147483563EEENS9_IjLj40692ELj0ELj2147483399EEEEEE10set_metricERKN5Eigen6MatrixIdLin1ELi1ELi0ELin1ELi1EEE"
 "_ZN4stan4mcmc15base_static_hmcIN18model_ef_namespace8model_efENS0_13diag_e_metricENS0_13expl_leapfrogEN5boost6random23additive_combine_engineINS7_26linear_congruential_engineIjLj40014ELj0ELj2147483563EEENS9_IjLj40692ELj0ELj2147483399EEEEEE26set_nominal_stepsize_and_TEdd"
 "_ZN4stan4mcmc15base_static_hmcIN18model_ef_namespace8model_efENS0_13diag_e_metricENS0_13expl_leapfrogEN5boost6random23additive_combine_engineINS7_26linear_congruential_engineIjLj40014ELj0ELj2147483563EEENS9_IjLj40692ELj0ELj2147483399EEEEEE9update_L_Ev"
 "_ZN4stan4mcmc15base_static_hmcIN18model_ef_namespace8model_efENS0_13diag_e_metricENS0_13expl_leapfrogEN5boost6random23additive_combine_engineINS7_26linear_congruential_engineIjLj40014ELj0ELj2147483563EEENS9_IjLj40692ELj0ELj2147483399EEEEEEC2ERKS3_RSC_"
 "_ZN4stan4mcmc15base_static_hmcIN18model_ef_namespace8model_efENS0_13diag_e_metricENS0_13expl_leapfrogEN5boost6random23additive_combine_engineINS7_26linear_congruential_engineIjLj40014ELj0ELj2147483563EEENS9_IjLj40692ELj0ELj2147483399EEEEEED0Ev"
 "_ZN4stan4mcmc15base_static_hmcIN18model_ef_namespace8model_efENS0_13diag_e_metricENS0_13expl_leapfrogEN5boost6random23additive_combine_engineINS7_26linear_congruential_engineIjLj40014ELj0ELj2147483563EEENS9_IjLj40692ELj0ELj2147483399EEEEEED1Ev"
 "_ZN4stan4mcmc15base_static_hmcIN18model_ef_namespace8model_efENS0_13diag_e_metricENS0_13expl_leapfrogEN5boost6random23additive_combine_engineINS7_26linear_congruential_engineIjLj40014ELj0ELj2147483563EEENS9_IjLj40692ELj0ELj2147483399EEEEEED2Ev"
 "_ZN4stan4mcmc15base_static_hmcIN18model_ef_namespace8model_efENS0_13unit_e_metricENS0_13expl_leapfrogEN5boost6random23additive_combine_engineINS7_26linear_congruential_engineIjLj40014ELj0ELj2147483563EEENS9_IjLj40692ELj0ELj2147483399EEEEEE26set_nominal_stepsize_and_TEdd"
 "_ZN4stan4mcmc15base_static_hmcIN18model_ef_namespace8model_efENS0_13unit_e_metricENS0_13expl_leapfrogEN5boost6random23additive_combine_engineINS7_26linear_congruential_engineIjLj40014ELj0ELj2147483563EEENS9_IjLj40692ELj0ELj2147483399EEEEEE9update_L_Ev"
 "_ZN4stan4mcmc15base_static_hmcIN18model_ef_namespace8model_efENS0_13unit_e_metricENS0_13expl_leapfrogEN5boost6random23additive_combine_engineINS7_26linear_congruential_engineIjLj40014ELj0ELj2147483563EEENS9_IjLj40692ELj0ELj2147483399EEEEEEC2ERKS3_RSC_"
 "_ZN4stan4mcmc15base_static_hmcIN18model_ef_namespace8model_efENS0_13unit_e_metricENS0_13expl_leapfrogEN5boost6random23additive_combine_engineINS7_26linear_congruential_engineIjLj40014ELj0ELj2147483563EEENS9_IjLj40692ELj0ELj2147483399EEEEEED0Ev"
 "_ZN4stan4mcmc15base_static_hmcIN18model_ef_namespace8model_efENS0_13unit_e_metricENS0_13expl_leapfrogEN5boost6random23additive_combine_engineINS7_26linear_congruential_engineIjLj40014ELj0ELj2147483563EEENS9_IjLj40692ELj0ELj2147483399EEEEEED1Ev"
 "_ZN4stan4mcmc15base_static_hmcIN18model_ef_namespace8model_efENS0_13unit_e_metricENS0_13expl_leapfrogEN5boost6random23additive_combine_engineINS7_26linear_congruential_engineIjLj40014ELj0ELj2147483563EEENS9_IjLj40692ELj0ELj2147483399EEEEEED2Ev"
 "_ZN4stan4mcmc15base_static_hmcIN18model_ef_namespace8model_efENS0_14dense_e_metricENS0_13expl_leapfrogEN5boost6random23additive_combine_engineINS7_26linear_congruential_engineIjLj40014ELj0ELj2147483563EEENS9_IjLj40692ELj0ELj2147483399EEEEEE10set_metricERKN5Eigen6MatrixIdLin1ELin1ELi0ELin1ELin1EEE"
 "_ZN4stan4mcmc15base_static_hmcIN18model_ef_namespace8model_efENS0_14dense_e_metricENS0_13expl_leapfrogEN5boost6random23additive_combine_engineINS7_26linear_congruential_engineIjLj40014ELj0ELj2147483563EEENS9_IjLj40692ELj0ELj2147483399EEEEEE26set_nominal_stepsize_and_TEdd"
 "_ZN4stan4mcmc15base_static_hmcIN18model_ef_namespace8model_efENS0_14dense_e_metricENS0_13expl_leapfrogEN5boost6random23additive_combine_engineINS7_26linear_congruential_engineIjLj40014ELj0ELj2147483563EEENS9_IjLj40692ELj0ELj2147483399EEEEEE9update_L_Ev"
 "_ZN4stan4mcmc15base_static_hmcIN18model_ef_namespace8model_efENS0_14dense_e_metricENS0_13expl_leapfrogEN5boost6random23additive_combine_engineINS7_26linear_congruential_engineIjLj40014ELj0ELj2147483563EEENS9_IjLj40692ELj0ELj2147483399EEEEEEC2ERKS3_RSC_"
 "_ZN4stan4mcmc15base_static_hmcIN18model_ef_namespace8model_efENS0_14dense_e_metricENS0_13expl_leapfrogEN5boost6random23additive_combine_engineINS7_26linear_congruential_engineIjLj40014ELj0ELj2147483563EEENS9_IjLj40692ELj0ELj2147483399EEEEEED0Ev"
 "_ZN4stan4mcmc15base_static_hmcIN18model_ef_namespace8model_efENS0_14dense_e_metricENS0_13expl_leapfrogEN5boost6random23additive_combine_engineINS7_26linear_congruential_engineIjLj40014ELj0ELj2147483563EEENS9_IjLj40692ELj0ELj2147483399EEEEEED1Ev"
 "_ZN4stan4mcmc15base_static_hmcIN18model_ef_namespace8model_efENS0_14dense_e_metricENS0_13expl_leapfrogEN5boost6random23additive_combine_engineINS7_26linear_congruential_engineIjLj40014ELj0ELj2147483563EEENS9_IjLj40692ELj0ELj2147483399EEEEEED2Ev"
 "_ZN4stan4mcmc16base_hamiltonianIN18model_ef_namespace8model_efENS0_12diag_e_pointEN5boost6random23additive_combine_engineINS6_26linear_congruential_engineIjLj40014ELj0ELj2147483563EEENS8_IjLj40692ELj0ELj2147483399EEEEEE16write_error_msg_ERKSt9exceptionRNS_9callbacks6loggerE"
 "_ZN4stan4mcmc16base_hamiltonianIN18model_ef_namespace8model_efENS0_12diag_e_pointEN5boost6random23additive_combine_engineINS6_26linear_congruential_engineIjLj40014ELj0ELj2147483563EEENS8_IjLj40692ELj0ELj2147483399EEEEEE1HERS4_"
 "_ZN4stan4mcmc16base_hamiltonianIN18model_ef_namespace8model_efENS0_12diag_e_pointEN5boost6random23additive_combine_engineINS6_26linear_congruential_engineIjLj40014ELj0ELj2147483563EEENS8_IjLj40692ELj0ELj2147483399EEEEEE1VERS4_"
 "_ZN4stan4mcmc16base_hamiltonianIN18model_ef_namespace8model_efENS0_12diag_e_pointEN5boost6random23additive_combine_engineINS6_26linear_congruential_engineIjLj40014ELj0ELj2147483563EEENS8_IjLj40692ELj0ELj2147483399EEEEEE25update_potential_gradientERS4_RNS_9callbacks6loggerE"
 "_ZN4stan4mcmc16base_hamiltonianIN18model_ef_namespace8model_efENS0_12diag_e_pointEN5boost6random23additive_combine_engineINS6_26linear_congruential_engineIjLj40014ELj0ELj2147483563EEENS8_IjLj40692ELj0ELj2147483399EEEEEE4initERS4_RNS_9callbacks6loggerE"
 "_ZN4stan4mcmc16base_hamiltonianIN18model_ef_namespace8model_efENS0_12diag_e_pointEN5boost6random23additive_combine_engineINS6_26linear_congruential_engineIjLj40014ELj0ELj2147483563EEENS8_IjLj40692ELj0ELj2147483399EEEEEEC2ERKS3_"
 "_ZN4stan4mcmc16base_hamiltonianIN18model_ef_namespace8model_efENS0_12diag_e_pointEN5boost6random23additive_combine_engineINS6_26linear_congruential_engineIjLj40014ELj0ELj2147483563EEENS8_IjLj40692ELj0ELj2147483399EEEEEED2Ev"
 "_ZN4stan4mcmc16base_hamiltonianIN18model_ef_namespace8model_efENS0_12unit_e_pointEN5boost6random23additive_combine_engineINS6_26linear_congruential_engineIjLj40014ELj0ELj2147483563EEENS8_IjLj40692ELj0ELj2147483399EEEEEE16write_error_msg_ERKSt9exceptionRNS_9callbacks6loggerE"
 "_ZN4stan4mcmc16base_hamiltonianIN18model_ef_namespace8model_efENS0_12unit_e_pointEN5boost6random23additive_combine_engineINS6_26linear_congruential_engineIjLj40014ELj0ELj2147483563EEENS8_IjLj40692ELj0ELj2147483399EEEEEE1HERS4_"
 "_ZN4stan4mcmc16base_hamiltonianIN18model_ef_namespace8model_efENS0_12unit_e_pointEN5boost6random23additive_combine_engineINS6_26linear_congruential_engineIjLj40014ELj0ELj2147483563EEENS8_IjLj40692ELj0ELj2147483399EEEEEE1VERS4_"
 "_ZN4stan4mcmc16base_hamiltonianIN18model_ef_namespace8model_efENS0_12unit_e_pointEN5boost6random23additive_combine_engineINS6_26linear_congruential_engineIjLj40014ELj0ELj2147483563EEENS8_IjLj40692ELj0ELj2147483399EEEEEE25update_potential_gradientERS4_RNS_9callbacks6loggerE"
 "_ZN4stan4mcmc16base_hamiltonianIN18model_ef_namespace8model_efENS0_12unit_e_pointEN5boost6random23additive_combine_engineINS6_26linear_congruential_engineIjLj40014ELj0ELj2147483563EEENS8_IjLj40692ELj0ELj2147483399EEEEEE4initERS4_RNS_9callbacks6loggerE"
 "_ZN4stan4mcmc16base_hamiltonianIN18model_ef_namespace8model_efENS0_12unit_e_pointEN5boost6random23additive_combine_engineINS6_26linear_congruential_engineIjLj40014ELj0ELj2147483563EEENS8_IjLj40692ELj0ELj2147483399EEEEEEC2ERKS3_"
 "_ZN4stan4mcmc16base_hamiltonianIN18model_ef_namespace8model_efENS0_12unit_e_pointEN5boost6random23additive_combine_engineINS6_26linear_congruential_engineIjLj40014ELj0ELj2147483563EEENS8_IjLj40692ELj0ELj2147483399EEEEEED2Ev"
 "_ZN4stan4mcmc16base_hamiltonianIN18model_ef_namespace8model_efENS0_13dense_e_pointEN5boost6random23additive_combine_engineINS6_26linear_congruential_engineIjLj40014ELj0ELj2147483563EEENS8_IjLj40692ELj0ELj2147483399EEEEEE16write_error_msg_ERKSt9exceptionRNS_9callbacks6loggerE"
 "_ZN4stan4mcmc16base_hamiltonianIN18model_ef_namespace8model_efENS0_13dense_e_pointEN5boost6random23additive_combine_engineINS6_26linear_congruential_engineIjLj40014ELj0ELj2147483563EEENS8_IjLj40692ELj0ELj2147483399EEEEEE1HERS4_"
 "_ZN4stan4mcmc16base_hamiltonianIN18model_ef_namespace8model_efENS0_13dense_e_pointEN5boost6random23additive_combine_engineINS6_26linear_congruential_engineIjLj40014ELj0ELj2147483563EEENS8_IjLj40692ELj0ELj2147483399EEEEEE1VERS4_"
 "_ZN4stan4mcmc16base_hamiltonianIN18model_ef_namespace8model_efENS0_13dense_e_pointEN5boost6random23additive_combine_engineINS6_26linear_congruential_engineIjLj40014ELj0ELj2147483563EEENS8_IjLj40692ELj0ELj2147483399EEEEEE25update_potential_gradientERS4_RNS_9callbacks6loggerE"
 "_ZN4stan4mcmc16base_hamiltonianIN18model_ef_namespace8model_efENS0_13dense_e_pointEN5boost6random23additive_combine_engineINS6_26linear_congruential_engineIjLj40014ELj0ELj2147483563EEENS8_IjLj40692ELj0ELj2147483399EEEEEE4initERS4_RNS_9callbacks6loggerE"
 "_ZN4stan4mcmc16base_hamiltonianIN18model_ef_namespace8model_efENS0_13dense_e_pointEN5boost6random23additive_combine_engineINS6_26linear_congruential_engineIjLj40014ELj0ELj2147483563EEENS8_IjLj40692ELj0ELj2147483399EEEEEEC2ERKS3_"
 "_ZN4stan4mcmc16base_hamiltonianIN18model_ef_namespace8model_efENS0_13dense_e_pointEN5boost6random23additive_combine_engineINS6_26linear_congruential_engineIjLj40014ELj0ELj2147483563EEENS8_IjLj40692ELj0ELj2147483399EEEEEED2Ev"
 "_ZN4stan4mcmc16covar_adaptation16learn_covarianceERN5Eigen6MatrixIdLin1ELin1ELi0ELin1ELin1EEERKNS3_IdLin1ELi1ELi0ELin1ELi1EEE"
 "_ZN4stan4mcmc16covar_adaptationC1Ei"
 "_ZN4stan4mcmc16covar_adaptationD1Ev"
 "_ZN4stan4mcmc16stepsize_adapter23get_stepsize_adaptationEv"
 "_ZN4stan4mcmc16stepsize_adapterC2Ev"
 "_ZN4stan4mcmc17adapt_diag_e_nutsIN18model_ef_namespace8model_efEN5boost6random23additive_combine_engineINS5_26linear_congruential_engineIjLj40014ELj0ELj2147483563EEENS7_IjLj40692ELj0ELj2147483399EEEEEE20disengage_adaptationEv"
 "_ZN4stan4mcmc17adapt_diag_e_nutsIN18model_ef_namespace8model_efEN5boost6random23additive_combine_engineINS5_26linear_congruential_engineIjLj40014ELj0ELj2147483563EEENS7_IjLj40692ELj0ELj2147483399EEEEEEC1ERKS3_RSA_"
 "_ZN4stan4mcmc17adapt_diag_e_nutsIN18model_ef_namespace8model_efEN5boost6random23additive_combine_engineINS5_26linear_congruential_engineIjLj40014ELj0ELj2147483563EEENS7_IjLj40692ELj0ELj2147483399EEEEEED0Ev"
 "_ZN4stan4mcmc17adapt_diag_e_nutsIN18model_ef_namespace8model_efEN5boost6random23additive_combine_engineINS5_26linear_congruential_engineIjLj40014ELj0ELj2147483563EEENS7_IjLj40692ELj0ELj2147483399EEEEEED1Ev"
 "_ZN4stan4mcmc17adapt_unit_e_nutsIN18model_ef_namespace8model_efEN5boost6random23additive_combine_engineINS5_26linear_congruential_engineIjLj40014ELj0ELj2147483563EEENS7_IjLj40692ELj0ELj2147483399EEEEEE20disengage_adaptationEv"
 "_ZN4stan4mcmc17adapt_unit_e_nutsIN18model_ef_namespace8model_efEN5boost6random23additive_combine_engineINS5_26linear_congruential_engineIjLj40014ELj0ELj2147483563EEENS7_IjLj40692ELj0ELj2147483399EEEEEEC1ERKS3_RSA_"
 "_ZN4stan4mcmc17adapt_unit_e_nutsIN18model_ef_namespace8model_efEN5boost6random23additive_combine_engineINS5_26linear_congruential_engineIjLj40014ELj0ELj2147483563EEENS7_IjLj40692ELj0ELj2147483399EEEEEED0Ev"
 "_ZN4stan4mcmc17adapt_unit_e_nutsIN18model_ef_namespace8model_efEN5boost6random23additive_combine_engineINS5_26linear_congruential_engineIjLj40014ELj0ELj2147483563EEENS7_IjLj40692ELj0ELj2147483399EEEEEED1Ev"
 "_ZN4stan4mcmc17diag_e_static_hmcIN18model_ef_namespace8model_efEN5boost6random23additive_combine_engineINS5_26linear_congruential_engineIjLj40014ELj0ELj2147483563EEENS7_IjLj40692ELj0ELj2147483399EEEEEEC1ERKS3_RSA_"
 "_ZN4stan4mcmc17diag_e_static_hmcIN18model_ef_namespace8model_efEN5boost6random23additive_combine_engineINS5_26linear_congruential_engineIjLj40014ELj0ELj2147483563EEENS7_IjLj40692ELj0ELj2147483399EEEEEEC2ERKS3_RSA_"
 "_ZN4stan4mcmc17diag_e_static_hmcIN18model_ef_namespace8model_efEN5boost6random23additive_combine_engineINS5_26linear_congruential_engineIjLj40014ELj0ELj2147483563EEENS7_IjLj40692ELj0ELj2147483399EEEEEED0Ev"
 "_ZN4stan4mcmc17diag_e_static_hmcIN18model_ef_namespace8model_efEN5boost6random23additive_combine_engineINS5_26linear_congruential_engineIjLj40014ELj0ELj2147483563EEENS7_IjLj40692ELj0ELj2147483399EEEEEED1Ev"
 "_ZN4stan4mcmc17diag_e_static_hmcIN18model_ef_namespace8model_efEN5boost6random23additive_combine_engineINS5_26linear_congruential_engineIjLj40014ELj0ELj2147483563EEENS7_IjLj40692ELj0ELj2147483399EEEEEED2Ev"
 "_ZN4stan4mcmc17unit_e_static_hmcIN18model_ef_namespace8model_efEN5boost6random23additive_combine_engineINS5_26linear_congruential_engineIjLj40014ELj0ELj2147483563EEENS7_IjLj40692ELj0ELj2147483399EEEEEEC1ERKS3_RSA_"
 "_ZN4stan4mcmc17unit_e_static_hmcIN18model_ef_namespace8model_efEN5boost6random23additive_combine_engineINS5_26linear_congruential_engineIjLj40014ELj0ELj2147483563EEENS7_IjLj40692ELj0ELj2147483399EEEEEEC2ERKS3_RSA_"
 "_ZN4stan4mcmc17unit_e_static_hmcIN18model_ef_namespace8model_efEN5boost6random23additive_combine_engineINS5_26linear_congruential_engineIjLj40014ELj0ELj2147483563EEENS7_IjLj40692ELj0ELj2147483399EEEEEED0Ev"
 "_ZN4stan4mcmc17unit_e_static_hmcIN18model_ef_namespace8model_efEN5boost6random23additive_combine_engineINS5_26linear_congruential_engineIjLj40014ELj0ELj2147483563EEENS7_IjLj40692ELj0ELj2147483399EEEEEED1Ev"
 "_ZN4stan4mcmc17unit_e_static_hmcIN18model_ef_namespace8model_efEN5boost6random23additive_combine_engineINS5_26linear_congruential_engineIjLj40014ELj0ELj2147483563EEENS7_IjLj40692ELj0ELj2147483399EEEEEED2Ev"
 "_ZN4stan4mcmc18adapt_dense_e_nutsIN18model_ef_namespace8model_efEN5boost6random23additive_combine_engineINS5_26linear_congruential_engineIjLj40014ELj0ELj2147483563EEENS7_IjLj40692ELj0ELj2147483399EEEEEE20disengage_adaptationEv"
 "_ZN4stan4mcmc18adapt_dense_e_nutsIN18model_ef_namespace8model_efEN5boost6random23additive_combine_engineINS5_26linear_congruential_engineIjLj40014ELj0ELj2147483563EEENS7_IjLj40692ELj0ELj2147483399EEEEEEC1ERKS3_RSA_"
 "_ZN4stan4mcmc18adapt_dense_e_nutsIN18model_ef_namespace8model_efEN5boost6random23additive_combine_engineINS5_26linear_congruential_engineIjLj40014ELj0ELj2147483563EEENS7_IjLj40692ELj0ELj2147483399EEEEEED0Ev"
 "_ZN4stan4mcmc18adapt_dense_e_nutsIN18model_ef_namespace8model_efEN5boost6random23additive_combine_engineINS5_26linear_congruential_engineIjLj40014ELj0ELj2147483563EEENS7_IjLj40692ELj0ELj2147483399EEEEEED1Ev"
 "_ZN4stan4mcmc18dense_e_static_hmcIN18model_ef_namespace8model_efEN5boost6random23additive_combine_engineINS5_26linear_congruential_engineIjLj40014ELj0ELj2147483563EEENS7_IjLj40692ELj0ELj2147483399EEEEEEC1ERKS3_RSA_"
 "_ZN4stan4mcmc18dense_e_static_hmcIN18model_ef_namespace8model_efEN5boost6random23additive_combine_engineINS5_26linear_congruential_engineIjLj40014ELj0ELj2147483563EEENS7_IjLj40692ELj0ELj2147483399EEEEEEC2ERKS3_RSA_"
 "_ZN4stan4mcmc18dense_e_static_hmcIN18model_ef_namespace8model_efEN5boost6random23additive_combine_engineINS5_26linear_congruential_engineIjLj40014ELj0ELj2147483563EEENS7_IjLj40692ELj0ELj2147483399EEEEEED0Ev"
 "_ZN4stan4mcmc18dense_e_static_hmcIN18model_ef_namespace8model_efEN5boost6random23additive_combine_engineINS5_26linear_congruential_engineIjLj40014ELj0ELj2147483563EEENS7_IjLj40692ELj0ELj2147483399EEEEEED1Ev"
 "_ZN4stan4mcmc18dense_e_static_hmcIN18model_ef_namespace8model_efEN5boost6random23additive_combine_engineINS5_26linear_congruential_engineIjLj40014ELj0ELj2147483563EEENS7_IjLj40692ELj0ELj2147483399EEEEEED2Ev"
 "_ZN4stan4mcmc19fixed_param_sampler10transitionERNS0_6sampleERNS_9callbacks6loggerE"
 "_ZN4stan4mcmc19fixed_param_samplerC1Ev"
 "_ZN4stan4mcmc19fixed_param_samplerD0Ev"
 "_ZN4stan4mcmc19fixed_param_samplerD1Ev"
 "_ZN4stan4mcmc19stepsize_adaptation14learn_stepsizeERdd"
 "_ZN4stan4mcmc19stepsize_adaptation19complete_adaptationERd"
 "_ZN4stan4mcmc19stepsize_adaptation6set_muEd"
 "_ZN4stan4mcmc19stepsize_adaptation6set_t0Ed"
 "_ZN4stan4mcmc19stepsize_adaptation7restartEv"
 "_ZN4stan4mcmc19stepsize_adaptation9set_deltaEd"
 "_ZN4stan4mcmc19stepsize_adaptation9set_gammaEd"
 "_ZN4stan4mcmc19stepsize_adaptation9set_kappaEd"
 "_ZN4stan4mcmc19stepsize_adaptationC1Ev"
 "_ZN4stan4mcmc19windowed_adaptation17adaptation_windowEv"
 "_ZN4stan4mcmc19windowed_adaptation17set_window_paramsEjjjjRNS_9callbacks6loggerE"
 "_ZN4stan4mcmc19windowed_adaptation19compute_next_windowEv"
 "_ZN4stan4mcmc19windowed_adaptation21end_adaptation_windowEv"
 "_ZN4stan4mcmc19windowed_adaptation7restartEv"
 "_ZN4stan4mcmc19windowed_adaptationC2ENSt7__cxx1112basic_stringIcSt11char_traitsIcESaIcEEE"
 "_ZN4stan4mcmc19windowed_adaptationD2Ev"
 "_ZN4stan4mcmc20stepsize_var_adapter17set_window_paramsEjjjjRNS_9callbacks6loggerE"
 "_ZN4stan4mcmc20stepsize_var_adapter23get_stepsize_adaptationEv"
 "_ZN4stan4mcmc20stepsize_var_adapterC2Ei"
 "_ZN4stan4mcmc20stepsize_var_adapterD2Ev"
 "_ZN4stan4mcmc22stepsize_covar_adapter17set_window_paramsEjjjjRNS_9callbacks6loggerE"
 "_ZN4stan4mcmc22stepsize_covar_adapter23get_stepsize_adaptationEv"
 "_ZN4stan4mcmc22stepsize_covar_adapterC2Ei"
 "_ZN4stan4mcmc22stepsize_covar_adapterD2Ev"
 "_ZN4stan4mcmc23adapt_diag_e_static_hmcIN18model_ef_namespace8model_efEN5boost6random23additive_combine_engineINS5_26linear_congruential_engineIjLj40014ELj0ELj2147483563EEENS7_IjLj40692ELj0ELj2147483399EEEEEE20disengage_adaptationEv"
 "_ZN4stan4mcmc23adapt_diag_e_static_hmcIN18model_ef_namespace8model_efEN5boost6random23additive_combine_engineINS5_26linear_congruential_engineIjLj40014ELj0ELj2147483563EEENS7_IjLj40692ELj0ELj2147483399EEEEEEC1ERKS3_RSA_"
 "_ZN4stan4mcmc23adapt_diag_e_static_hmcIN18model_ef_namespace8model_efEN5boost6random23additive_combine_engineINS5_26linear_congruential_engineIjLj40014ELj0ELj2147483563EEENS7_IjLj40692ELj0ELj2147483399EEEEEED0Ev"
 "_ZN4stan4mcmc23adapt_diag_e_static_hmcIN18model_ef_namespace8model_efEN5boost6random23additive_combine_engineINS5_26linear_congruential_engineIjLj40014ELj0ELj2147483563EEENS7_IjLj40692ELj0ELj2147483399EEEEEED1Ev"
 "_ZN4stan4mcmc23adapt_unit_e_static_hmcIN18model_ef_namespace8model_efEN5boost6random23additive_combine_engineINS5_26linear_congruential_engineIjLj40014ELj0ELj2147483563EEENS7_IjLj40692ELj0ELj2147483399EEEEEE20disengage_adaptationEv"
 "_ZN4stan4mcmc23adapt_unit_e_static_hmcIN18model_ef_namespace8model_efEN5boost6random23additive_combine_engineINS5_26linear_congruential_engineIjLj40014ELj0ELj2147483563EEENS7_IjLj40692ELj0ELj2147483399EEEEEEC1ERKS3_RSA_"
 "_ZN4stan4mcmc23adapt_unit_e_static_hmcIN18model_ef_namespace8model_efEN5boost6random23additive_combine_engineINS5_26linear_congruential_engineIjLj40014ELj0ELj2147483563EEENS7_IjLj40692ELj0ELj2147483399EEEEEED0Ev"
 "_ZN4stan4mcmc23adapt_unit_e_static_hmcIN18model_ef_namespace8model_efEN5boost6random23additive_combine_engineINS5_26linear_congruential_engineIjLj40014ELj0ELj2147483563EEENS7_IjLj40692ELj0ELj2147483399EEEEEED1Ev"
 "_ZN4stan4mcmc24adapt_dense_e_static_hmcIN18model_ef_namespace8model_efEN5boost6random23additive_combine_engineINS5_26linear_congruential_engineIjLj40014ELj0ELj2147483563EEENS7_IjLj40692ELj0ELj2147483399EEEEEE20disengage_adaptationEv"
 "_ZN4stan4mcmc24adapt_dense_e_static_hmcIN18model_ef_namespace8model_efEN5boost6random23additive_combine_engineINS5_26linear_congruential_engineIjLj40014ELj0ELj2147483563EEENS7_IjLj40692ELj0ELj2147483399EEEEEEC1ERKS3_RSA_"
 "_ZN4stan4mcmc24adapt_dense_e_static_hmcIN18model_ef_namespace8model_efEN5boost6random23additive_combine_engineINS5_26linear_congruential_engineIjLj40014ELj0ELj2147483563EEENS7_IjLj40692ELj0ELj2147483399EEEEEED0Ev"
 "_ZN4stan4mcmc24adapt_dense_e_static_hmcIN18model_ef_namespace8model_efEN5boost6random23additive_combine_engineINS5_26linear_congruential_engineIjLj40014ELj0ELj2147483563EEENS7_IjLj40692ELj0ELj2147483399EEEEEED1Ev"
 "_ZN4stan4mcmc6sample17get_sample_paramsERSt6vectorIdSaIdEE"
 "_ZN4stan4mcmc6sample22get_sample_param_namesERSt6vectorINSt7__cxx1112basic_stringIcSt11char_traitsIcESaIcEEESaIS8_EE"
 "_ZN4stan4mcmc6sampleC1EON5Eigen6MatrixIdLin1ELi1ELi0ELin1ELi1EEEdd"
 "_ZN4stan4mcmc6sampleC1ERKN5Eigen6MatrixIdLin1ELi1ELi0ELin1ELi1EEEdd"
 "_ZN4stan4mcmc6sampleC1ERKS1_"
 "_ZN4stan4mcmc6sampleaSEOS1_"
 "_ZN4stan4mcmc8base_hmcIN18model_ef_namespace8model_efENS0_13diag_e_metricENS0_13expl_leapfrogEN5boost6random23additive_combine_engineINS7_26linear_congruential_engineIjLj40014ELj0ELj2147483563EEENS9_IjLj40692ELj0ELj2147483399EEEEEE13init_stepsizeERNS_9callbacks6loggerE"
 "_ZN4stan4mcmc8base_hmcIN18model_ef_namespace8model_efENS0_13diag_e_metricENS0_13expl_leapfrogEN5boost6random23additive_combine_engineINS7_26linear_congruential_engineIjLj40014ELj0ELj2147483563EEENS9_IjLj40692ELj0ELj2147483399EEEEEE19set_stepsize_jitterEd"
 "_ZN4stan4mcmc8base_hmcIN18model_ef_namespace8model_efENS0_13diag_e_metricENS0_13expl_leapfrogEN5boost6random23additive_combine_engineINS7_26linear_congruential_engineIjLj40014ELj0ELj2147483563EEENS9_IjLj40692ELj0ELj2147483399EEEEEE19write_sampler_stateERNS_9callbacks6writerE"
 "_ZN4stan4mcmc8base_hmcIN18model_ef_namespace8model_efENS0_13diag_e_metricENS0_13expl_leapfrogEN5boost6random23additive_combine_engineINS7_26linear_congruential_engineIjLj40014ELj0ELj2147483563EEENS9_IjLj40692ELj0ELj2147483399EEEEEE1zEv"
 "_ZN4stan4mcmc8base_hmcIN18model_ef_namespace8model_efENS0_13diag_e_metricENS0_13expl_leapfrogEN5boost6random23additive_combine_engineINS7_26linear_congruential_engineIjLj40014ELj0ELj2147483563EEENS9_IjLj40692ELj0ELj2147483399EEEEEE20get_nominal_stepsizeEv"
 "_ZN4stan4mcmc8base_hmcIN18model_ef_namespace8model_efENS0_13diag_e_metricENS0_13expl_leapfrogEN5boost6random23additive_combine_engineINS7_26linear_congruential_engineIjLj40014ELj0ELj2147483563EEENS9_IjLj40692ELj0ELj2147483399EEEEEE20set_nominal_stepsizeEd"
 "_ZN4stan4mcmc8base_hmcIN18model_ef_namespace8model_efENS0_13diag_e_metricENS0_13expl_leapfrogEN5boost6random23additive_combine_engineINS7_26linear_congruential_engineIjLj40014ELj0ELj2147483563EEENS9_IjLj40692ELj0ELj2147483399EEEEEE20write_sampler_metricERNS_9callbacks6writerE"
 "_ZN4stan4mcmc8base_hmcIN18model_ef_namespace8model_efENS0_13diag_e_metricENS0_13expl_leapfrogEN5boost6random23additive_combine_engineINS7_26linear_congruential_engineIjLj40014ELj0ELj2147483563EEENS9_IjLj40692ELj0ELj2147483399EEEEEE22write_sampler_stepsizeERNS_9callbacks6writerE"
 "_ZN4stan4mcmc8base_hmcIN18model_ef_namespace8model_efENS0_13diag_e_metricENS0_13expl_leapfrogEN5boost6random23additive_combine_engineINS7_26linear_congruential_engineIjLj40014ELj0ELj2147483563EEENS9_IjLj40692ELj0ELj2147483399EEEEEEC2ERKS3_RSC_"
 "_ZN4stan4mcmc8base_hmcIN18model_ef_namespace8model_efENS0_13diag_e_metricENS0_13expl_leapfrogEN5boost6random23additive_combine_engineINS7_26linear_congruential_engineIjLj40014ELj0ELj2147483563EEENS9_IjLj40692ELj0ELj2147483399EEEEEED2Ev"
 "_ZN4stan4mcmc8base_hmcIN18model_ef_namespace8model_efENS0_13unit_e_metricENS0_13expl_leapfrogEN5boost6random23additive_combine_engineINS7_26linear_congruential_engineIjLj40014ELj0ELj2147483563EEENS9_IjLj40692ELj0ELj2147483399EEEEEE13init_stepsizeERNS_9callbacks6loggerE"
 "_ZN4stan4mcmc8base_hmcIN18model_ef_namespace8model_efENS0_13unit_e_metricENS0_13expl_leapfrogEN5boost6random23additive_combine_engineINS7_26linear_congruential_engineIjLj40014ELj0ELj2147483563EEENS9_IjLj40692ELj0ELj2147483399EEEEEE19set_stepsize_jitterEd"
 "_ZN4stan4mcmc8base_hmcIN18model_ef_namespace8model_efENS0_13unit_e_metricENS0_13expl_leapfrogEN5boost6random23additive_combine_engineINS7_26linear_congruential_engineIjLj40014ELj0ELj2147483563EEENS9_IjLj40692ELj0ELj2147483399EEEEEE19write_sampler_stateERNS_9callbacks6writerE"
 "_ZN4stan4mcmc8base_hmcIN18model_ef_namespace8model_efENS0_13unit_e_metricENS0_13expl_leapfrogEN5boost6random23additive_combine_engineINS7_26linear_congruential_engineIjLj40014ELj0ELj2147483563EEENS9_IjLj40692ELj0ELj2147483399EEEEEE1zEv"
 "_ZN4stan4mcmc8base_hmcIN18model_ef_namespace8model_efENS0_13unit_e_metricENS0_13expl_leapfrogEN5boost6random23additive_combine_engineINS7_26linear_congruential_engineIjLj40014ELj0ELj2147483563EEENS9_IjLj40692ELj0ELj2147483399EEEEEE20get_nominal_stepsizeEv"
 "_ZN4stan4mcmc8base_hmcIN18model_ef_namespace8model_efENS0_13unit_e_metricENS0_13expl_leapfrogEN5boost6random23additive_combine_engineINS7_26linear_congruential_engineIjLj40014ELj0ELj2147483563EEENS9_IjLj40692ELj0ELj2147483399EEEEEE20set_nominal_stepsizeEd"
 "_ZN4stan4mcmc8base_hmcIN18model_ef_namespace8model_efENS0_13unit_e_metricENS0_13expl_leapfrogEN5boost6random23additive_combine_engineINS7_26linear_congruential_engineIjLj40014ELj0ELj2147483563EEENS9_IjLj40692ELj0ELj2147483399EEEEEE20write_sampler_metricERNS_9callbacks6writerE"
 "_ZN4stan4mcmc8base_hmcIN18model_ef_namespace8model_efENS0_13unit_e_metricENS0_13expl_leapfrogEN5boost6random23additive_combine_engineINS7_26linear_congruential_engineIjLj40014ELj0ELj2147483563EEENS9_IjLj40692ELj0ELj2147483399EEEEEE22write_sampler_stepsizeERNS_9callbacks6writerE"
 "_ZN4stan4mcmc8base_hmcIN18model_ef_namespace8model_efENS0_13unit_e_metricENS0_13expl_leapfrogEN5boost6random23additive_combine_engineINS7_26linear_congruential_engineIjLj40014ELj0ELj2147483563EEENS9_IjLj40692ELj0ELj2147483399EEEEEEC2ERKS3_RSC_"
 "_ZN4stan4mcmc8base_hmcIN18model_ef_namespace8model_efENS0_13unit_e_metricENS0_13expl_leapfrogEN5boost6random23additive_combine_engineINS7_26linear_congruential_engineIjLj40014ELj0ELj2147483563EEENS9_IjLj40692ELj0ELj2147483399EEEEEED2Ev"
 "_ZN4stan4mcmc8base_hmcIN18model_ef_namespace8model_efENS0_14dense_e_metricENS0_13expl_leapfrogEN5boost6random23additive_combine_engineINS7_26linear_congruential_engineIjLj40014ELj0ELj2147483563EEENS9_IjLj40692ELj0ELj2147483399EEEEEE13init_stepsizeERNS_9callbacks6loggerE"
 "_ZN4stan4mcmc8base_hmcIN18model_ef_namespace8model_efENS0_14dense_e_metricENS0_13expl_leapfrogEN5boost6random23additive_combine_engineINS7_26linear_congruential_engineIjLj40014ELj0ELj2147483563EEENS9_IjLj40692ELj0ELj2147483399EEEEEE19set_stepsize_jitterEd"
 "_ZN4stan4mcmc8base_hmcIN18model_ef_namespace8model_efENS0_14dense_e_metricENS0_13expl_leapfrogEN5boost6random23additive_combine_engineINS7_26linear_congruential_engineIjLj40014ELj0ELj2147483563EEENS9_IjLj40692ELj0ELj2147483399EEEEEE19write_sampler_stateERNS_9callbacks6writerE"
 "_ZN4stan4mcmc8base_hmcIN18model_ef_namespace8model_efENS0_14dense_e_metricENS0_13expl_leapfrogEN5boost6random23additive_combine_engineINS7_26linear_congruential_engineIjLj40014ELj0ELj2147483563EEENS9_IjLj40692ELj0ELj2147483399EEEEEE1zEv"
 "_ZN4stan4mcmc8base_hmcIN18model_ef_namespace8model_efENS0_14dense_e_metricENS0_13expl_leapfrogEN5boost6random23additive_combine_engineINS7_26linear_congruential_engineIjLj40014ELj0ELj2147483563EEENS9_IjLj40692ELj0ELj2147483399EEEEEE20get_nominal_stepsizeEv"
 "_ZN4stan4mcmc8base_hmcIN18model_ef_namespace8model_efENS0_14dense_e_metricENS0_13expl_leapfrogEN5boost6random23additive_combine_engineINS7_26linear_congruential_engineIjLj40014ELj0ELj2147483563EEENS9_IjLj40692ELj0ELj2147483399EEEEEE20set_nominal_stepsizeEd"
 "_ZN4stan4mcmc8base_hmcIN18model_ef_namespace8model_efENS0_14dense_e_metricENS0_13expl_leapfrogEN5boost6random23additive_combine_engineINS7_26linear_congruential_engineIjLj40014ELj0ELj2147483563EEENS9_IjLj40692ELj0ELj2147483399EEEEEE20write_sampler_metricERNS_9callbacks6writerE"
 "_ZN4stan4mcmc8base_hmcIN18model_ef_namespace8model_efENS0_14dense_e_metricENS0_13expl_leapfrogEN5boost6random23additive_combine_engineINS7_26linear_congruential_engineIjLj40014ELj0ELj2147483563EEENS9_IjLj40692ELj0ELj2147483399EEEEEE22write_sampler_stepsizeERNS_9callbacks6writerE"
 "_ZN4stan4mcmc8base_hmcIN18model_ef_namespace8model_efENS0_14dense_e_metricENS0_13expl_leapfrogEN5boost6random23additive_combine_engineINS7_26linear_congruential_engineIjLj40014ELj0ELj2147483563EEENS9_IjLj40692ELj0ELj2147483399EEEEEEC2ERKS3_RSC_"
 "_ZN4stan4mcmc8base_hmcIN18model_ef_namespace8model_efENS0_14dense_e_metricENS0_13expl_leapfrogEN5boost6random23additive_combine_engineINS7_26linear_congruential_engineIjLj40014ELj0ELj2147483563EEENS9_IjLj40692ELj0ELj2147483399EEEEEED2Ev"
 "_ZN4stan4mcmc8ps_point10get_paramsERSt6vectorIdSaIdEE"
 "_ZN4stan4mcmc8ps_point12write_metricERNS_9callbacks6writerE"
 "_ZN4stan4mcmc8ps_point15get_param_namesERSt6vectorINSt7__cxx1112basic_stringIcSt11char_traitsIcESaIcEEESaIS8_EESB_"
 "_ZN4stan4mcmc8ps_pointC1ERKS1_"
 "_ZN4stan4mcmc8ps_pointC2Ei"
 "_ZN4stan4mcmc8ps_pointD1Ev"
 "_ZN4stan4mcmc8ps_pointD2Ev"
 "_ZN4stan4mcmc8ps_pointaSERKS1_"
 "_ZN4stan4mcmc9base_mcmc18get_sampler_paramsERSt6vectorIdSaIdEE"
 "_ZN4stan4mcmc9base_mcmc19write_sampler_stateERNS_9callbacks6writerE"
 "_ZN4stan4mcmc9base_mcmc23get_sampler_diagnosticsERSt6vectorIdSaIdEE"
 "_ZN4stan4mcmc9base_mcmc23get_sampler_param_namesERSt6vectorINSt7__cxx1112basic_stringIcSt11char_traitsIcESaIcEEESaIS8_EE"
 "_ZN4stan4mcmc9base_mcmc28get_sampler_diagnostic_namesERSt6vectorINSt7__cxx1112basic_stringIcSt11char_traitsIcESaIcEEESaIS8_EESB_"
 "_ZN4stan4mcmc9base_mcmcC2Ev"
 "_ZN4stan4mcmc9base_mcmcD2Ev"
 "_ZN4stan4mcmc9base_nutsIN18model_ef_namespace8model_efENS0_13diag_e_metricENS0_13expl_leapfrogEN5boost6random23additive_combine_engineINS7_26linear_congruential_engineIjLj40014ELj0ELj2147483563EEENS9_IjLj40692ELj0ELj2147483399EEEEEE10set_metricERKN5Eigen6MatrixIdLin1ELi1ELi0ELin1ELi1EEE"
 "_ZN4stan4mcmc9base_nutsIN18model_ef_namespace8model_efENS0_13diag_e_metricENS0_13expl_leapfrogEN5boost6random23additive_combine_engineINS7_26linear_congruential_engineIjLj40014ELj0ELj2147483563EEENS9_IjLj40692ELj0ELj2147483399EEEEEE13set_max_depthEi"
 "_ZN4stan4mcmc9base_nutsIN18model_ef_namespace8model_efENS0_13diag_e_metricENS0_13expl_leapfrogEN5boost6random23additive_combine_engineINS7_26linear_congruential_engineIjLj40014ELj0ELj2147483563EEENS9_IjLj40692ELj0ELj2147483399EEEEEEC2ERKS3_RSC_"
 "_ZN4stan4mcmc9base_nutsIN18model_ef_namespace8model_efENS0_13diag_e_metricENS0_13expl_leapfrogEN5boost6random23additive_combine_engineINS7_26linear_congruential_engineIjLj40014ELj0ELj2147483563EEENS9_IjLj40692ELj0ELj2147483399EEEEEED0Ev"
 "_ZN4stan4mcmc9base_nutsIN18model_ef_namespace8model_efENS0_13diag_e_metricENS0_13expl_leapfrogEN5boost6random23additive_combine_engineINS7_26linear_congruential_engineIjLj40014ELj0ELj2147483563EEENS9_IjLj40692ELj0ELj2147483399EEEEEED1Ev"
 "_ZN4stan4mcmc9base_nutsIN18model_ef_namespace8model_efENS0_13diag_e_metricENS0_13expl_leapfrogEN5boost6random23additive_combine_engineINS7_26linear_congruential_engineIjLj40014ELj0ELj2147483563EEENS9_IjLj40692ELj0ELj2147483399EEEEEED2Ev"
 "_ZN4stan4mcmc9base_nutsIN18model_ef_namespace8model_efENS0_13unit_e_metricENS0_13expl_leapfrogEN5boost6random23additive_combine_engineINS7_26linear_congruential_engineIjLj40014ELj0ELj2147483563EEENS9_IjLj40692ELj0ELj2147483399EEEEEE13set_max_depthEi"
 "_ZN4stan4mcmc9base_nutsIN18model_ef_namespace8model_efENS0_13unit_e_metricENS0_13expl_leapfrogEN5boost6random23additive_combine_engineINS7_26linear_congruential_engineIjLj40014ELj0ELj2147483563EEENS9_IjLj40692ELj0ELj2147483399EEEEEEC2ERKS3_RSC_"
 "_ZN4stan4mcmc9base_nutsIN18model_ef_namespace8model_efENS0_13unit_e_metricENS0_13expl_leapfrogEN5boost6random23additive_combine_engineINS7_26linear_congruential_engineIjLj40014ELj0ELj2147483563EEENS9_IjLj40692ELj0ELj2147483399EEEEEED0Ev"
 "_ZN4stan4mcmc9base_nutsIN18model_ef_namespace8model_efENS0_13unit_e_metricENS0_13expl_leapfrogEN5boost6random23additive_combine_engineINS7_26linear_congruential_engineIjLj40014ELj0ELj2147483563EEENS9_IjLj40692ELj0ELj2147483399EEEEEED1Ev"
 "_ZN4stan4mcmc9base_nutsIN18model_ef_namespace8model_efENS0_13unit_e_metricENS0_13expl_leapfrogEN5boost6random23additive_combine_engineINS7_26linear_congruential_engineIjLj40014ELj0ELj2147483563EEENS9_IjLj40692ELj0ELj2147483399EEEEEED2Ev"
 "_ZN4stan4mcmc9base_nutsIN18model_ef_namespace8model_efENS0_14dense_e_metricENS0_13expl_leapfrogEN5boost6random23additive_combine_engineINS7_26linear_congruential_engineIjLj40014ELj0ELj2147483563EEENS9_IjLj40692ELj0ELj2147483399EEEEEE10set_metricERKN5Eigen6MatrixIdLin1ELin1ELi0ELin1ELin1EEE"
 "_ZN4stan4mcmc9base_nutsIN18model_ef_namespace8model_efENS0_14dense_e_metricENS0_13expl_leapfrogEN5boost6random23additive_combine_engineINS7_26linear_congruential_engineIjLj40014ELj0ELj2147483563EEENS9_IjLj40692ELj0ELj2147483399EEEEEE13set_max_depthEi"
 "_ZN4stan4mcmc9base_nutsIN18model_ef_namespace8model_efENS0_14dense_e_metricENS0_13expl_leapfrogEN5boost6random23additive_combine_engineINS7_26linear_congruential_engineIjLj40014ELj0ELj2147483563EEENS9_IjLj40692ELj0ELj2147483399EEEEEEC2ERKS3_RSC_"
 "_ZN4stan4mcmc9base_nutsIN18model_ef_namespace8model_efENS0_14dense_e_metricENS0_13expl_leapfrogEN5boost6random23additive_combine_engineINS7_26linear_congruential_engineIjLj40014ELj0ELj2147483563EEENS9_IjLj40692ELj0ELj2147483399EEEEEED0Ev"
 "_ZN4stan4mcmc9base_nutsIN18model_ef_namespace8model_efENS0_14dense_e_metricENS0_13expl_leapfrogEN5boost6random23additive_combine_engineINS7_26linear_congruential_engineIjLj40014ELj0ELj2147483563EEENS9_IjLj40692ELj0ELj2147483399EEEEEED1Ev"
 "_ZN4stan4mcmc9base_nutsIN18model_ef_namespace8model_efENS0_14dense_e_metricENS0_13expl_leapfrogEN5boost6random23additive_combine_engineINS7_26linear_congruential_engineIjLj40014ELj0ELj2147483563EEENS9_IjLj40692ELj0ELj2147483399EEEEEED2Ev"
 "_ZN4stan5model10model_baseC2Ey"
 "_ZN4stan5model10model_baseD2Ev"
 "_ZN4stan5model13log_prob_gradILb1ELb0EN18model_ef_namespace8model_efEEEdRKT1_RSt6vectorIdSaIdEERS7_IiSaIiEESA_PSo"
 "_ZN4stan5model13log_prob_gradILb1ELb1EN18model_ef_namespace8model_efEEEdRKT1_RSt6vectorIdSaIdEERS7_IiSaIiEESA_PSo"
 "_ZN4stan5model14test_gradientsILb1ELb1EN18model_ef_namespace8model_efEEEiRKT1_RSt6vectorIdSaIdEERS7_IiSaIiEEddRNS_9callbacks9interruptERNSE_6loggerERNSE_6writerE"
 "_ZN4stan5model15cons_index_listINS0_9index_uniENS0_14nil_index_listEEC1ERKS2_RKS3_"
 "_ZN4stan5model15log_prob_proptoILb0EN18model_ef_namespace8model_efEEEdRKT0_RSt6vectorIdSaIdEERS7_IiSaIiEEPSo"
 "_ZN4stan5model15log_prob_proptoILb1EN18model_ef_namespace8model_efEEEdRKT0_RSt6vectorIdSaIdEERS7_IiSaIiEEPSo"
 "_ZN4stan5model15model_base_crtpIN18model_ef_namespace8model_efEEC2Ey"
 "_ZN4stan5model15model_base_crtpIN18model_ef_namespace8model_efEED2Ev"
 "_ZN4stan5model16finite_diff_gradILb0ELb1EN18model_ef_namespace8model_efEEEvRKT1_RNS_9callbacks9interruptERSt6vectorIdSaIdEERSA_IiSaIiEESD_dPSo"
 "_ZN4stan5model16model_functionalIN18model_ef_namespace8model_efEEC1ERKS3_PSo"
 "_ZN4stan5model18grad_hess_log_probILb1ELb0EN18model_ef_namespace8model_efEEEdRKT1_RSt6vectorIdSaIdEERS7_IiSaIiEESA_SA_PSo"
 "_ZN4stan5model6assignIN5Eigen6MatrixINS_4math3varELin1ELi1ELi0ELin1ELi1EEENS0_14nil_index_listES6_EEvRSt6vectorIT_SaIS9_EERKNS0_15cons_index_listINS0_9index_uniET0_EERKT1_PKci"
 "_ZN4stan5model6assignIN5Eigen6MatrixINS_4math3varELin1ELi1ELi0ELin1ELi1EEES6_EEvRT_RKNS0_14nil_index_listERKT0_PKci"
 "_ZN4stan5model6assignIN5Eigen6MatrixIdLin1ELi1ELi0ELin1ELi1EEENS0_14nil_index_listES4_EEvRSt6vectorIT_SaIS7_EERKNS0_15cons_index_listINS0_9index_uniET0_EERKT1_PKci"
 "_ZN4stan5model6assignIN5Eigen6MatrixIdLin1ELi1ELi0ELin1ELi1EEES4_EEvRT_RKNS0_14nil_index_listERKT0_PKci"
 "_ZN4stan5model6assignINS_4math3varES3_EEvRN5Eigen6MatrixIT_Lin1ELi1ELi0ELin1ELi1EEERKNS0_15cons_index_listINS0_9index_uniENS0_14nil_index_listEEERKT0_PKci"
 "_ZN4stan5model6assignIddEEvRN5Eigen6MatrixIT_Lin1ELi1ELi0ELin1ELi1EEERKNS0_15cons_index_listINS0_9index_uniENS0_14nil_index_listEEERKT0_PKci"
 "_ZN4stan5model8gradientIN18model_ef_namespace8model_efEEEvRKT_RKN5Eigen6MatrixIdLin1ELi1ELi0ELin1ELi1EEERdRS9_PSo"
 "_ZN4stan5model8gradientIN18model_ef_namespace8model_efEEEvRKT_RKN5Eigen6MatrixIdLin1ELi1ELi0ELin1ELi1EEERdRS9_RNS_9callbacks6loggerE"
 "_ZN4stan5model9cons_listINS0_9index_uniENS0_14nil_index_listEEENS0_15cons_index_listIT_T0_EERKS5_RKS6_"
 "_ZN4stan5model9index_uniC1Ei"
 "_ZN4stan5model9prob_gradC2Ey"
 "_ZN4stan5model9prob_gradD0Ev"
 "_ZN4stan5model9prob_gradD1Ev"
 "_ZN4stan5model9prob_gradD2Ev"
 "_ZN4stan6lengthINS_4math3varELin1ELi1EEEyRKN5Eigen6MatrixIT_XT0_EXT1_EXorLNS3_14StorageOptionsE0EquaaeqT0_Li1EneT1_Li1ELS6_1EquaaeqT1_Li1EneT0_Li1ELS6_0ELS6_0EEXT0_EXT1_EEE"
 "_ZN4stan6lengthIdEEyRKT_"
 "_ZN4stan6lengthIdLi1ELin1EEEyRKN5Eigen6MatrixIT_XT0_EXT1_EXorLNS1_14StorageOptionsE0EquaaeqT0_Li1EneT1_Li1ELS4_1EquaaeqT1_Li1EneT0_Li1ELS4_0ELS4_0EEXT0_EXT1_EEE"
 "_ZN4stan6lengthIdLin1ELi1EEEyRKN5Eigen6MatrixIT_XT0_EXT1_EXorLNS1_14StorageOptionsE0EquaaeqT0_Li1EneT1_Li1ELS4_1EquaaeqT1_Li1EneT0_Li1ELS4_0ELS4_0EEXT0_EXT1_EEE"
 "_ZN4stan6lengthIdLin1ELin1EEEyRKN5Eigen6MatrixIT_XT0_EXT1_EXorLNS1_14StorageOptionsE0EquaaeqT0_Li1EneT1_Li1ELS4_1EquaaeqT1_Li1EneT0_Li1ELS4_0ELS4_0EEXT0_EXT1_EEE"
 "_ZN4stan6lengthIiEEyRKT_"
 "_ZN4stan6lengthIxEEyRKT_"
 "_ZN4stan6lengthIyEEyRKT_"
 "_ZN4stan7size_ofIiEEyRKT_"
 "_ZN4stan8max_sizeIiiEEyRKT_RKT0_"
 "_ZN4stan8services12experimental4advi8fullrankIN18model_ef_namespace8model_efEEEiRT_RNS_2io11var_contextEjjdiiiddbiiiRNS_9callbacks9interruptERNSB_6loggerERNSB_6writerESH_SH_"
 "_ZN4stan8services12experimental4advi9meanfieldIN18model_ef_namespace8model_efEEEiRT_RNS_2io11var_contextEjjdiiiddbiiiRNS_9callbacks9interruptERNSB_6loggerERNSB_6writerESH_SH_"
 "_ZN4stan8services19standalone_generateIN18model_ef_namespace8model_efEEEiRKT_RKN5Eigen6MatrixIdLin1ELin1ELi0ELin1ELin1EEEjRNS_9callbacks9interruptERNSC_6loggerERNSC_6writerE"
 "_ZN4stan8services20get_model_parametersIN18model_ef_namespace8model_efEEEvRKT_RSt6vectorINSt7__cxx1112basic_stringIcSt11char_traitsIcESaIcEEESaISD_EERS7_IS7_IySaIyEESaISI_EE"
 "_ZN4stan8services4util10create_rngEjj"
 "_ZN4stan8services4util10initializeILb0EN18model_ef_namespace8model_efEN5boost6random23additive_combine_engineINS6_26linear_congruential_engineIjLj40014ELj0ELj2147483563EEENS8_IjLj40692ELj0ELj2147483399EEEEEEESt6vectorIdSaIdEERT0_RNS_2io11var_contextERT1_dbRNS_9callbacks6loggerERNSM_6writerE"
 "_ZN4stan8services4util10initializeILb1EN18model_ef_namespace8model_efEN5boost6random23additive_combine_engineINS6_26linear_congruential_engineIjLj40014ELj0ELj2147483563EEENS8_IjLj40692ELj0ELj2147483399EEEEEEESt6vectorIdSaIdEERT0_RNS_2io11var_contextERT1_dbRNS_9callbacks6loggerERNSM_6writerE"
 "_ZN4stan8services4util11mcmc_writer10log_timingEdd"
 "_ZN4stan8services4util11mcmc_writer12write_timingEdd"
 "_ZN4stan8services4util11mcmc_writer12write_timingEddRNS_9callbacks6writerE"
 "_ZN4stan8services4util11mcmc_writer18write_adapt_finishERNS_4mcmc9base_mcmcE"
 "_ZN4stan8services4util11mcmc_writer18write_sample_namesIN18model_ef_namespace8model_efEEEvRNS_4mcmc6sampleERNS6_9base_mcmcERT_"
 "_ZN4stan8services4util11mcmc_writer19write_sample_paramsIN18model_ef_namespace8model_efEN5boost6random23additive_combine_engineINS7_26linear_congruential_engineIjLj40014ELj0ELj2147483563EEENS9_IjLj40692ELj0ELj2147483399EEEEEEEvRT0_RNS_4mcmc6sampleERNSF_9base_mcmcERT_"
 "_ZN4stan8services4util11mcmc_writer22write_diagnostic_namesIN18model_ef_namespace8model_efEEEvNS_4mcmc6sampleERNS6_9base_mcmcERT_"
 "_ZN4stan8services4util11mcmc_writer23write_diagnostic_paramsERNS_4mcmc6sampleERNS3_9base_mcmcE"
 "_ZN4stan8services4util11mcmc_writerC1ERNS_9callbacks6writerES5_RNS3_6loggerE"
 "_ZN4stan8services4util11run_samplerIN18model_ef_namespace8model_efEN5boost6random23additive_combine_engineINS6_26linear_congruential_engineIjLj40014ELj0ELj2147483563EEENS8_IjLj40692ELj0ELj2147483399EEEEEEEvRNS_4mcmc9base_mcmcERT_RSt6vectorIdSaIdEEiiiibRT0_RNS_9callbacks9interruptERNSN_6loggerERNSN_6writerEST_"
 "_ZN4stan8services4util20experimental_messageERNS_9callbacks6loggerE"
 "_ZN4stan8services4util20generate_transitionsIN18model_ef_namespace8model_efEN5boost6random23additive_combine_engineINS6_26linear_congruential_engineIjLj40014ELj0ELj2147483563EEENS8_IjLj40692ELj0ELj2147483399EEEEEEEvRNS_4mcmc9base_mcmcEiiiiibbRNS1_11mcmc_writerERNSC_6sampleERT_RT0_RNS_9callbacks9interruptERNSN_6loggerE"
 "_ZN4stan8services4util20read_diag_inv_metricERNS_2io11var_contextEyRNS_9callbacks6loggerE"
 "_ZN4stan8services4util20run_adaptive_samplerINS_4mcmc17adapt_diag_e_nutsIN18model_ef_namespace8model_efEN5boost6random23additive_combine_engineINS8_26linear_congruential_engineIjLj40014ELj0ELj2147483563EEENSA_IjLj40692ELj0ELj2147483399EEEEEEES6_SD_EEvRT_RT0_RSt6vectorIdSaIdEEiiiibRT1_RNS_9callbacks9interruptERNSP_6loggerERNSP_6writerESV_"
 "_ZN4stan8services4util20run_adaptive_samplerINS_4mcmc17adapt_unit_e_nutsIN18model_ef_namespace8model_efEN5boost6random23additive_combine_engineINS8_26linear_congruential_engineIjLj40014ELj0ELj2147483563EEENSA_IjLj40692ELj0ELj2147483399EEEEEEES6_SD_EEvRT_RT0_RSt6vectorIdSaIdEEiiiibRT1_RNS_9callbacks9interruptERNSP_6loggerERNSP_6writerESV_"
 "_ZN4stan8services4util20run_adaptive_samplerINS_4mcmc18adapt_dense_e_nutsIN18model_ef_namespace8model_efEN5boost6random23additive_combine_engineINS8_26linear_congruential_engineIjLj40014ELj0ELj2147483563EEENSA_IjLj40692ELj0ELj2147483399EEEEEEES6_SD_EEvRT_RT0_RSt6vectorIdSaIdEEiiiibRT1_RNS_9callbacks9interruptERNSP_6loggerERNSP_6writerESV_"
 "_ZN4stan8services4util20run_adaptive_samplerINS_4mcmc23adapt_diag_e_static_hmcIN18model_ef_namespace8model_efEN5boost6random23additive_combine_engineINS8_26linear_congruential_engineIjLj40014ELj0ELj2147483563EEENSA_IjLj40692ELj0ELj2147483399EEEEEEES6_SD_EEvRT_RT0_RSt6vectorIdSaIdEEiiiibRT1_RNS_9callbacks9interruptERNSP_6loggerERNSP_6writerESV_"
 "_ZN4stan8services4util20run_adaptive_samplerINS_4mcmc23adapt_unit_e_static_hmcIN18model_ef_namespace8model_efEN5boost6random23additive_combine_engineINS8_26linear_congruential_engineIjLj40014ELj0ELj2147483563EEENSA_IjLj40692ELj0ELj2147483399EEEEEEES6_SD_EEvRT_RT0_RSt6vectorIdSaIdEEiiiibRT1_RNS_9callbacks9interruptERNSP_6loggerERNSP_6writerESV_"
 "_ZN4stan8services4util20run_adaptive_samplerINS_4mcmc24adapt_dense_e_static_hmcIN18model_ef_namespace8model_efEN5boost6random23additive_combine_engineINS8_26linear_congruential_engineIjLj40014ELj0ELj2147483563EEENSA_IjLj40692ELj0ELj2147483399EEEEEEES6_SD_EEvRT_RT0_RSt6vectorIdSaIdEEiiiibRT1_RNS_9callbacks9interruptERNSP_6loggerERNSP_6writerESV_"
 "_ZN4stan8services4util21read_dense_inv_metricERNS_2io11var_contextEyRNS_9callbacks6loggerE"
 "_ZN4stan8services4util24validate_diag_inv_metricERKN5Eigen6MatrixIdLin1ELi1ELi0ELin1ELi1EEERNS_9callbacks6loggerE"
 "_ZN4stan8services4util25validate_dense_inv_metricERKN5Eigen6MatrixIdLin1ELin1ELi0ELin1ELin1EEERNS_9callbacks6loggerE"
 "_ZN4stan8services4util29create_unit_e_diag_inv_metricEy"
 "_ZN4stan8services4util30create_unit_e_dense_inv_metricEy"
 "_ZN4stan8services4util9gq_writer14write_gq_namesIN18model_ef_namespace8model_efEEEvRKT_"
 "_ZN4stan8services4util9gq_writer15write_gq_valuesIN18model_ef_namespace8model_efEN5boost6random23additive_combine_engineINS7_26linear_congruential_engineIjLj40014ELj0ELj2147483563EEENS9_IjLj40692ELj0ELj2147483399EEEEEEEvRKT_RT0_RKSt6vectorIdSaIdEE"
 "_ZN4stan8services4util9gq_writerC1ERNS_9callbacks6writerERNS3_6loggerEi"
 "_ZN4stan8services6sample11fixed_paramIN18model_ef_namespace8model_efEEEiRT_RNS_2io11var_contextEjjdiiiRNS_9callbacks9interruptERNSA_6loggerERNSA_6writerESG_SG_"
 "_ZN4stan8services6sample15hmc_nuts_diag_eIN18model_ef_namespace8model_efEEEiRT_RNS_2io11var_contextES9_jjdiiibiddiRNS_9callbacks9interruptERNSA_6loggerERNSA_6writerESG_SG_"
 "_ZN4stan8services6sample15hmc_nuts_diag_eIN18model_ef_namespace8model_efEEEiRT_RNS_2io11var_contextEjjdiiibiddiRNS_9callbacks9interruptERNSA_6loggerERNSA_6writerESG_SG_"
 "_ZN4stan8services6sample15hmc_nuts_unit_eIN18model_ef_namespace8model_efEEEiRT_RNS_2io11var_contextEjjdiiibiddiRNS_9callbacks9interruptERNSA_6loggerERNSA_6writerESG_SG_"
 "_ZN4stan8services6sample16hmc_nuts_dense_eIN18model_ef_namespace8model_efEEEiRT_RNS_2io11var_contextES9_jjdiiibiddiRNS_9callbacks9interruptERNSA_6loggerERNSA_6writerESG_SG_"
 "_ZN4stan8services6sample16hmc_nuts_dense_eIN18model_ef_namespace8model_efEEEiRT_RNS_2io11var_contextEjjdiiibiddiRNS_9callbacks9interruptERNSA_6loggerERNSA_6writerESG_SG_"
 "_ZN4stan8services6sample17hmc_static_diag_eIN18model_ef_namespace8model_efEEEiRT_RNS_2io11var_contextES9_jjdiiibidddRNS_9callbacks9interruptERNSA_6loggerERNSA_6writerESG_SG_"
 "_ZN4stan8services6sample17hmc_static_diag_eIN18model_ef_namespace8model_efEEEiRT_RNS_2io11var_contextEjjdiiibidddRNS_9callbacks9interruptERNSA_6loggerERNSA_6writerESG_SG_"
 "_ZN4stan8services6sample17hmc_static_unit_eIN18model_ef_namespace8model_efEEEiRT_RNS_2io11var_contextEjjdiiibidddRNS_9callbacks9interruptERNSA_6loggerERNSA_6writerESG_SG_"
 "_ZN4stan8services6sample18hmc_static_dense_eIN18model_ef_namespace8model_efEEEiRT_RNS_2io11var_contextES9_jjdiiibidddRNS_9callbacks9interruptERNSA_6loggerERNSA_6writerESG_SG_"
 "_ZN4stan8services6sample18hmc_static_dense_eIN18model_ef_namespace8model_efEEEiRT_RNS_2io11var_contextEjjdiiibidddRNS_9callbacks9interruptERNSA_6loggerERNSA_6writerESG_SG_"
 "_ZN4stan8services6sample21hmc_nuts_diag_e_adaptIN18model_ef_namespace8model_efEEEiRT_RNS_2io11var_contextES9_jjdiiibiddiddddjjjRNS_9callbacks9interruptERNSA_6loggerERNSA_6writerESG_SG_"
 "_ZN4stan8services6sample21hmc_nuts_diag_e_adaptIN18model_ef_namespace8model_efEEEiRT_RNS_2io11var_contextEjjdiiibiddiddddjjjRNS_9callbacks9interruptERNSA_6loggerERNSA_6writerESG_SG_"
 "_ZN4stan8services6sample21hmc_nuts_unit_e_adaptIN18model_ef_namespace8model_efEEEiRT_RNS_2io11var_contextEjjdiiibiddiddddRNS_9callbacks9interruptERNSA_6loggerERNSA_6writerESG_SG_"
 "_ZN4stan8services6sample22hmc_nuts_dense_e_adaptIN18model_ef_namespace8model_efEEEiRT_RNS_2io11var_contextES9_jjdiiibiddiddddjjjRNS_9callbacks9interruptERNSA_6loggerERNSA_6writerESG_SG_"
 "_ZN4stan8services6sample22hmc_nuts_dense_e_adaptIN18model_ef_namespace8model_efEEEiRT_RNS_2io11var_contextEjjdiiibiddiddddjjjRNS_9callbacks9interruptERNSA_6loggerERNSA_6writerESG_SG_"
 "_ZN4stan8services6sample23hmc_static_diag_e_adaptIN18model_ef_namespace8model_efEEEiRT_RNS_2io11var_contextES9_jjdiiibidddddddjjjRNS_9callbacks9interruptERNSA_6loggerERNSA_6writerESG_SG_"
 "_ZN4stan8services6sample23hmc_static_diag_e_adaptIN18model_ef_namespace8model_efEEEiRT_RNS_2io11var_contextEjjdiiibidddddddjjjRNS_9callbacks9interruptERNSA_6loggerERNSA_6writerESG_SG_"
 "_ZN4stan8services6sample23hmc_static_unit_e_adaptIN18model_ef_namespace8model_efEEEiRT_RNS_2io11var_contextEjjdiiibidddddddRNS_9callbacks9interruptERNSA_6loggerERNSA_6writerESG_SG_"
 "_ZN4stan8services6sample24hmc_static_dense_e_adaptIN18model_ef_namespace8model_efEEEiRT_RNS_2io11var_contextES9_jjdiiibidddddddjjjRNS_9callbacks9interruptERNSA_6loggerERNSA_6writerESG_SG_"
 "_ZN4stan8services6sample24hmc_static_dense_e_adaptIN18model_ef_namespace8model_efEEEiRT_RNS_2io11var_contextEjjdiiibidddddddjjjRNS_9callbacks9interruptERNSA_6loggerERNSA_6writerESG_SG_"
 "_ZN4stan8services8diagnose8diagnoseIN18model_ef_namespace8model_efEEEiRT_RNS_2io11var_contextEjjdddRNS_9callbacks9interruptERNSA_6loggerERNSA_6writerESG_"
 "_ZN4stan8services8optimize4bfgsIN18model_ef_namespace8model_efEEEiRT_RNS_2io11var_contextEjjdddddddibiRNS_9callbacks9interruptERNSA_6loggerERNSA_6writerESG_"
 "_ZN4stan8services8optimize5lbfgsIN18model_ef_namespace8model_efEEEiRT_RNS_2io11var_contextEjjdiddddddibiRNS_9callbacks9interruptERNSA_6loggerERNSA_6writerESG_"
 "_ZN4stan8services8optimize6newtonIN18model_ef_namespace8model_efEEEiRT_RNS_2io11var_contextEjjdibRNS_9callbacks9interruptERNSA_6loggerERNSA_6writerESG_"
 "_ZN4stan9callbacks13stream_logger4infoERKNSt7__cxx1112basic_stringIcSt11char_traitsIcESaIcEEE"
 "_ZN4stan9callbacks13stream_logger4infoERKNSt7__cxx1118basic_stringstreamIcSt11char_traitsIcESaIcEEE"
 "_ZN4stan9callbacks13stream_logger4warnERKNSt7__cxx1112basic_stringIcSt11char_traitsIcESaIcEEE"
 "_ZN4stan9callbacks13stream_logger4warnERKNSt7__cxx1118basic_stringstreamIcSt11char_traitsIcESaIcEEE"
 "_ZN4stan9callbacks13stream_logger5debugERKNSt7__cxx1112basic_stringIcSt11char_traitsIcESaIcEEE"
 "_ZN4stan9callbacks13stream_logger5debugERKNSt7__cxx1118basic_stringstreamIcSt11char_traitsIcESaIcEEE"
 "_ZN4stan9callbacks13stream_logger5errorERKNSt7__cxx1112basic_stringIcSt11char_traitsIcESaIcEEE"
 "_ZN4stan9callbacks13stream_logger5errorERKNSt7__cxx1118basic_stringstreamIcSt11char_traitsIcESaIcEEE"
 "_ZN4stan9callbacks13stream_logger5fatalERKNSt7__cxx1112basic_stringIcSt11char_traitsIcESaIcEEE"
 "_ZN4stan9callbacks13stream_logger5fatalERKNSt7__cxx1118basic_stringstreamIcSt11char_traitsIcESaIcEEE"
 "_ZN4stan9callbacks13stream_loggerC1ERSoS2_S2_S2_S2_"
 "_ZN4stan9callbacks13stream_loggerD0Ev"
 "_ZN4stan9callbacks13stream_loggerD1Ev"
 "_ZN4stan9callbacks13stream_writer12write_vectorINSt7__cxx1112basic_stringIcSt11char_traitsIcESaIcEEEEEvRKSt6vectorIT_SaISA_EE"
 "_ZN4stan9callbacks13stream_writer12write_vectorIdEEvRKSt6vectorIT_SaIS4_EE"
 "_ZN4stan9callbacks13stream_writerC1ERKS1_"
 "_ZN4stan9callbacks13stream_writerC1ERSoRKNSt7__cxx1112basic_stringIcSt11char_traitsIcESaIcEEE"
 "_ZN4stan9callbacks13stream_writerD0Ev"
 "_ZN4stan9callbacks13stream_writerD1Ev"
 "_ZN4stan9callbacks13stream_writerclERKNSt7__cxx1112basic_stringIcSt11char_traitsIcESaIcEEE"
 "_ZN4stan9callbacks13stream_writerclERKSt6vectorINSt7__cxx1112basic_stringIcSt11char_traitsIcESaIcEEESaIS8_EE"
 "_ZN4stan9callbacks13stream_writerclERKSt6vectorIdSaIdEE"
 "_ZN4stan9callbacks13stream_writerclEv"
 "_ZN4stan9callbacks27stream_logger_with_chain_id4infoERKNSt7__cxx1112basic_stringIcSt11char_traitsIcESaIcEEE"
 "_ZN4stan9callbacks27stream_logger_with_chain_id4infoERKNSt7__cxx1118basic_stringstreamIcSt11char_traitsIcESaIcEEE"
 "_ZN4stan9callbacks27stream_logger_with_chain_id4warnERKNSt7__cxx1112basic_stringIcSt11char_traitsIcESaIcEEE"
 "_ZN4stan9callbacks27stream_logger_with_chain_id4warnERKNSt7__cxx1118basic_stringstreamIcSt11char_traitsIcESaIcEEE"
 "_ZN4stan9callbacks27stream_logger_with_chain_id5debugERKNSt7__cxx1112basic_stringIcSt11char_traitsIcESaIcEEE"
 "_ZN4stan9callbacks27stream_logger_with_chain_id5debugERKNSt7__cxx1118basic_stringstreamIcSt11char_traitsIcESaIcEEE"
 "_ZN4stan9callbacks27stream_logger_with_chain_id5errorERKNSt7__cxx1112basic_stringIcSt11char_traitsIcESaIcEEE"
 "_ZN4stan9callbacks27stream_logger_with_chain_id5errorERKNSt7__cxx1118basic_stringstreamIcSt11char_traitsIcESaIcEEE"
 "_ZN4stan9callbacks27stream_logger_with_chain_id5fatalERKNSt7__cxx1112basic_stringIcSt11char_traitsIcESaIcEEE"
 "_ZN4stan9callbacks27stream_logger_with_chain_id5fatalERKNSt7__cxx1118basic_stringstreamIcSt11char_traitsIcESaIcEEE"
 "_ZN4stan9callbacks27stream_logger_with_chain_idC1ERSoS2_S2_S2_S2_i"
 "_ZN4stan9callbacks27stream_logger_with_chain_idD0Ev"
 "_ZN4stan9callbacks27stream_logger_with_chain_idD1Ev"
 "_ZN4stan9callbacks6logger4infoERKNSt7__cxx1112basic_stringIcSt11char_traitsIcESaIcEEE"
 "_ZN4stan9callbacks6logger4infoERKNSt7__cxx1118basic_stringstreamIcSt11char_traitsIcESaIcEEE"
 "_ZN4stan9callbacks6logger4warnERKNSt7__cxx1112basic_stringIcSt11char_traitsIcESaIcEEE"
 "_ZN4stan9callbacks6logger4warnERKNSt7__cxx1118basic_stringstreamIcSt11char_traitsIcESaIcEEE"
 "_ZN4stan9callbacks6logger5debugERKNSt7__cxx1112basic_stringIcSt11char_traitsIcESaIcEEE"
 "_ZN4stan9callbacks6logger5debugERKNSt7__cxx1118basic_stringstreamIcSt11char_traitsIcESaIcEEE"
 "_ZN4stan9callbacks6logger5errorERKNSt7__cxx1112basic_stringIcSt11char_traitsIcESaIcEEE"
 "_ZN4stan9callbacks6logger5errorERKNSt7__cxx1118basic_stringstreamIcSt11char_traitsIcESaIcEEE"
 "_ZN4stan9callbacks6logger5fatalERKNSt7__cxx1112basic_stringIcSt11char_traitsIcESaIcEEE"
 "_ZN4stan9callbacks6logger5fatalERKNSt7__cxx1118basic_stringstreamIcSt11char_traitsIcESaIcEEE"
 "_ZN4stan9callbacks6loggerC2Ev"
 "_ZN4stan9callbacks6loggerD0Ev"
 "_ZN4stan9callbacks6loggerD1Ev"
 "_ZN4stan9callbacks6loggerD2Ev"
 "_ZN4stan9callbacks6writerC2ERKS1_"
 "_ZN4stan9callbacks6writerC2Ev"
 "_ZN4stan9callbacks6writerD0Ev"
 "_ZN4stan9callbacks6writerD1Ev"
 "_ZN4stan9callbacks6writerD2Ev"
 "_ZN4stan9callbacks6writerclERKNSt7__cxx1112basic_stringIcSt11char_traitsIcESaIcEEE"
 "_ZN4stan9callbacks6writerclERKSt6vectorINSt7__cxx1112basic_stringIcSt11char_traitsIcESaIcEEESaIS8_EE"
 "_ZN4stan9callbacks6writerclERKSt6vectorIdSaIdEE"
 "_ZN4stan9callbacks6writerclEv"
 "_ZN4stan9callbacks9interruptD0Ev"
 "_ZN4stan9callbacks9interruptD1Ev"
 "_ZN4stan9callbacks9interruptD2Ev"
 "_ZN4stan9callbacks9interruptclEv"
 "_ZN5Eigen10MatrixBaseINS_12CwiseUnaryOpINS0_INS_6MatrixIN4stan4math3varELin1ELi1ELi0ELin1ELi1EEEE5vi_OpEKS6_EEEC2Ev"
 "_ZN5Eigen10MatrixBaseINS_12CwiseUnaryOpINS0_INS_6MatrixIN4stan4math3varELin1ELi1ELi0ELin1ELi1EEEE6val_OpEKS6_EEEC2Ev"
 "_ZN5Eigen10MatrixBaseINS_12CwiseUnaryOpINS_8internal13scalar_abs_opIdEEKNS_5BlockINS5_INS_6MatrixIdLin1ELin1ELi0ELin1ELin1EEELi1ELin1ELb0EEELi1ELin1ELb0EEEEEEC2Ev"
 "_ZN5Eigen10MatrixBaseINS_12CwiseUnaryOpINS_8internal13scalar_abs_opIdEEKNS_5BlockINS5_INS_6MatrixIdLin1ELin1ELi0ELin1ELin1EEELin1ELi1ELb1EEELin1ELi1ELb0EEEEEEC2Ev"
 "_ZN5Eigen10MatrixBaseINS_12CwiseUnaryOpINS_8internal13scalar_abs_opIdEEKNS_5BlockINS_8DiagonalINS_6MatrixIdLin1ELin1ELi0ELin1ELin1EEELi0EEELin1ELi1ELb0EEEEEEC2Ev"
 "_ZN5Eigen10MatrixBaseINS_12CwiseUnaryOpINS_8internal13scalar_abs_opIdEEKNS_6MatrixIdLin1ELin1ELi0ELin1ELin1EEEEEEC2Ev"
 "_ZN5Eigen10MatrixBaseINS_12CwiseUnaryOpINS_8internal14scalar_abs2_opIdEEKNS_5BlockIKNS5_INS5_INS_6MatrixIdLin1ELin1ELi0ELin1ELin1EEELin1ELi1ELb1EEELin1ELi1ELb0EEELin1ELi1ELb0EEEEEEC2Ev"
 "_ZN5Eigen10MatrixBaseINS_12CwiseUnaryOpINS_8internal14scalar_abs2_opIdEEKNS_5BlockINS5_INS_6MatrixIdLin1ELin1ELi0ELin1ELin1EEELin1ELin1ELb0EEELi1ELin1ELb0EEEEEEC2Ev"
 "_ZN5Eigen10MatrixBaseINS_12CwiseUnaryOpINS_8internal14scalar_abs2_opIdEEKNS_5BlockINS_6MatrixIdLin1ELin1ELi0ELin1ELin1EEELi1ELin1ELb0EEEEEEC2Ev"
 "_ZN5Eigen10MatrixBaseINS_12CwiseUnaryOpINS_8internal14scalar_abs2_opIdEEKNS_6MatrixIdLin1ELi1ELi0ELin1ELi1EEEEEEC2Ev"
 "_ZN5Eigen10MatrixBaseINS_12CwiseUnaryOpINS_8internal18scalar_opposite_opIdEEKNS_6MatrixIdLin1ELi1ELi0ELin1ELi1EEEEEEC2Ev"
 "_ZN5Eigen10MatrixBaseINS_12CwiseUnaryOpINS_8internal18scalar_opposite_opIdEEKNS_7ProductINS_6MatrixIdLin1ELin1ELi0ELin1ELin1EEENS6_IdLin1ELi1ELi0ELin1ELi1EEELi0EEEEEEC2Ev"
 "_ZN5Eigen10MatrixBaseINS_12CwiseUnaryOpIZN4stan4math17multiply_mat_variIdLin1ELin1ENS3_3varELi1EEC4ERKNS_6MatrixIdLin1ELin1ELi0ELin1ELin1EEERKNS7_IS5_Lin1ELi1ELi0ELin1ELi1EEEEUldE_KNS_7ProductINS_3MapIS8_Li0ENS_6StrideILi0ELi0EEEEESJ_Li0EEEEEEC2Ev"
 "_ZN5Eigen10MatrixBaseINS_12CwiseUnaryOpIZN4stan4math18apply_scalar_unaryINS3_7exp_funENS_6MatrixINS3_3varELin1ELi1ELi0ELin1ELi1EEEE5applyERKS8_EUlS7_E_SA_EEEC2Ev"
 "_ZN5Eigen10MatrixBaseINS_12CwiseUnaryOpIZN4stan4math18apply_scalar_unaryINS3_7exp_funENS_6MatrixIdLin1ELi1ELi0ELin1ELi1EEEE5applyERKS7_EUldE_S9_EEEC2Ev"
 "_ZN5Eigen10MatrixBaseINS_12CwiseUnaryOpIZN4stan4math18apply_scalar_unaryINS3_7log_funENS_6MatrixINS3_3varELin1ELi1ELi0ELin1ELi1EEEE5applyERKS8_EUlS7_E_SA_EEEC2Ev"
 "_ZN5Eigen10MatrixBaseINS_12CwiseUnaryOpIZN4stan4math18apply_scalar_unaryINS3_7log_funENS_6MatrixIdLin1ELi1ELi0ELin1ELi1EEEE5applyERKS7_EUldE_S9_EEEC2Ev"
 "_ZN5Eigen10MatrixBaseINS_13CwiseBinaryOpINS_8internal13scalar_sum_opIddEEKNS1_INS2_17scalar_product_opIddEEKNS_14CwiseNullaryOpINS2_18scalar_constant_opIdEEKNS_6MatrixIdLin1ELi1ELi0ELin1ELi1EEEEEKNS_5BlockIKNSF_ISB_Lin1ELi1ELb0EEELin1ELi1ELb0EEEEEKNS1_IS6_SE_KNSF_IKNSF_INSF_INSA_IdLin1ELin1ELi0ELin1ELin1EEELin1ELi1ELb1EEELin1ELi1ELb0EEELin1ELi1ELb0EEEEEEEEC2Ev"
 "_ZN5Eigen10MatrixBaseINS_13CwiseBinaryOpINS_8internal13scalar_sum_opIddEEKNS1_INS2_17scalar_product_opIddEEKNS_14CwiseNullaryOpINS2_18scalar_constant_opIdEEKNS_6MatrixIdLin1ELi1ELi0ELin1ELi1EEEEESC_EEKNS1_IS6_SE_KNS7_IS9_SB_EEEEEEEC2Ev"
 "_ZN5Eigen10MatrixBaseINS_13CwiseBinaryOpINS_8internal13scalar_sum_opIddEEKNS1_INS2_17scalar_product_opIddEEKNS_14CwiseNullaryOpINS2_18scalar_constant_opIdEEKNS_6MatrixIdLin1ELin1ELi0ELin1ELin1EEEEESC_EEKNS1_IS6_SE_KNS7_INS2_18scalar_identity_opIdEESB_EEEEEEEC2Ev"
 "_ZN5Eigen10MatrixBaseINS_13CwiseBinaryOpINS_8internal13scalar_sum_opIddEEKNS_6MatrixIdLin1ELi1ELi0ELin1ELi1EEEKNS1_INS2_17scalar_product_opIddEEKNS_14CwiseNullaryOpINS2_18scalar_constant_opIdEES7_EES7_EEEEEC2Ev"
 "_ZN5Eigen10MatrixBaseINS_13CwiseBinaryOpINS_8internal13scalar_sum_opIddEEKNS_7ProductINS_6MatrixIdLin1ELin1ELi0ELin1ELin1EEENS6_IdLin1ELi1ELi0ELin1ELi1EEELi0EEEKS8_EEEC2Ev"
 "_ZN5Eigen10MatrixBaseINS_13CwiseBinaryOpINS_8internal17scalar_product_opIN4stan4math3varES6_EEKNS_6MatrixIS6_Lin1ELi1ELi0ELin1ELi1EEESA_EEEC2Ev"
 "_ZN5Eigen10MatrixBaseINS_13CwiseBinaryOpINS_8internal17scalar_product_opIddEEKNS_14CwiseNullaryOpINS2_18scalar_constant_opIdEEKNS_6MatrixIdLi1ELin1ELi1ELi1ELin1EEEEESA_EEEC2Ev"
 "_ZN5Eigen10MatrixBaseINS_13CwiseBinaryOpINS_8internal17scalar_product_opIddEEKNS_14CwiseNullaryOpINS2_18scalar_constant_opIdEEKNS_6MatrixIdLin1ELi1ELi0ELin1ELi1EEEEEKNS5_IS7_S9_EEEEEC2Ev"
 "_ZN5Eigen10MatrixBaseINS_13CwiseBinaryOpINS_8internal17scalar_product_opIddEEKNS_14CwiseNullaryOpINS2_18scalar_constant_opIdEEKNS_6MatrixIdLin1ELi1ELi0ELin1ELi1EEEEEKNS_5BlockIKNSD_INSD_INS8_IdLin1ELin1ELi0ELin1ELin1EEELin1ELi1ELb1EEELin1ELi1ELb0EEELin1ELi1ELb0EEEEEEC2Ev"
 "_ZN5Eigen10MatrixBaseINS_13CwiseBinaryOpINS_8internal17scalar_product_opIddEEKNS_14CwiseNullaryOpINS2_18scalar_constant_opIdEEKNS_6MatrixIdLin1ELi1ELi0ELin1ELi1EEEEEKNS_5BlockIKNSD_IS9_Lin1ELi1ELb0EEELin1ELi1ELb0EEEEEEC2Ev"
 "_ZN5Eigen10MatrixBaseINS_13CwiseBinaryOpINS_8internal17scalar_product_opIddEEKNS_14CwiseNullaryOpINS2_18scalar_constant_opIdEEKNS_6MatrixIdLin1ELi1ELi0ELin1ELi1EEEEEKNS_5BlockINSD_INS8_IdLin1ELin1ELi0ELin1ELin1EEELin1ELi1ELb1EEELin1ELi1ELb0EEEEEEC2Ev"
 "_ZN5Eigen10MatrixBaseINS_13CwiseBinaryOpINS_8internal17scalar_product_opIddEEKNS_14CwiseNullaryOpINS2_18scalar_constant_opIdEEKNS_6MatrixIdLin1ELi1ELi0ELin1ELi1EEEEESA_EEEC2Ev"
 "_ZN5Eigen10MatrixBaseINS_13CwiseBinaryOpINS_8internal17scalar_product_opIddEEKNS_14CwiseNullaryOpINS2_18scalar_constant_opIdEEKNS_6MatrixIdLin1ELin1ELi0ELin1ELin1EEEEEKNS5_INS2_18scalar_identity_opIdEES9_EEEEEC2Ev"
 "_ZN5Eigen10MatrixBaseINS_13CwiseBinaryOpINS_8internal17scalar_product_opIddEEKNS_14CwiseNullaryOpINS2_18scalar_constant_opIdEEKNS_6MatrixIdLin1ELin1ELi0ELin1ELin1EEEEESA_EEEC2Ev"
 "_ZN5Eigen10MatrixBaseINS_13CwiseBinaryOpINS_8internal17scalar_product_opIddEEKNS_6MatrixIdLin1ELi1ELi0ELin1ELi1EEEKNS1_INS2_20scalar_difference_opIddEES7_S7_EEEEEC2Ev"
 "_ZN5Eigen10MatrixBaseINS_13CwiseBinaryOpINS_8internal17scalar_product_opIddEEKNS_6MatrixIdLin1ELi1ELi0ELin1ELi1EEES7_EEEC2Ev"
 "_ZN5Eigen10MatrixBaseINS_13CwiseBinaryOpINS_8internal17scalar_product_opIddEEKNS_9TransposeIKNS_3MapINS_6MatrixIdLi1ELin1ELi1ELi1ELin1EEELi0ENS_6StrideILi0ELi0EEEEEEEKNS6_INS7_IdLin1ELi1ELi0ELin1ELi1EEELi0ESA_EEEEEC2Ev"
 "_ZN5Eigen10MatrixBaseINS_13CwiseBinaryOpINS_8internal17scalar_product_opIddEEKNS_9TransposeIKNS_5BlockINS_6MatrixIdLin1ELin1ELi0ELin1ELin1EEELi1ELin1ELb0EEEEEKNS6_INS7_IdLin1ELi1ELi0ELin1ELi1EEELin1ELi1ELb0EEEEEEC2Ev"
 "_ZN5Eigen10MatrixBaseINS_13CwiseBinaryOpINS_8internal18scalar_quotient_opIddEEKNS_5BlockIKNS5_INS5_INS_6MatrixIdLin1ELin1ELi0ELin1ELin1EEELin1ELi1ELb1EEELin1ELi1ELb0EEELin1ELi1ELb0EEEKNS_14CwiseNullaryOpINS2_18scalar_constant_opIdEEKNS6_IdLin1ELi1ELi0ELin1ELi1EEEEEEEEC2Ev"
 "_ZN5Eigen10MatrixBaseINS_13CwiseBinaryOpINS_8internal18scalar_quotient_opIddEEKNS_6MatrixIdLin1ELi1ELi0ELin1ELi1EEEKNS_14CwiseNullaryOpINS2_18scalar_constant_opIdEES7_EEEEEC2Ev"
 "_ZN5Eigen10MatrixBaseINS_13CwiseBinaryOpINS_8internal18scalar_quotient_opIddEEKNS_6MatrixIdLin1ELin1ELi0ELin1ELin1EEEKNS_14CwiseNullaryOpINS2_18scalar_constant_opIdEES7_EEEEEC2Ev"
 "_ZN5Eigen10MatrixBaseINS_13CwiseBinaryOpINS_8internal20scalar_difference_opIN4stan4math3varEdEEKNS_6MatrixIS6_Lin1ELi1ELi0ELin1ELi1EEEKNS8_IdLin1ELi1ELi0ELin1ELi1EEEEEEC2Ev"
 "_ZN5Eigen10MatrixBaseINS_13CwiseBinaryOpINS_8internal20scalar_difference_opIddEEKNS_14CwiseNullaryOpINS2_18scalar_identity_opIdEENS_6MatrixIdLin1ELin1ELi0ELin1ELin1EEEEEKNS_7ProductINS1_INS2_17scalar_product_opIddEEKNS5_INS2_18scalar_constant_opIdEEKNS8_IdLin1ELi1ELi0ELin1ELi1EEEEESI_EENS_9TransposeISI_EELi0EEEEEEC2Ev"
 "_ZN5Eigen10MatrixBaseINS_13CwiseBinaryOpINS_8internal20scalar_difference_opIddEEKNS_6MatrixIdLin1ELi1ELi0ELin1ELi1EEES7_EEEC2Ev"
 "_ZN5Eigen10MatrixBaseINS_13CwiseBinaryOpINS_8internal22scalar_conj_product_opIddEEKNS_5BlockINS_6MatrixIdLin1ELi1ELi0ELin1ELi1EEELin1ELi1ELb0EEEKNS5_INS5_INS6_IdLin1ELin1ELi0ELin1ELin1EEELin1ELi1ELb1EEELin1ELi1ELb0EEEEEEC2Ev"
 "_ZN5Eigen10MatrixBaseINS_13CwiseBinaryOpINS_8internal22scalar_conj_product_opIddEEKNS_6MatrixIdLin1ELi1ELi0ELin1ELi1EEES7_EEEC2Ev"
 "_ZN5Eigen10MatrixBaseINS_13CwiseBinaryOpINS_8internal22scalar_conj_product_opIddEEKNS_9TransposeIKNS_6MatrixIdLi1ELin1ELi1ELi1ELin1EEEEEKNS6_IdLin1ELi1ELi0ELin1ELi1EEEEEEC2Ev"
 "_ZN5Eigen10MatrixBaseINS_14CwiseNullaryOpINS_8internal18scalar_constant_opIN4stan4math3varEEENS_6MatrixIS6_Lin1ELi1ELi0ELin1ELi1EEEEEEC2Ev"
 "_ZN5Eigen10MatrixBaseINS_14CwiseNullaryOpINS_8internal18scalar_constant_opIdEEKNS_6MatrixIdLi1ELin1ELi1ELi1ELin1EEEEEEC2Ev"
 "_ZN5Eigen10MatrixBaseINS_14CwiseNullaryOpINS_8internal18scalar_constant_opIdEEKNS_6MatrixIdLin1ELi1ELi0ELin1ELi1EEEEEEC2Ev"
 "_ZN5Eigen10MatrixBaseINS_14CwiseNullaryOpINS_8internal18scalar_constant_opIdEEKNS_6MatrixIdLin1ELin1ELi0ELin1ELin1EEEEEEC2Ev"
 "_ZN5Eigen10MatrixBaseINS_14CwiseNullaryOpINS_8internal18scalar_constant_opIdEENS_6MatrixIdLi4ELi4ELi0ELi4ELi4EEEEEEC2Ev"
 "_ZN5Eigen10MatrixBaseINS_14CwiseNullaryOpINS_8internal18scalar_constant_opIdEENS_6MatrixIdLin1ELi1ELi0ELin1ELi1EEEEEEC2Ev"
 "_ZN5Eigen10MatrixBaseINS_14CwiseNullaryOpINS_8internal18scalar_constant_opIdEENS_6MatrixIdLin1ELin1ELi0ELin1ELin1EEEEEEC2Ev"
 "_ZN5Eigen10MatrixBaseINS_14CwiseNullaryOpINS_8internal18scalar_identity_opIdEENS_6MatrixIdLin1ELin1ELi0ELin1ELin1EEEEEEC2Ev"
 "_ZN5Eigen10MatrixBaseINS_14CwiseUnaryViewINS0_INS_3MapINS_6MatrixIPN4stan4math4variELin1ELi1ELi0ELin1ELi1EEELi0ENS_6StrideILi0ELi0EEEEEE6adj_OpESB_EEEC2Ev"
 "_ZN5Eigen10MatrixBaseINS_14CwiseUnaryViewINS0_INS_3MapINS_6MatrixIPN4stan4math4variELin1ELin1ELi0ELin1ELin1EEELi0ENS_6StrideILi0ELi0EEEEEE6adj_OpESB_EEEC2Ev"
 "_ZN5Eigen10MatrixBaseINS_14CwiseUnaryViewINS0_INS_6MatrixIN4stan4math3varELin1ELi1ELi0ELin1ELi1EEEE5vi_OpES6_EEEC2Ev"
 "_ZN5Eigen10MatrixBaseINS_14CwiseUnaryViewINS0_INS_6MatrixIN4stan4math3varELin1ELi1ELi0ELin1ELi1EEEE5vi_OpES6_EEEaSINS_3MapINS2_IPNS4_4variELin1ELin1ELi0ELin1ELin1EEELi0ENS_6StrideILi0ELi0EEEEEEERS9_RKNS_9DenseBaseIT_EE"
 "_ZN5Eigen10MatrixBaseINS_14CwiseUnaryViewINS0_INS_6MatrixIN4stan4math3varELin1ELi1ELi0ELin1ELi1EEEE6adj_OpES6_EEEC2Ev"
 "_ZN5Eigen10MatrixBaseINS_3MapIKNS_6MatrixIdLin1ELin1ELi0ELin1ELin1EEELi0ENS_6StrideILi0ELi0EEEEEEC2Ev"
 "_ZN5Eigen10MatrixBaseINS_3MapINS_6MatrixIN4stan4math3varELin1ELi1ELi0ELin1ELi1EEELi0ENS_6StrideILi0ELi0EEEEEEC2Ev"
 "_ZN5Eigen10MatrixBaseINS_3MapINS_6MatrixIPN4stan4math4variELin1ELi1ELi0ELin1ELi1EEELi0ENS_6StrideILi0ELi0EEEEEE3adjEv"
 "_ZN5Eigen10MatrixBaseINS_3MapINS_6MatrixIPN4stan4math4variELin1ELi1ELi0ELin1ELi1EEELi0ENS_6StrideILi0ELi0EEEEEE6adj_OpC1ERKSC_"
 "_ZN5Eigen10MatrixBaseINS_3MapINS_6MatrixIPN4stan4math4variELin1ELi1ELi0ELin1ELi1EEELi0ENS_6StrideILi0ELi0EEEEEE6adj_OpC1Ev"
 "_ZN5Eigen10MatrixBaseINS_3MapINS_6MatrixIPN4stan4math4variELin1ELi1ELi0ELin1ELi1EEELi0ENS_6StrideILi0ELi0EEEEEEC2Ev"
 "_ZN5Eigen10MatrixBaseINS_3MapINS_6MatrixIPN4stan4math4variELin1ELi1ELi0ELin1ELi1EEELi0ENS_6StrideILi0ELi0EEEEEEaSINS_12CwiseUnaryOpINS0_INS2_INS4_3varELin1ELi1ELi0ELin1ELi1EEEE5vi_OpEKSF_EEEERSA_RKNS_9DenseBaseIT_EE"
 "_ZN5Eigen10MatrixBaseINS_3MapINS_6MatrixIPN4stan4math4variELin1ELin1ELi0ELin1ELin1EEELi0ENS_6StrideILi0ELi0EEEEEE3adjEv"
 "_ZN5Eigen10MatrixBaseINS_3MapINS_6MatrixIPN4stan4math4variELin1ELin1ELi0ELin1ELin1EEELi0ENS_6StrideILi0ELi0EEEEEE6adj_OpC1ERKSC_"
 "_ZN5Eigen10MatrixBaseINS_3MapINS_6MatrixIPN4stan4math4variELin1ELin1ELi0ELin1ELin1EEELi0ENS_6StrideILi0ELi0EEEEEE6adj_OpC1Ev"
 "_ZN5Eigen10MatrixBaseINS_3MapINS_6MatrixIPN4stan4math4variELin1ELin1ELi0ELin1ELin1EEELi0ENS_6StrideILi0ELi0EEEEEEC2Ev"
 "_ZN5Eigen10MatrixBaseINS_3MapINS_6MatrixIPN4stan4math4variELin1ELin1ELi0ELin1ELin1EEELi0ENS_6StrideILi0ELi0EEEEEEaSINS_12CwiseUnaryOpINS0_INS2_INS4_3varELin1ELi1ELi0ELin1ELi1EEEE5vi_OpEKSF_EEEERSA_RKNS_9DenseBaseIT_EE"
 "_ZN5Eigen10MatrixBaseINS_3MapINS_6MatrixIPN4stan4math4variELin1ELin1ELi0ELin1ELin1EEELi0ENS_6StrideILi0ELi0EEEEEEaSINS_12CwiseUnaryOpIZNS4_17multiply_mat_variIdLin1ELin1ENS4_3varELi1EEC4ERKNS2_IdLin1ELin1ELi0ELin1ELin1EEERKNS2_ISF_Lin1ELi1ELi0ELin1ELi1EEEEUldE_KNS_7ProductINS1_ISH_Li0ES9_EESP_Li0EEEEEEERSA_RKNS_9DenseBaseIT_EE"
 "_ZN5Eigen10MatrixBaseINS_3MapINS_6MatrixIdLi1ELin1ELi1ELi1ELin1EEELi0ENS_6StrideILi0ELi0EEEEEEC2Ev"
 "_ZN5Eigen10MatrixBaseINS_3MapINS_6MatrixIdLi1ELin1ELi1ELi1ELin1EEELi0ENS_6StrideILi0ELi0EEEEEEaSIS3_EERS6_RKNS_9DenseBaseIT_EE"
 "_ZN5Eigen10MatrixBaseINS_3MapINS_6MatrixIdLin1ELi1ELi0ELin1ELi1EEELi0ENS_6StrideILi0ELi0EEEEEEC2Ev"
 "_ZN5Eigen10MatrixBaseINS_3MapINS_6MatrixIdLin1ELi1ELi0ELin1ELi1EEELi0ENS_6StrideILi0ELi0EEEEEEaSINS_12CwiseUnaryOpINS0_INS2_IN4stan4math3varELin1ELi1ELi0ELin1ELi1EEEE6val_OpEKSD_EEEERS6_RKNS_9DenseBaseIT_EE"
 "_ZN5Eigen10MatrixBaseINS_3MapINS_6MatrixIdLin1ELi1ELi0ELin1ELi1EEELi0ENS_6StrideILi0ELi0EEEEEEaSINS_14CwiseNullaryOpINS_8internal18scalar_constant_opIdEES3_EEEERS6_RKNS_9DenseBaseIT_EE"
 "_ZN5Eigen10MatrixBaseINS_3MapINS_6MatrixIdLin1ELi1ELi0ELin1ELi1EEELi0ENS_6StrideILi0ELi0EEEEEEpLINS_13CwiseBinaryOpINS_8internal13scalar_sum_opIddEEKNS9_INSA_17scalar_product_opIddEEKNS_14CwiseNullaryOpINSA_18scalar_constant_opIdEEKS3_EEKNS_5BlockIKNSL_IS3_Lin1ELi1ELb0EEELin1ELi1ELb0EEEEEKNS9_ISE_SK_KNSL_IKNSL_INSL_INS2_IdLin1ELin1ELi0ELin1ELin1EEELin1ELi1ELb1EEELin1ELi1ELb0EEELin1ELi1ELb0EEEEEEEEERS6_RKNS0_IT_EE"
 "_ZN5Eigen10MatrixBaseINS_3MapINS_6MatrixIdLin1ELin1ELi0ELin1ELin1EEELi0ENS_6StrideILi0ELi0EEEEEE15applyOnTheRightIdEEvxxRKNS_14JacobiRotationIT_EE"
 "_ZN5Eigen10MatrixBaseINS_3MapINS_6MatrixIdLin1ELin1ELi0ELin1ELin1EEELi0ENS_6StrideILi0ELi0EEEEEEC2Ev"
 "_ZN5Eigen10MatrixBaseINS_3MapINS_6MatrixIdLin1ELin1ELi0ELin1ELin1EEELi0ENS_6StrideILi0ELi0EEEEEEaSINS_12CwiseUnaryOpINS0_INS2_IN4stan4math3varELin1ELi1ELi0ELin1ELi1EEEE6val_OpEKSD_EEEERS6_RKNS_9DenseBaseIT_EE"
 "_ZN5Eigen10MatrixBaseINS_3MapINS_6MatrixIdLin1ELin1ELi0ELin1ELin1EEELi0ENS_6StrideILi0ELi0EEEEEEaSIS3_EERS6_RKNS_9DenseBaseIT_EE"
 "_ZN5Eigen10MatrixBaseINS_5BlockIKNS1_INS1_INS_6MatrixIdLin1ELin1ELi0ELin1ELin1EEELin1ELi1ELb1EEELin1ELi1ELb0EEELin1ELi1ELb0EEEEC2Ev"
 "_ZN5Eigen10MatrixBaseINS_5BlockIKNS1_INS_6MatrixIdLin1ELi1ELi0ELin1ELi1EEELin1ELi1ELb0EEELin1ELi1ELb0EEEEC2Ev"
 "_ZN5Eigen10MatrixBaseINS_5BlockIKNS_6MatrixIdLin1ELin1ELi0ELin1ELin1EEELi1ELin1ELb0EEEEC2Ev"
 "_ZN5Eigen10MatrixBaseINS_5BlockIKNS_6MatrixIdLin1ELin1ELi0ELin1ELin1EEELin1ELi1ELb1EEEEC2Ev"
 "_ZN5Eigen10MatrixBaseINS_5BlockINS1_INS1_INS_6MatrixIdLin1ELin1ELi0ELin1ELin1EEELin1ELi1ELb1EEELin1ELi1ELb0EEELin1ELi1ELb0EEEEC2Ev"
 "_ZN5Eigen10MatrixBaseINS_5BlockINS1_INS1_INS_6MatrixIdLin1ELin1ELi0ELin1ELin1EEELin1ELi1ELb1EEELin1ELi1ELb0EEELin1ELi1ELb0EEEEaSINS_13CwiseBinaryOpINS_8internal18scalar_quotient_opIddEEKNS1_IKS5_Lin1ELi1ELb0EEEKNS_14CwiseNullaryOpINSA_18scalar_constant_opIdEEKNS2_IdLin1ELi1ELi0ELin1ELi1EEEEEEEEERS6_RKNS_9DenseBaseIT_EE"
 "_ZN5Eigen10MatrixBaseINS_5BlockINS1_INS1_INS_6MatrixIdLin1ELin1ELi0ELin1ELin1EEELin1ELi1ELb1EEELin1ELi1ELb0EEELin1ELi1ELb0EEEEaSINS_14CwiseNullaryOpINS_8internal18scalar_constant_opIdEENS2_IdLin1ELi1ELi0ELin1ELi1EEEEEEERS6_RKNS_9DenseBaseIT_EE"
 "_ZN5Eigen10MatrixBaseINS_5BlockINS1_INS_6MatrixIdLin1ELin1ELi0ELin1ELin1EEELi1ELin1ELb0EEELi1ELin1ELb0EEEEC2Ev"
 "_ZN5Eigen10MatrixBaseINS_5BlockINS1_INS_6MatrixIdLin1ELin1ELi0ELin1ELin1EEELin1ELi1ELb1EEELin1ELi1ELb0EEEE22makeHouseholderInPlaceERdS7_"
 "_ZN5Eigen10MatrixBaseINS_5BlockINS1_INS_6MatrixIdLin1ELin1ELi0ELin1ELin1EEELin1ELi1ELb1EEELin1ELi1ELb0EEEE5arrayEv"
 "_ZN5Eigen10MatrixBaseINS_5BlockINS1_INS_6MatrixIdLin1ELin1ELi0ELin1ELin1EEELin1ELi1ELb1EEELin1ELi1ELb0EEEEC2Ev"
 "_ZN5Eigen10MatrixBaseINS_5BlockINS1_INS_6MatrixIdLin1ELin1ELi0ELin1ELin1EEELin1ELin1ELb0EEELi1ELin1ELb0EEEEC2Ev"
 "_ZN5Eigen10MatrixBaseINS_5BlockINS1_INS_6MatrixIdLin1ELin1ELi0ELin1ELin1EEELin1ELin1ELb0EEELin1ELi1ELb0EEEE7noaliasEv"
 "_ZN5Eigen10MatrixBaseINS_5BlockINS1_INS_6MatrixIdLin1ELin1ELi0ELin1ELin1EEELin1ELin1ELb0EEELin1ELi1ELb0EEEEC2Ev"
 "_ZN5Eigen10MatrixBaseINS_5BlockINS1_INS_6MatrixIdLin1ELin1ELi0ELin1ELin1EEELin1ELin1ELb0EEELin1ELin1ELb0EEEEC2Ev"
 "_ZN5Eigen10MatrixBaseINS_5BlockINS_3MapINS_6MatrixIdLin1ELin1ELi0ELin1ELin1EEELi0ENS_6StrideILi0ELi0EEEEELin1ELi1ELb1EEEEC2Ev"
 "_ZN5Eigen10MatrixBaseINS_5BlockINS_6MatrixIdLin1ELi1ELi0ELin1ELi1EEELin1ELi1ELb0EEEE7noaliasEv"
 "_ZN5Eigen10MatrixBaseINS_5BlockINS_6MatrixIdLin1ELi1ELi0ELin1ELi1EEELin1ELi1ELb0EEEEC2Ev"
 "_ZN5Eigen10MatrixBaseINS_5BlockINS_6MatrixIdLin1ELi1ELi0ELin1ELi1EEELin1ELi1ELb0EEEEaSINS_14CwiseNullaryOpINS_8internal18scalar_constant_opIdEES3_EEEERS4_RKNS_9DenseBaseIT_EE"
 "_ZN5Eigen10MatrixBaseINS_5BlockINS_6MatrixIdLin1ELi1ELi0ELin1ELi1EEELin1ELi1ELb0EEEEaSINS_7ProductINS_15DiagonalWrapperIKNS1_INS_8DiagonalINS2_IdLin1ELin1ELi0ELin1ELin1EEELi0EEELin1ELi1ELb0EEEEENS_9TransposeIKNS1_ISA_Li1ELin1ELb0EEEEELi1EEEEERS4_RKNS_9DenseBaseIT_EE"
 "_ZN5Eigen10MatrixBaseINS_5BlockINS_6MatrixIdLin1ELi1ELi0ELin1ELi1EEELin1ELi1ELb0EEEEpLINS_13CwiseBinaryOpINS_8internal17scalar_product_opIddEEKNS_14CwiseNullaryOpINS8_18scalar_constant_opIdEEKS3_EEKNS1_INS1_INS2_IdLin1ELin1ELi0ELin1ELin1EEELin1ELi1ELb1EEELin1ELi1ELb0EEEEEEERS4_RKNS0_IT_EE"
 "_ZN5Eigen10MatrixBaseINS_5BlockINS_6MatrixIdLin1ELin1ELi0ELin1ELin1EEELi1ELin1ELb0EEEEC2Ev"
 "_ZN5Eigen10MatrixBaseINS_5BlockINS_6MatrixIdLin1ELin1ELi0ELin1ELin1EEELin1ELi1ELb0EEEE5arrayEv"
 "_ZN5Eigen10MatrixBaseINS_5BlockINS_6MatrixIdLin1ELin1ELi0ELin1ELin1EEELin1ELi1ELb0EEEE7noaliasEv"
 "_ZN5Eigen10MatrixBaseINS_5BlockINS_6MatrixIdLin1ELin1ELi0ELin1ELin1EEELin1ELi1ELb0EEEEC2Ev"
 "_ZN5Eigen10MatrixBaseINS_5BlockINS_6MatrixIdLin1ELin1ELi0ELin1ELin1EEELin1ELi1ELb1EEEEC2Ev"
 "_ZN5Eigen10MatrixBaseINS_5BlockINS_6MatrixIdLin1ELin1ELi0ELin1ELin1EEELin1ELi1ELb1EEEEaSINS_13CwiseBinaryOpINS_8internal17scalar_product_opIddEEKNS_14CwiseNullaryOpINS8_18scalar_constant_opIdEEKNS2_IdLin1ELi1ELi0ELin1ELi1EEEEESF_EEEERS4_RKNS_9DenseBaseIT_EE"
 "_ZN5Eigen10MatrixBaseINS_5BlockINS_6MatrixIdLin1ELin1ELi0ELin1ELin1EEELin1ELi1ELb1EEEEmIINS_13CwiseBinaryOpINS_8internal17scalar_product_opIddEEKNS_14CwiseNullaryOpINS8_18scalar_constant_opIdEEKNS2_IdLin1ELi1ELi0ELin1ELi1EEEEESF_EEEERS4_RKNS0_IT_EE"
 "_ZN5Eigen10MatrixBaseINS_5BlockINS_6MatrixIdLin1ELin1ELi0ELin1ELin1EEELin1ELi1ELb1EEEEpLINS_13CwiseBinaryOpINS_8internal17scalar_product_opIddEEKNS_14CwiseNullaryOpINS8_18scalar_constant_opIdEEKNS2_IdLin1ELi1ELi0ELin1ELi1EEEEESF_EEEERS4_RKNS0_IT_EE"
 "_ZN5Eigen10MatrixBaseINS_5BlockINS_6MatrixIdLin1ELin1ELi0ELin1ELin1EEELin1ELin1ELb0EEEE15selfadjointViewILj1EEENS5_25SelfAdjointViewReturnTypeIXT_EE4TypeEv"
 "_ZN5Eigen10MatrixBaseINS_5BlockINS_6MatrixIdLin1ELin1ELi0ELin1ELin1EEELin1ELin1ELb0EEEE25applyHouseholderOnTheLeftINS1_IKS3_Lin1ELi1ELb0EEEEEvRKT_RKdPd"
 "_ZN5Eigen10MatrixBaseINS_5BlockINS_6MatrixIdLin1ELin1ELi0ELin1ELin1EEELin1ELin1ELb0EEEE26applyHouseholderOnTheRightINS1_IKS3_Lin1ELi1ELb0EEEEEvRKT_RKdPd"
 "_ZN5Eigen10MatrixBaseINS_5BlockINS_6MatrixIdLin1ELin1ELi0ELin1ELin1EEELin1ELin1ELb0EEEEC2Ev"
 "_ZN5Eigen10MatrixBaseINS_5BlockINS_8DiagonalINS_6MatrixIdLin1ELin1ELi0ELin1ELin1EEELi0EEELin1ELi1ELb0EEEEC2Ev"
 "_ZN5Eigen10MatrixBaseINS_5SolveINS_14TriangularViewIKNS_9TransposeIKNS_6MatrixIdLin1ELin1ELi0ELin1ELin1EEEEELj2EEENS4_IdLin1ELi1ELi0ELin1ELi1EEEEEEC2Ev"
 "_ZN5Eigen10MatrixBaseINS_6MatrixIN4stan4math3varELin1ELi1ELi0ELin1ELi1EEEE2viEv"
 "_ZN5Eigen10MatrixBaseINS_6MatrixIN4stan4math3varELin1ELi1ELi0ELin1ELi1EEEE3adjEv"
 "_ZN5Eigen10MatrixBaseINS_6MatrixIN4stan4math3varELin1ELi1ELi0ELin1ELi1EEEE5vi_OpC1ERKS7_"
 "_ZN5Eigen10MatrixBaseINS_6MatrixIN4stan4math3varELin1ELi1ELi0ELin1ELi1EEEE5vi_OpC1Ev"
 "_ZN5Eigen10MatrixBaseINS_6MatrixIN4stan4math3varELin1ELi1ELi0ELin1ELi1EEEE6adj_OpC1ERKS7_"
 "_ZN5Eigen10MatrixBaseINS_6MatrixIN4stan4math3varELin1ELi1ELi0ELin1ELi1EEEE6adj_OpC1Ev"
 "_ZN5Eigen10MatrixBaseINS_6MatrixIN4stan4math3varELin1ELi1ELi0ELin1ELi1EEEE6val_OpC1ERKS7_"
 "_ZN5Eigen10MatrixBaseINS_6MatrixIN4stan4math3varELin1ELi1ELi0ELin1ELi1EEEE6val_OpC1Ev"
 "_ZN5Eigen10MatrixBaseINS_6MatrixIN4stan4math3varELin1ELi1ELi0ELin1ELi1EEEEC2Ev"
 "_ZN5Eigen10MatrixBaseINS_6MatrixIdLi1ELi1ELi0ELi1ELi1EEEEC2Ev"
 "_ZN5Eigen10MatrixBaseINS_6MatrixIdLi1ELin1ELi1ELi1ELin1EEEEC2Ev"
 "_ZN5Eigen10MatrixBaseINS_6MatrixIdLi4ELi4ELi0ELi4ELi4EEEEC2Ev"
 "_ZN5Eigen10MatrixBaseINS_6MatrixIdLin1ELi1ELi0ELin1ELi1EEEE5arrayEv"
 "_ZN5Eigen10MatrixBaseINS_6MatrixIdLin1ELi1ELi0ELin1ELi1EEEE7noaliasEv"
 "_ZN5Eigen10MatrixBaseINS_6MatrixIdLin1ELi1ELi0ELin1ELi1EEEEC2Ev"
 "_ZN5Eigen10MatrixBaseINS_6MatrixIdLin1ELi1ELi0ELin1ELi1EEEEmIINS_13CwiseBinaryOpINS_8internal17scalar_product_opIddEEKNS_14CwiseNullaryOpINS6_18scalar_constant_opIdEEKS2_EESC_EEEERS2_RKNS0_IT_EE"
 "_ZN5Eigen10MatrixBaseINS_6MatrixIdLin1ELi1ELi0ELin1ELi1EEEEpLINS_13CwiseBinaryOpINS_8internal17scalar_product_opIddEEKNS_14CwiseNullaryOpINS6_18scalar_constant_opIdEEKS2_EESC_EEEERS2_RKNS0_IT_EE"
 "_ZN5Eigen10MatrixBaseINS_6MatrixIdLin1ELi1ELi0ELin1ELi1EEEEpLINS_13CwiseBinaryOpINS_8internal17scalar_product_opIddEEKS2_KNS5_INS6_20scalar_difference_opIddEES9_S9_EEEEEERS2_RKNS0_IT_EE"
 "_ZN5Eigen10MatrixBaseINS_6MatrixIdLin1ELi1ELi0ELin1ELi1EEEEpLINS_13CwiseBinaryOpINS_8internal18scalar_quotient_opIddEEKS2_KNS_14CwiseNullaryOpINS6_18scalar_constant_opIdEES9_EEEEEERS2_RKNS0_IT_EE"
 "_ZN5Eigen10MatrixBaseINS_6MatrixIdLin1ELi1ELi0ELin1ELi1EEEEpLIS2_EERS2_RKNS0_IT_EE"
 "_ZN5Eigen10MatrixBaseINS_6MatrixIdLin1ELin1ELi0ELin1ELin1EEEE11setIdentityEv"
 "_ZN5Eigen10MatrixBaseINS_6MatrixIdLin1ELin1ELi0ELin1ELin1EEEE11setIdentityExx"
 "_ZN5Eigen10MatrixBaseINS_6MatrixIdLin1ELin1ELi0ELin1ELin1EEEE14triangularViewILj10EEENS3_24TriangularViewReturnTypeIXT_EE4TypeEv"
 "_ZN5Eigen10MatrixBaseINS_6MatrixIdLin1ELin1ELi0ELin1ELin1EEEE14triangularViewILj1EEENS3_24TriangularViewReturnTypeIXT_EE4TypeEv"
 "_ZN5Eigen10MatrixBaseINS_6MatrixIdLin1ELin1ELi0ELin1ELin1EEEE5arrayEv"
 "_ZN5Eigen10MatrixBaseINS_6MatrixIdLin1ELin1ELi0ELin1ELin1EEEE7noaliasEv"
 "_ZN5Eigen10MatrixBaseINS_6MatrixIdLin1ELin1ELi0ELin1ELin1EEEE8IdentityExx"
 "_ZN5Eigen10MatrixBaseINS_6MatrixIdLin1ELin1ELi0ELin1ELin1EEEE8diagonalEv"
 "_ZN5Eigen10MatrixBaseINS_6MatrixIdLin1ELin1ELi0ELin1ELin1EEEE8diagonalILin1EEENS3_23DiagonalIndexReturnTypeIXT_EE4TypeEv"
 "_ZN5Eigen10MatrixBaseINS_6MatrixIdLin1ELin1ELi0ELin1ELin1EEEEC2Ev"
 "_ZN5Eigen10MatrixBaseINS_6MatrixIdLin1ELin1ELi0ELin1ELin1EEEEaSINS_14TriangularViewIKS2_Lj1EEEEERS2_RKNS_9EigenBaseIT_EE"
 "_ZN5Eigen10MatrixBaseINS_6MatrixIdLin1ELin1ELi0ELin1ELin1EEEEaSINS_19HouseholderSequenceIS2_NS1_IdLin1ELi1ELi0ELin1ELi1EEELi1EEEEERS2_RKNS_9EigenBaseIT_EE"
 "_ZN5Eigen10MatrixBaseINS_6MatrixIdLin1ELin1ELi0ELin1ELin1EEEEpLINS_7ProductINS_13CwiseBinaryOpINS_8internal20scalar_difference_opIddEEKNS1_IdLin1ELi1ELi0ELin1ELi1EEESB_EENS_9TransposeISA_EELi0EEEEERS2_RKNS0_IT_EE"
 "_ZN5Eigen10MatrixBaseINS_6MatrixIdLin1ELin1ELi0ELin1ELin1EEEEpLIS2_EERS2_RKNS0_IT_EE"
 "_ZN5Eigen10MatrixBaseINS_6MatrixIdLin1ELin1ELi1ELin1ELin1EEEEC2Ev"
 "_ZN5Eigen10MatrixBaseINS_6MatrixIiLin1ELi1ELi0ELin1ELi1EEEEC2Ev"
 "_ZN5Eigen10MatrixBaseINS_7ProductINS1_INS_6MatrixIdLin1ELin1ELi0ELin1ELin1EEES3_Li0EEENS_9TransposeIS3_EELi0EEEEC2Ev"
 "_ZN5Eigen10MatrixBaseINS_7ProductINS_13CwiseBinaryOpINS_8internal17scalar_product_opIddEEKNS_14CwiseNullaryOpINS3_18scalar_constant_opIdEEKNS_6MatrixIdLin1ELi1ELi0ELin1ELi1EEEEESB_EENS_9TransposeISB_EELi0EEEEC2Ev"
 "_ZN5Eigen10MatrixBaseINS_7ProductINS_13CwiseBinaryOpINS_8internal17scalar_product_opIddEEKNS_14CwiseNullaryOpINS3_18scalar_constant_opIdEEKNS_6MatrixIdLin1ELin1ELi0ELin1ELin1EEEEESB_EENS_9TransposeISA_EELi0EEEEC2Ev"
 "_ZN5Eigen10MatrixBaseINS_7ProductINS_13CwiseBinaryOpINS_8internal17scalar_product_opIddEEKNS_14CwiseNullaryOpINS3_18scalar_constant_opIdEEKNS_6MatrixIdLin1ELin1ELi0ELin1ELin1EEEEESB_EENS_9TransposeISA_EELi1EEEEC2Ev"
 "_ZN5Eigen10MatrixBaseINS_7ProductINS_13CwiseBinaryOpINS_8internal20scalar_difference_opIddEEKNS_6MatrixIdLin1ELi1ELi0ELin1ELi1EEES8_EENS_9TransposeIS7_EELi0EEEEC2Ev"
 "_ZN5Eigen10MatrixBaseINS_7ProductINS_15DiagonalWrapperIKNS_5BlockINS_8DiagonalINS_6MatrixIdLin1ELin1ELi0ELin1ELin1EEELi0EEELin1ELi1ELb0EEEEENS_9TransposeIKNS3_IS6_Li1ELin1ELb0EEEEELi1EEEEC2Ev"
 "_ZN5Eigen10MatrixBaseINS_7ProductINS_15SelfAdjointViewINS_5BlockINS_6MatrixIdLin1ELin1ELi0ELin1ELin1EEELin1ELin1ELb0EEELj1EEENS_13CwiseBinaryOpINS_8internal17scalar_product_opIddEEKNS_14CwiseNullaryOpINS9_18scalar_constant_opIdEEKNS4_IdLin1ELi1ELi0ELin1ELi1EEEEEKNS3_INS3_IS5_Lin1ELi1ELb1EEELin1ELi1ELb0EEEEELi0EEEEC2Ev"
 "_ZN5Eigen10MatrixBaseINS_7ProductINS_3MapINS_6MatrixIdLi1ELin1ELi1ELi1ELin1EEELi0ENS_6StrideILi0ELi0EEEEENS2_INS3_IdLin1ELi1ELi0ELin1ELi1EEELi0ES6_EELi0EEEEC2Ev"
 "_ZN5Eigen10MatrixBaseINS_7ProductINS_3MapINS_6MatrixIdLin1ELin1ELi0ELin1ELin1EEELi0ENS_6StrideILi0ELi0EEEEES7_Li0EEEEC2Ev"
 "_ZN5Eigen10MatrixBaseINS_7ProductINS_5BlockINS2_INS_6MatrixIdLin1ELin1ELi0ELin1ELin1EEELin1ELin1ELb0EEELin1ELin1ELb0EEENS_9TransposeIKNS2_IS5_Li1ELin1ELb0EEEEELi0EEEEC2Ev"
 "_ZN5Eigen10MatrixBaseINS_7ProductINS_5BlockINS_6MatrixIdLin1ELin1ELi0ELin1ELin1EEELi1ELin1ELb0EEENS2_INS3_IdLin1ELi1ELi0ELin1ELi1EEELin1ELi1ELb0EEELi0EEEEC2Ev"
 "_ZN5Eigen10MatrixBaseINS_7ProductINS_5BlockINS_6MatrixIdLin1ELin1ELi0ELin1ELin1EEELin1ELin1ELb0EEENS2_INS3_IdLin1ELi1ELi0ELin1ELi1EEELin1ELi1ELb0EEELi0EEEEC2Ev"
 "_ZN5Eigen10MatrixBaseINS_7ProductINS_5BlockINS_6MatrixIdLin1ELin1ELi0ELin1ELin1EEELin1ELin1ELb0EEENS_9TransposeIKNS2_IS4_Li1ELin1ELb0EEEEELi0EEEEC2Ev"
 "_ZN5Eigen10MatrixBaseINS_7ProductINS_6MatrixIdLin1ELin1ELi0ELin1ELin1EEENS2_IdLin1ELi1ELi0ELin1ELi1EEELi0EEEEC2Ev"
 "_ZN5Eigen10MatrixBaseINS_7ProductINS_6MatrixIdLin1ELin1ELi0ELin1ELin1EEES3_Li0EEEEC2Ev"
 "_ZN5Eigen10MatrixBaseINS_7ProductINS_9TransposeINS_3MapINS_6MatrixIdLin1ELin1ELi0ELin1ELin1EEELi0ENS_6StrideILi0ELi0EEEEEEES5_Li0EEEEC2Ev"
 "_ZN5Eigen10MatrixBaseINS_7ProductINS_9TransposeINS_6MatrixIdLin1ELin1ELi0ELin1ELin1EEEEENS3_IdLin1ELi1ELi0ELin1ELi1EEELi0EEEEC2Ev"
 "_ZN5Eigen10MatrixBaseINS_8DiagonalIKNS_6MatrixIdLin1ELin1ELi0ELin1ELin1EEELi0EEEE5arrayEv"
 "_ZN5Eigen10MatrixBaseINS_8DiagonalIKNS_6MatrixIdLin1ELin1ELi0ELin1ELin1EEELi0EEEEC2Ev"
 "_ZN5Eigen10MatrixBaseINS_8DiagonalINS_6MatrixIdLin1ELin1ELi0ELin1ELin1EEELi0EEEE4realEv"
 "_ZN5Eigen10MatrixBaseINS_8DiagonalINS_6MatrixIdLin1ELin1ELi0ELin1ELin1EEELi0EEEE5arrayEv"
 "_ZN5Eigen10MatrixBaseINS_8DiagonalINS_6MatrixIdLin1ELin1ELi0ELin1ELin1EEELi0EEEEC2Ev"
 "_ZN5Eigen10MatrixBaseINS_8DiagonalINS_6MatrixIdLin1ELin1ELi0ELin1ELin1EEELin1EEEE4realEv"
 "_ZN5Eigen10MatrixBaseINS_8DiagonalINS_6MatrixIdLin1ELin1ELi0ELin1ELin1EEELin1EEEEC2Ev"
 "_ZN5Eigen10MatrixBaseINS_9TransposeIKNS_3MapINS_6MatrixIdLi1ELin1ELi1ELi1ELin1EEELi0ENS_6StrideILi0ELi0EEEEEEEEC2Ev"
 "_ZN5Eigen10MatrixBaseINS_9TransposeIKNS_3MapINS_6MatrixIdLin1ELin1ELi0ELin1ELin1EEELi0ENS_6StrideILi0ELi0EEEEEEEEC2Ev"
 "_ZN5Eigen10MatrixBaseINS_9TransposeIKNS_5BlockINS2_INS_6MatrixIdLin1ELin1ELi0ELin1ELin1EEELin1ELin1ELb0EEELi1ELin1ELb0EEEEEEC2Ev"
 "_ZN5Eigen10MatrixBaseINS_9TransposeIKNS_5BlockINS_6MatrixIdLin1ELin1ELi0ELin1ELin1EEELi1ELin1ELb0EEEEEEC2Ev"
 "_ZN5Eigen10MatrixBaseINS_9TransposeIKNS_5BlockINS_6MatrixIdLin1ELin1ELi0ELin1ELin1EEELin1ELin1ELb0EEEEEEC2Ev"
 "_ZN5Eigen10MatrixBaseINS_9TransposeIKNS_6MatrixIdLi1ELin1ELi1ELi1ELin1EEEEEEC2Ev"
 "_ZN5Eigen10MatrixBaseINS_9TransposeIKNS_6MatrixIdLin1ELi1ELi0ELin1ELi1EEEEEEC2Ev"
 "_ZN5Eigen10MatrixBaseINS_9TransposeIKNS_6MatrixIdLin1ELin1ELi0ELin1ELin1EEEEEEC2Ev"
 "_ZN5Eigen10MatrixBaseINS_9TransposeINS_3MapINS_6MatrixIdLin1ELin1ELi0ELin1ELin1EEELi0ENS_6StrideILi0ELi0EEEEEEEEC2Ev"
 "_ZN5Eigen10MatrixBaseINS_9TransposeINS_6MatrixIdLin1ELi1ELi0ELin1ELi1EEEEEEC2Ev"
 "_ZN5Eigen10MatrixBaseINS_9TransposeINS_6MatrixIdLin1ELin1ELi0ELin1ELin1EEEEEEC2Ev"
 "_ZN5Eigen11ProductImplINS_13CwiseBinaryOpINS_8internal17scalar_product_opIddEEKNS_14CwiseNullaryOpINS2_18scalar_constant_opIdEEKNS_6MatrixIdLin1ELi1ELi0ELin1ELi1EEEEESA_EENS_9TransposeISA_EELi0ENS_5DenseEEC2Ev"
 "_ZN5Eigen11ProductImplINS_13CwiseBinaryOpINS_8internal17scalar_product_opIddEEKNS_14CwiseNullaryOpINS2_18scalar_constant_opIdEEKNS_6MatrixIdLin1ELin1ELi0ELin1ELin1EEEEESA_EENS_9TransposeIS9_EELi0ENS_5DenseEEC2Ev"
 "_ZN5Eigen11ProductImplINS_13CwiseBinaryOpINS_8internal17scalar_product_opIddEEKNS_14CwiseNullaryOpINS2_18scalar_constant_opIdEEKNS_6MatrixIdLin1ELin1ELi0ELin1ELin1EEEEESA_EENS_9TransposeIS9_EELi1ENS_5DenseEEC2Ev"
 "_ZN5Eigen11ProductImplINS_13CwiseBinaryOpINS_8internal20scalar_difference_opIddEEKNS_6MatrixIdLin1ELi1ELi0ELin1ELi1EEES7_EENS_9TransposeIS6_EELi0ENS_5DenseEEC2Ev"
 "_ZN5Eigen11ProductImplINS_15DiagonalWrapperIKNS_5BlockINS_8DiagonalINS_6MatrixIdLin1ELin1ELi0ELin1ELin1EEELi0EEELin1ELi1ELb0EEEEENS_9TransposeIKNS2_IS5_Li1ELin1ELb0EEEEELi1ENS_5DenseEEC2Ev"
 "_ZN5Eigen11ProductImplINS_15SelfAdjointViewINS_5BlockINS_6MatrixIdLin1ELin1ELi0ELin1ELin1EEELin1ELin1ELb0EEELj1EEENS_13CwiseBinaryOpINS_8internal17scalar_product_opIddEEKNS_14CwiseNullaryOpINS8_18scalar_constant_opIdEEKNS3_IdLin1ELi1ELi0ELin1ELi1EEEEEKNS2_INS2_IS4_Lin1ELi1ELb1EEELin1ELi1ELb0EEEEELi0ENS_5DenseEEC2Ev"
 "_ZN5Eigen11ProductImplINS_3MapINS_6MatrixIdLi1ELin1ELi1ELi1ELin1EEELi0ENS_6StrideILi0ELi0EEEEENS1_INS2_IdLin1ELi1ELi0ELin1ELi1EEELi0ES5_EELi0ENS_5DenseEEC2Ev"
 "_ZN5Eigen11ProductImplINS_3MapINS_6MatrixIdLin1ELin1ELi0ELin1ELin1EEELi0ENS_6StrideILi0ELi0EEEEES6_Li0ENS_5DenseEEC2Ev"
 "_ZN5Eigen11ProductImplINS_5BlockINS1_INS_6MatrixIdLin1ELin1ELi0ELin1ELin1EEELin1ELin1ELb0EEELin1ELin1ELb0EEENS_9TransposeIKNS1_IS4_Li1ELin1ELb0EEEEELi0ENS_5DenseEEC2Ev"
 "_ZN5Eigen11ProductImplINS_5BlockINS_6MatrixIdLin1ELin1ELi0ELin1ELin1EEELi1ELin1ELb0EEENS1_INS2_IdLin1ELi1ELi0ELin1ELi1EEELin1ELi1ELb0EEELi0ENS_5DenseEEC2Ev"
 "_ZN5Eigen11ProductImplINS_5BlockINS_6MatrixIdLin1ELin1ELi0ELin1ELin1EEELin1ELin1ELb0EEENS1_INS2_IdLin1ELi1ELi0ELin1ELi1EEELin1ELi1ELb0EEELi0ENS_5DenseEEC2Ev"
 "_ZN5Eigen11ProductImplINS_5BlockINS_6MatrixIdLin1ELin1ELi0ELin1ELin1EEELin1ELin1ELb0EEENS_9TransposeIKNS1_IS3_Li1ELin1ELb0EEEEELi0ENS_5DenseEEC2Ev"
 "_ZN5Eigen11ProductImplINS_6MatrixIdLin1ELin1ELi0ELin1ELin1EEENS1_IdLin1ELi1ELi0ELin1ELi1EEELi0ENS_5DenseEEC2Ev"
 "_ZN5Eigen11ProductImplINS_6MatrixIdLin1ELin1ELi0ELin1ELin1EEES2_Li0ENS_5DenseEEC2Ev"
 "_ZN5Eigen11ProductImplINS_7ProductINS_6MatrixIdLin1ELin1ELi0ELin1ELin1EEES3_Li0EEENS_9TransposeIS3_EELi0ENS_5DenseEEC2Ev"
 "_ZN5Eigen11ProductImplINS_9TransposeINS_3MapINS_6MatrixIdLin1ELin1ELi0ELin1ELin1EEELi0ENS_6StrideILi0ELi0EEEEEEES4_Li0ENS_5DenseEEC2Ev"
 "_ZN5Eigen11ProductImplINS_9TransposeINS_6MatrixIdLin1ELin1ELi0ELin1ELin1EEEEENS2_IdLin1ELi1ELi0ELin1ELi1EEELi0ENS_5DenseEEC2Ev"
 "_ZN5Eigen11VectorBlockIKNS_5BlockINS1_INS_6MatrixIdLin1ELin1ELi0ELin1ELin1EEELin1ELi1ELb1EEELin1ELi1ELb0EEELin1EEC1ERS6_xx"
 "_ZN5Eigen11VectorBlockIKNS_5BlockINS_6MatrixIdLin1ELi1ELi0ELin1ELi1EEELin1ELi1ELb0EEELin1EEC1ERS5_xx"
 "_ZN5Eigen11VectorBlockINS_5BlockINS1_INS_6MatrixIdLin1ELin1ELi0ELin1ELin1EEELin1ELi1ELb1EEELin1ELi1ELb0EEELin1EEC1ERS5_xx"
 "_ZN5Eigen11VectorBlockINS_5BlockINS_6MatrixIdLin1ELin1ELi0ELin1ELin1EEELi1ELin1ELb0EEELin1EEC1ERS4_xx"
 "_ZN5Eigen11VectorBlockINS_5BlockINS_6MatrixIdLin1ELin1ELi0ELin1ELin1EEELin1ELi1ELb1EEELin1EEC1ERS4_xx"
 "_ZN5Eigen11VectorBlockINS_6MatrixIdLin1ELi1ELi0ELin1ELi1EEELin1EEC1ERS2_xx"
 "_ZN5Eigen11VectorBlockINS_8DiagonalINS_6MatrixIdLin1ELin1ELi0ELin1ELin1EEELi0EEELin1EEC1ERS4_xx"
 "_ZN5Eigen12ArrayWrapperIKNS_13CwiseBinaryOpINS_8internal20scalar_difference_opIddEEKNS_6MatrixIdLin1ELi1ELi0ELin1ELi1EEES7_EEEC1ERKSA_"
 "_ZN5Eigen12ArrayWrapperIKNS_13CwiseBinaryOpINS_8internal20scalar_difference_opIddEEKNS_6MatrixIdLin1ELi1ELi0ELin1ELi1EEES7_EEEC1ERS9_"
 "_ZN5Eigen12ArrayWrapperIKNS_6MatrixIN4stan4math3varELin1ELi1ELi0ELin1ELi1EEEEC1ERS6_"
 "_ZN5Eigen12ArrayWrapperIKNS_6MatrixIdLin1ELi1ELi0ELin1ELi1EEEEC1ERS3_"
 "_ZN5Eigen12ArrayWrapperIKNS_6MatrixIdLin1ELin1ELi0ELin1ELin1EEEEC1ERS3_"
 "_ZN5Eigen12ArrayWrapperIKNS_8DiagonalIKNS_6MatrixIdLin1ELin1ELi0ELin1ELin1EEELi0EEEEC1ERKS7_"
 "_ZN5Eigen12ArrayWrapperIKNS_8DiagonalIKNS_6MatrixIdLin1ELin1ELi0ELin1ELin1EEELi0EEEEC1ERS6_"
 "_ZN5Eigen12ArrayWrapperINS_5BlockINS1_INS_6MatrixIdLin1ELin1ELi0ELin1ELin1EEELin1ELi1ELb1EEELin1ELi1ELb0EEEEC1ERKS6_"
 "_ZN5Eigen12ArrayWrapperINS_5BlockINS1_INS_6MatrixIdLin1ELin1ELi0ELin1ELin1EEELin1ELi1ELb1EEELin1ELi1ELb0EEEEC1ERS5_"
 "_ZN5Eigen12ArrayWrapperINS_5BlockINS_6MatrixIdLin1ELin1ELi0ELin1ELin1EEELin1ELi1ELb0EEEEC1ERKS5_"
 "_ZN5Eigen12ArrayWrapperINS_5BlockINS_6MatrixIdLin1ELin1ELi0ELin1ELin1EEELin1ELi1ELb0EEEEC1ERS4_"
 "_ZN5Eigen12ArrayWrapperINS_6MatrixIdLin1ELi1ELi0ELin1ELi1EEEEC1ERS2_"
 "_ZN5Eigen12ArrayWrapperINS_6MatrixIdLin1ELin1ELi0ELin1ELin1EEEEC1ERS2_"
 "_ZN5Eigen12ArrayWrapperINS_8DiagonalIKNS_6MatrixIdLin1ELin1ELi0ELin1ELin1EEELi0EEEEC1ERKS6_"
 "_ZN5Eigen12ArrayWrapperINS_8DiagonalIKNS_6MatrixIdLin1ELin1ELi0ELin1ELin1EEELi0EEEEC1ERS5_"
 "_ZN5Eigen12ArrayWrapperINS_8DiagonalINS_6MatrixIdLin1ELin1ELi0ELin1ELin1EEELi0EEEEC1ERS4_"
 "_ZN5Eigen12CwiseUnaryOpINS_10MatrixBaseINS_6MatrixIN4stan4math3varELin1ELi1ELi0ELin1ELi1EEEE5vi_OpEKS6_EC1ERS9_RKS8_"
 "_ZN5Eigen12CwiseUnaryOpINS_10MatrixBaseINS_6MatrixIN4stan4math3varELin1ELi1ELi0ELin1ELi1EEEE6val_OpEKS6_EC1ERS9_RKS8_"
 "_ZN5Eigen12CwiseUnaryOpINS_8internal13scalar_abs_opIdEEKNS_5BlockINS4_INS_6MatrixIdLin1ELin1ELi0ELin1ELin1EEELi1ELin1ELb0EEELi1ELin1ELb0EEEEC1ERS9_RKS3_"
 "_ZN5Eigen12CwiseUnaryOpINS_8internal13scalar_abs_opIdEEKNS_5BlockINS4_INS_6MatrixIdLin1ELin1ELi0ELin1ELin1EEELin1ELi1ELb1EEELin1ELi1ELb0EEEEC1ERS9_RKS3_"
 "_ZN5Eigen12CwiseUnaryOpINS_8internal13scalar_abs_opIdEEKNS_5BlockINS_8DiagonalINS_6MatrixIdLin1ELin1ELi0ELin1ELin1EEELi0EEELin1ELi1ELb0EEEEC1ERSA_RKS3_"
 "_ZN5Eigen12CwiseUnaryOpINS_8internal13scalar_abs_opIdEEKNS_6MatrixIdLin1ELin1ELi0ELin1ELin1EEEEC1ERS6_RKS3_"
 "_ZN5Eigen12CwiseUnaryOpINS_8internal13scalar_exp_opIdEEKNS_12ArrayWrapperIKNS_6MatrixIdLin1ELi1ELi0ELin1ELi1EEEEEEC1ERKSA_"
 "_ZN5Eigen12CwiseUnaryOpINS_8internal13scalar_exp_opIdEEKNS_12ArrayWrapperIKNS_6MatrixIdLin1ELi1ELi0ELin1ELi1EEEEEEC1ERS9_RKS3_"
 "_ZN5Eigen12CwiseUnaryOpINS_8internal14scalar_abs2_opIdEEKNS_5BlockIKNS4_INS4_INS_6MatrixIdLin1ELin1ELi0ELin1ELin1EEELin1ELi1ELb1EEELin1ELi1ELb0EEELin1ELi1ELb0EEEEC1ERSB_RKS3_"
 "_ZN5Eigen12CwiseUnaryOpINS_8internal14scalar_abs2_opIdEEKNS_5BlockINS4_INS_6MatrixIdLin1ELin1ELi0ELin1ELin1EEELin1ELin1ELb0EEELi1ELin1ELb0EEEEC1ERS9_RKS3_"
 "_ZN5Eigen12CwiseUnaryOpINS_8internal14scalar_abs2_opIdEEKNS_5BlockINS_6MatrixIdLin1ELin1ELi0ELin1ELin1EEELi1ELin1ELb0EEEEC1ERS8_RKS3_"
 "_ZN5Eigen12CwiseUnaryOpINS_8internal14scalar_abs2_opIdEEKNS_6MatrixIdLin1ELi1ELi0ELin1ELi1EEEEC1ERS6_RKS3_"
 "_ZN5Eigen12CwiseUnaryOpINS_8internal14scalar_sqrt_opIdEEKNS_12ArrayWrapperIKNS_6MatrixIdLin1ELi1ELi0ELin1ELi1EEEEEEC1ERS9_RKS3_"
 "_ZN5Eigen12CwiseUnaryOpINS_8internal14scalar_sqrt_opIdEEKNS_12ArrayWrapperIKNS_6MatrixIdLin1ELin1ELi0ELin1ELin1EEEEEEC1ERS9_RKS3_"
 "_ZN5Eigen12CwiseUnaryOpINS_8internal16scalar_square_opIdEEKNS_12ArrayWrapperIKNS_6MatrixIdLin1ELi1ELi0ELin1ELi1EEEEEEC1ERS9_RKS3_"
 "_ZN5Eigen12CwiseUnaryOpINS_8internal16scalar_square_opIdEEKNS_12ArrayWrapperIKNS_6MatrixIdLin1ELin1ELi0ELin1ELin1EEEEEEC1ERS9_RKS3_"
 "_ZN5Eigen12CwiseUnaryOpINS_8internal17scalar_inverse_opIdEEKNS_12ArrayWrapperIKNS_8DiagonalIKNS_6MatrixIdLin1ELin1ELi0ELin1ELin1EEELi0EEEEEEC1ERSC_RKS3_"
 "_ZN5Eigen12CwiseUnaryOpINS_8internal18scalar_opposite_opIdEEKNS_6MatrixIdLin1ELi1ELi0ELin1ELi1EEEEC1ERS6_RKS3_"
 "_ZN5Eigen12CwiseUnaryOpINS_8internal18scalar_opposite_opIdEEKNS_7ProductINS_6MatrixIdLin1ELin1ELi0ELin1ELin1EEENS5_IdLin1ELi1ELi0ELin1ELi1EEELi0EEEEC1ERS9_RKS3_"
 "_ZN5Eigen12CwiseUnaryOpIZN4stan4math17multiply_mat_variIdLin1ELin1ENS2_3varELi1EEC4ERKNS_6MatrixIdLin1ELin1ELi0ELin1ELin1EEERKNS6_IS4_Lin1ELi1ELi0ELin1ELi1EEEEUldE_KNS_7ProductINS_3MapIS7_Li0ENS_6StrideILi0ELi0EEEEESI_Li0EEEEC1ERSK_RKSD_"
 "_ZN5Eigen12CwiseUnaryOpIZN4stan4math18apply_scalar_unaryINS2_7exp_funENS_6MatrixINS2_3varELin1ELi1ELi0ELin1ELi1EEEE5applyERKS7_EUlS6_E_S9_EC1ESA_RKSB_"
 "_ZN5Eigen12CwiseUnaryOpIZN4stan4math18apply_scalar_unaryINS2_7exp_funENS_6MatrixIdLin1ELi1ELi0ELin1ELi1EEEE5applyERKS6_EUldE_S8_EC1ES9_RKSA_"
 "_ZN5Eigen12CwiseUnaryOpIZN4stan4math18apply_scalar_unaryINS2_7log_funENS_6MatrixINS2_3varELin1ELi1ELi0ELin1ELi1EEEE5applyERKS7_EUlS6_E_S9_EC1ESA_RKSB_"
 "_ZN5Eigen12CwiseUnaryOpIZN4stan4math18apply_scalar_unaryINS2_7log_funENS_6MatrixIdLin1ELi1ELi0ELin1ELi1EEEE5applyERKS6_EUldE_S8_EC1ES9_RKSA_"
 "_ZN5Eigen12DenseStorageIN4stan4math3varELin1ELin1ELi1ELi0EE4colsEv"
 "_ZN5Eigen12DenseStorageIN4stan4math3varELin1ELin1ELi1ELi0EE4swapERS4_"
 "_ZN5Eigen12DenseStorageIN4stan4math3varELin1ELin1ELi1ELi0EE6resizeExxx"
 "_ZN5Eigen12DenseStorageIN4stan4math3varELin1ELin1ELi1ELi0EEC1ERKS4_"
 "_ZN5Eigen12DenseStorageIN4stan4math3varELin1ELin1ELi1ELi0EEC1Ev"
 "_ZN5Eigen12DenseStorageIN4stan4math3varELin1ELin1ELi1ELi0EED1Ev"
 "_ZN5Eigen12DenseStorageIdLi16ELi4ELi4ELi0EE4colsEv"
 "_ZN5Eigen12DenseStorageIdLi16ELi4ELi4ELi0EE4dataEv"
 "_ZN5Eigen12DenseStorageIdLi16ELi4ELi4ELi0EE4rowsEv"
 "_ZN5Eigen12DenseStorageIdLi16ELi4ELi4ELi0EEC1ENS_8internal42constructor_without_unaligned_array_assertE"
 "_ZN5Eigen12DenseStorageIdLi1ELi1ELi1ELi0EE4dataEv"
 "_ZN5Eigen12DenseStorageIdLi1ELi1ELi1ELi0EE4rowsEv"
 "_ZN5Eigen12DenseStorageIdLi1ELi1ELi1ELi0EE6resizeExxx"
 "_ZN5Eigen12DenseStorageIdLi1ELi1ELi1ELi0EEC1Ev"
 "_ZN5Eigen12DenseStorageIdLin1ELi1ELin1ELi1EE4rowsEv"
 "_ZN5Eigen12DenseStorageIdLin1ELi1ELin1ELi1EE4swapERS1_"
 "_ZN5Eigen12DenseStorageIdLin1ELi1ELin1ELi1EE6resizeExxx"
 "_ZN5Eigen12DenseStorageIdLin1ELi1ELin1ELi1EEC1ERKS1_"
 "_ZN5Eigen12DenseStorageIdLin1ELi1ELin1ELi1EEC1Ev"
 "_ZN5Eigen12DenseStorageIdLin1ELi1ELin1ELi1EED1Ev"
 "_ZN5Eigen12DenseStorageIdLin1ELin1ELi1ELi0EE4colsEv"
 "_ZN5Eigen12DenseStorageIdLin1ELin1ELi1ELi0EE4dataEv"
 "_ZN5Eigen12DenseStorageIdLin1ELin1ELi1ELi0EE4swapERS1_"
 "_ZN5Eigen12DenseStorageIdLin1ELin1ELi1ELi0EE6resizeExxx"
 "_ZN5Eigen12DenseStorageIdLin1ELin1ELi1ELi0EEC1EOS1_"
 "_ZN5Eigen12DenseStorageIdLin1ELin1ELi1ELi0EEC1ERKS1_"
 "_ZN5Eigen12DenseStorageIdLin1ELin1ELi1ELi0EEC1Ev"
 "_ZN5Eigen12DenseStorageIdLin1ELin1ELi1ELi0EED1Ev"
 "_ZN5Eigen12DenseStorageIdLin1ELin1ELin1ELi0EE4dataEv"
 "_ZN5Eigen12DenseStorageIdLin1ELin1ELin1ELi0EE4swapERS1_"
 "_ZN5Eigen12DenseStorageIdLin1ELin1ELin1ELi0EE6resizeExxx"
 "_ZN5Eigen12DenseStorageIdLin1ELin1ELin1ELi0EEC1ERKS1_"
 "_ZN5Eigen12DenseStorageIdLin1ELin1ELin1ELi0EEC1Ev"
 "_ZN5Eigen12DenseStorageIdLin1ELin1ELin1ELi0EED1Ev"
 "_ZN5Eigen12DenseStorageIdLin1ELin1ELin1ELi1EE4dataEv"
 "_ZN5Eigen12DenseStorageIdLin1ELin1ELin1ELi1EE6resizeExxx"
 "_ZN5Eigen12DenseStorageIdLin1ELin1ELin1ELi1EEC1Ev"
 "_ZN5Eigen12DenseStorageIdLin1ELin1ELin1ELi1EED1Ev"
 "_ZN5Eigen12DenseStorageIiLin1ELin1ELi1ELi0EE4colsEv"
 "_ZN5Eigen12DenseStorageIiLin1ELin1ELi1ELi0EE4dataEv"
 "_ZN5Eigen12DenseStorageIiLin1ELin1ELi1ELi0EE6resizeExxx"
 "_ZN5Eigen12DenseStorageIiLin1ELin1ELi1ELi0EEC1Ev"
 "_ZN5Eigen12DenseStorageIiLin1ELin1ELi1ELi0EED1Ev"
 "_ZN5Eigen13CwiseBinaryOpINS_8internal13scalar_cmp_opIddLNS1_14ComparisonNameE0EEEKNS_12ArrayWrapperIKNS0_INS1_20scalar_difference_opIddEEKNS_6MatrixIdLin1ELi1ELi0ELin1ELi1EEESA_EEEESE_EC1ERSE_SG_RKS4_"
 "_ZN5Eigen13CwiseBinaryOpINS_8internal13scalar_cmp_opIddLNS1_14ComparisonNameE0EEEKNS_12ArrayWrapperINS_5BlockINS6_INS_6MatrixIdLin1ELin1ELi0ELin1ELin1EEELin1ELi1ELb1EEELin1ELi1ELb0EEEEEKNS_14CwiseNullaryOpINS1_18scalar_constant_opIdEENS_5ArrayIdLin1ELi1ELi0ELin1ELi1EEEEEEC1ERSC_RSJ_RKS4_"
 "_ZN5Eigen13CwiseBinaryOpINS_8internal13scalar_cmp_opIddLNS1_14ComparisonNameE0EEEKNS_12ArrayWrapperINS_5BlockINS_6MatrixIdLin1ELin1ELi0ELin1ELin1EEELin1ELi1ELb0EEEEEKNS_14CwiseNullaryOpINS1_18scalar_constant_opIdEENS_5ArrayIdLin1ELi1ELi0ELin1ELi1EEEEEEC1ERSB_RSI_RKS4_"
 "_ZN5Eigen13CwiseBinaryOpINS_8internal13scalar_cmp_opIddLNS1_14ComparisonNameE2EEEKNS_12ArrayWrapperINS_8DiagonalIKNS_6MatrixIdLin1ELin1ELi0ELin1ELin1EEELi0EEEEEKNS_14CwiseNullaryOpINS1_18scalar_constant_opIdEENS_5ArrayIdLin1ELi1ELi0ELin1ELi1EEEEEEC1ERSC_RSJ_RKS4_"
 "_ZN5Eigen13CwiseBinaryOpINS_8internal13scalar_sum_opIdN4stan4math3varEEEKNS_14CwiseNullaryOpINS1_18scalar_constant_opIdEEKNS_5ArrayIdLin1ELi1ELi0ELin1ELi1EEEEEKNS_12ArrayWrapperIKNS_6MatrixIS5_Lin1ELi1ELi0ELin1ELi1EEEEEEC1ERSE_RSK_RKS6_"
 "_ZN5Eigen13CwiseBinaryOpINS_8internal13scalar_sum_opIddEEKNS0_INS1_17scalar_product_opIddEEKNS_12ArrayWrapperIKNS_6MatrixIdLin1ELi1ELi0ELin1ELi1EEEEEKNS_12CwiseUnaryOpINS1_13scalar_exp_opIdEESB_EEEESB_EC1ERSI_RSB_RKS3_"
 "_ZN5Eigen13CwiseBinaryOpINS_8internal13scalar_sum_opIddEEKNS0_INS1_17scalar_product_opIddEEKNS_14CwiseNullaryOpINS1_18scalar_constant_opIdEEKNS_6MatrixIdLin1ELi1ELi0ELin1ELi1EEEEEKNS_5BlockIKNSE_ISA_Lin1ELi1ELb0EEELin1ELi1ELb0EEEEEKNS0_IS5_SD_KNSE_IKNSE_INSE_INS9_IdLin1ELin1ELi0ELin1ELin1EEELin1ELi1ELb1EEELin1ELi1ELb0EEELin1ELi1ELb0EEEEEEC1ERSK_RSS_RKS3_"
 "_ZN5Eigen13CwiseBinaryOpINS_8internal13scalar_sum_opIddEEKNS0_INS1_17scalar_product_opIddEEKNS_14CwiseNullaryOpINS1_18scalar_constant_opIdEEKNS_6MatrixIdLin1ELi1ELi0ELin1ELi1EEEEESB_EEKNS0_IS5_SD_KNS6_IS8_SA_EEEEEC1ERSF_RSJ_RKS3_"
 "_ZN5Eigen13CwiseBinaryOpINS_8internal13scalar_sum_opIddEEKNS0_INS1_17scalar_product_opIddEEKNS_14CwiseNullaryOpINS1_18scalar_constant_opIdEEKNS_6MatrixIdLin1ELin1ELi0ELin1ELin1EEEEESB_EEKNS0_IS5_SD_KNS6_INS1_18scalar_identity_opIdEESA_EEEEEC1ERSF_RSL_RKS3_"
 "_ZN5Eigen13CwiseBinaryOpINS_8internal13scalar_sum_opIddEEKNS_14CwiseNullaryOpINS1_18scalar_constant_opIdEEKNS_5ArrayIdLin1ELi1ELi0ELin1ELi1EEEEEKNS_12ArrayWrapperIKNS_6MatrixIdLin1ELi1ELi0ELin1ELi1EEEEEEC1ERSB_RSH_RKS3_"
 "_ZN5Eigen13CwiseBinaryOpINS_8internal13scalar_sum_opIddEEKNS_6MatrixIdLin1ELi1ELi0ELin1ELi1EEEKNS0_INS1_17scalar_product_opIddEEKNS_14CwiseNullaryOpINS1_18scalar_constant_opIdEES6_EES6_EEEC1ERS6_RSF_RKS3_"
 "_ZN5Eigen13CwiseBinaryOpINS_8internal13scalar_sum_opIddEEKNS_7ProductINS_6MatrixIdLin1ELin1ELi0ELin1ELin1EEENS5_IdLin1ELi1ELi0ELin1ELi1EEELi0EEEKS7_EC1ERS9_RSA_RKS3_"
 "_ZN5Eigen13CwiseBinaryOpINS_8internal17scalar_product_opIN4stan4math3varES5_EEKNS_6MatrixIS5_Lin1ELi1ELi0ELin1ELi1EEES9_EC1ERS9_SB_RKS6_"
 "_ZN5Eigen13CwiseBinaryOpINS_8internal17scalar_product_opIddEEKNS_12ArrayWrapperIKNS_6MatrixIdLin1ELi1ELi0ELin1ELi1EEEEEKNS_12CwiseUnaryOpINS1_13scalar_exp_opIdEES9_EEEC1ERKSF_"
 "_ZN5Eigen13CwiseBinaryOpINS_8internal17scalar_product_opIddEEKNS_12ArrayWrapperIKNS_6MatrixIdLin1ELi1ELi0ELin1ELi1EEEEEKNS_12CwiseUnaryOpINS1_13scalar_exp_opIdEES9_EEEC1ERS9_RSE_RKS3_"
 "_ZN5Eigen13CwiseBinaryOpINS_8internal17scalar_product_opIddEEKNS_12ArrayWrapperINS_6MatrixIdLin1ELi1ELi0ELin1ELi1EEEEEKNS_12CwiseUnaryOpINS1_13scalar_exp_opIdEEKNS4_IKS6_EEEEEC1ERS8_RSG_RKS3_"
 "_ZN5Eigen13CwiseBinaryOpINS_8internal17scalar_product_opIddEEKNS_12ArrayWrapperINS_6MatrixIdLin1ELi1ELi0ELin1ELi1EEEEES8_EC1ERS8_SA_RKS3_"
 "_ZN5Eigen13CwiseBinaryOpINS_8internal17scalar_product_opIddEEKNS_14CwiseNullaryOpINS1_18scalar_constant_opIdEEKNS_6MatrixIdLi1ELin1ELi1ELi1ELin1EEEEES9_EC1ERSB_RS9_RKS3_"
 "_ZN5Eigen13CwiseBinaryOpINS_8internal17scalar_product_opIddEEKNS_14CwiseNullaryOpINS1_18scalar_constant_opIdEEKNS_6MatrixIdLin1ELi1ELi0ELin1ELi1EEEEEKNS4_IS6_S8_EEEC1ERKSE_"
 "_ZN5Eigen13CwiseBinaryOpINS_8internal17scalar_product_opIddEEKNS_14CwiseNullaryOpINS1_18scalar_constant_opIdEEKNS_6MatrixIdLin1ELi1ELi0ELin1ELi1EEEEEKNS4_IS6_S8_EEEC1ERSB_RSD_RKS3_"
 "_ZN5Eigen13CwiseBinaryOpINS_8internal17scalar_product_opIddEEKNS_14CwiseNullaryOpINS1_18scalar_constant_opIdEEKNS_6MatrixIdLin1ELi1ELi0ELin1ELi1EEEEEKNS_5BlockIKNSC_INSC_INS7_IdLin1ELin1ELi0ELin1ELin1EEELin1ELi1ELb1EEELin1ELi1ELb0EEELin1ELi1ELb0EEEEC1ERKSJ_"
 "_ZN5Eigen13CwiseBinaryOpINS_8internal17scalar_product_opIddEEKNS_14CwiseNullaryOpINS1_18scalar_constant_opIdEEKNS_6MatrixIdLin1ELi1ELi0ELin1ELi1EEEEEKNS_5BlockIKNSC_INSC_INS7_IdLin1ELin1ELi0ELin1ELin1EEELin1ELi1ELb1EEELin1ELi1ELb0EEELin1ELi1ELb0EEEEC1ERSB_RSI_RKS3_"
 "_ZN5Eigen13CwiseBinaryOpINS_8internal17scalar_product_opIddEEKNS_14CwiseNullaryOpINS1_18scalar_constant_opIdEEKNS_6MatrixIdLin1ELi1ELi0ELin1ELi1EEEEEKNS_5BlockIKNSC_IS8_Lin1ELi1ELb0EEELin1ELi1ELb0EEEEC1ERKSH_"
 "_ZN5Eigen13CwiseBinaryOpINS_8internal17scalar_product_opIddEEKNS_14CwiseNullaryOpINS1_18scalar_constant_opIdEEKNS_6MatrixIdLin1ELi1ELi0ELin1ELi1EEEEEKNS_5BlockIKNSC_IS8_Lin1ELi1ELb0EEELin1ELi1ELb0EEEEC1ERSB_RSG_RKS3_"
 "_ZN5Eigen13CwiseBinaryOpINS_8internal17scalar_product_opIddEEKNS_14CwiseNullaryOpINS1_18scalar_constant_opIdEEKNS_6MatrixIdLin1ELi1ELi0ELin1ELi1EEEEEKNS_5BlockINSC_INS7_IdLin1ELin1ELi0ELin1ELin1EEELin1ELi1ELb1EEELin1ELi1ELb0EEEEC1ERKSH_"
 "_ZN5Eigen13CwiseBinaryOpINS_8internal17scalar_product_opIddEEKNS_14CwiseNullaryOpINS1_18scalar_constant_opIdEEKNS_6MatrixIdLin1ELi1ELi0ELin1ELi1EEEEEKNS_5BlockINSC_INS7_IdLin1ELin1ELi0ELin1ELin1EEELin1ELi1ELb1EEELin1ELi1ELb0EEEEC1ERSB_RSG_RKS3_"
 "_ZN5Eigen13CwiseBinaryOpINS_8internal17scalar_product_opIddEEKNS_14CwiseNullaryOpINS1_18scalar_constant_opIdEEKNS_6MatrixIdLin1ELi1ELi0ELin1ELi1EEEEES9_EC1ERKSC_"
 "_ZN5Eigen13CwiseBinaryOpINS_8internal17scalar_product_opIddEEKNS_14CwiseNullaryOpINS1_18scalar_constant_opIdEEKNS_6MatrixIdLin1ELi1ELi0ELin1ELi1EEEEES9_EC1ERSB_RS9_RKS3_"
 "_ZN5Eigen13CwiseBinaryOpINS_8internal17scalar_product_opIddEEKNS_14CwiseNullaryOpINS1_18scalar_constant_opIdEEKNS_6MatrixIdLin1ELin1ELi0ELin1ELin1EEEEEKNS4_INS1_18scalar_identity_opIdEES8_EEEC1ERKSG_"
 "_ZN5Eigen13CwiseBinaryOpINS_8internal17scalar_product_opIddEEKNS_14CwiseNullaryOpINS1_18scalar_constant_opIdEEKNS_6MatrixIdLin1ELin1ELi0ELin1ELin1EEEEEKNS4_INS1_18scalar_identity_opIdEES8_EEEC1ERSB_RSF_RKS3_"
 "_ZN5Eigen13CwiseBinaryOpINS_8internal17scalar_product_opIddEEKNS_14CwiseNullaryOpINS1_18scalar_constant_opIdEEKNS_6MatrixIdLin1ELin1ELi0ELin1ELin1EEEEES9_EC1ERKSC_"
 "_ZN5Eigen13CwiseBinaryOpINS_8internal17scalar_product_opIddEEKNS_14CwiseNullaryOpINS1_18scalar_constant_opIdEEKNS_6MatrixIdLin1ELin1ELi0ELin1ELin1EEEEES9_EC1ERSB_RS9_RKS3_"
 "_ZN5Eigen13CwiseBinaryOpINS_8internal17scalar_product_opIddEEKNS_6MatrixIdLin1ELi1ELi0ELin1ELi1EEEKNS0_INS1_20scalar_difference_opIddEES6_S6_EEEC1ERS6_RSA_RKS3_"
 "_ZN5Eigen13CwiseBinaryOpINS_8internal17scalar_product_opIddEEKNS_6MatrixIdLin1ELi1ELi0ELin1ELi1EEES6_EC1ERS6_S8_RKS3_"
 "_ZN5Eigen13CwiseBinaryOpINS_8internal17scalar_product_opIddEEKNS_9TransposeIKNS_3MapINS_6MatrixIdLi1ELin1ELi1ELi1ELin1EEELi0ENS_6StrideILi0ELi0EEEEEEEKNS5_INS6_IdLin1ELi1ELi0ELin1ELi1EEELi0ES9_EEEC1ERSD_RSG_RKS3_"
 "_ZN5Eigen13CwiseBinaryOpINS_8internal17scalar_product_opIddEEKNS_9TransposeIKNS_5BlockINS_6MatrixIdLin1ELin1ELi0ELin1ELin1EEELi1ELin1ELb0EEEEEKNS5_INS6_IdLin1ELi1ELi0ELin1ELi1EEELin1ELi1ELb0EEEEC1ERSB_RSE_RKS3_"
 "_ZN5Eigen13CwiseBinaryOpINS_8internal18scalar_quotient_opIdN4stan4math3varEEEKNS_14CwiseNullaryOpINS1_18scalar_constant_opIdEEKNS_5ArrayIdLin1ELi1ELi0ELin1ELi1EEEEEKNS_12ArrayWrapperIKNS_6MatrixIS5_Lin1ELi1ELi0ELin1ELi1EEEEEEC1ERSE_RSK_RKS6_"
 "_ZN5Eigen13CwiseBinaryOpINS_8internal18scalar_quotient_opIddEEKNS_14CwiseNullaryOpINS1_18scalar_constant_opIdEEKNS_5ArrayIdLin1ELi1ELi0ELin1ELi1EEEEEKNS_12ArrayWrapperIKNS_6MatrixIdLin1ELi1ELi0ELin1ELi1EEEEEEC1ERSB_RSH_RKS3_"
 "_ZN5Eigen13CwiseBinaryOpINS_8internal18scalar_quotient_opIddEEKNS_5BlockIKNS4_INS4_INS_6MatrixIdLin1ELin1ELi0ELin1ELin1EEELin1ELi1ELb1EEELin1ELi1ELb0EEELin1ELi1ELb0EEEKNS_14CwiseNullaryOpINS1_18scalar_constant_opIdEEKNS5_IdLin1ELi1ELi0ELin1ELi1EEEEEEC1ERSB_RSI_RKS3_"
 "_ZN5Eigen13CwiseBinaryOpINS_8internal18scalar_quotient_opIddEEKNS_6MatrixIdLin1ELi1ELi0ELin1ELi1EEEKNS_14CwiseNullaryOpINS1_18scalar_constant_opIdEES6_EEEC1ERS6_RSB_RKS3_"
 "_ZN5Eigen13CwiseBinaryOpINS_8internal18scalar_quotient_opIddEEKNS_6MatrixIdLin1ELin1ELi0ELin1ELin1EEEKNS_14CwiseNullaryOpINS1_18scalar_constant_opIdEES6_EEEC1ERS6_RSB_RKS3_"
 "_ZN5Eigen13CwiseBinaryOpINS_8internal20scalar_difference_opIN4stan4math3varES5_EEKNS_14CwiseNullaryOpINS1_18scalar_constant_opIS5_EEKNS_5ArrayIS5_Lin1ELi1ELi0ELin1ELi1EEEEEKNS_12ArrayWrapperIKNS_6MatrixIS5_Lin1ELi1ELi0ELin1ELi1EEEEEEC1ERSE_RSK_RKS6_"
 "_ZN5Eigen13CwiseBinaryOpINS_8internal20scalar_difference_opIN4stan4math3varEdEEKNS_6MatrixIS5_Lin1ELi1ELi0ELin1ELi1EEEKNS7_IdLin1ELi1ELi0ELin1ELi1EEEEC1ERS9_RSB_RKS6_"
 "_ZN5Eigen13CwiseBinaryOpINS_8internal20scalar_difference_opIddEEKNS_14CwiseNullaryOpINS1_18scalar_constant_opIdEEKNS_5ArrayIdLin1ELi1ELi0ELin1ELi1EEEEEKNS_12ArrayWrapperIKNS_6MatrixIdLin1ELi1ELi0ELin1ELi1EEEEEEC1ERSB_RSH_RKS3_"
 "_ZN5Eigen13CwiseBinaryOpINS_8internal20scalar_difference_opIddEEKNS_14CwiseNullaryOpINS1_18scalar_identity_opIdEENS_6MatrixIdLin1ELin1ELi0ELin1ELin1EEEEEKNS_7ProductINS0_INS1_17scalar_product_opIddEEKNS4_INS1_18scalar_constant_opIdEEKNS7_IdLin1ELi1ELi0ELin1ELi1EEEEESH_EENS_9TransposeISH_EELi0EEEEC1ERSA_RSO_RKS3_"
 "_ZN5Eigen13CwiseBinaryOpINS_8internal20scalar_difference_opIddEEKNS_6MatrixIdLin1ELi1ELi0ELin1ELi1EEES6_EC1ERKS7_"
 "_ZN5Eigen13CwiseBinaryOpINS_8internal20scalar_difference_opIddEEKNS_6MatrixIdLin1ELi1ELi0ELin1ELi1EEES6_EC1ERS6_S8_RKS3_"
 "_ZN5Eigen13CwiseBinaryOpINS_8internal22scalar_conj_product_opIddEEKNS_5BlockINS_6MatrixIdLin1ELi1ELi0ELin1ELi1EEELin1ELi1ELb0EEEKNS4_INS4_INS5_IdLin1ELin1ELi0ELin1ELin1EEELin1ELi1ELb1EEELin1ELi1ELb0EEEEC1ERS8_RSC_RKS3_"
 "_ZN5Eigen13CwiseBinaryOpINS_8internal22scalar_conj_product_opIddEEKNS_6MatrixIdLin1ELi1ELi0ELin1ELi1EEES6_EC1ERS6_S8_RKS3_"
 "_ZN5Eigen13CwiseBinaryOpINS_8internal22scalar_conj_product_opIddEEKNS_9TransposeIKNS_6MatrixIdLi1ELin1ELi1ELi1ELin1EEEEEKNS5_IdLin1ELi1ELi0ELin1ELi1EEEEC1ERS9_RSB_RKS3_"
 "_ZN5Eigen13TransposeImplIKNS_3MapINS_6MatrixIdLi1ELin1ELi1ELi1ELin1EEELi0ENS_6StrideILi0ELi0EEEEENS_5DenseEEC2Ev"
 "_ZN5Eigen13TransposeImplIKNS_3MapINS_6MatrixIdLin1ELin1ELi0ELin1ELin1EEELi0ENS_6StrideILi0ELi0EEEEENS_5DenseEEC2Ev"
 "_ZN5Eigen13TransposeImplIKNS_5BlockINS1_INS_6MatrixIdLin1ELin1ELi0ELin1ELin1EEELin1ELin1ELb0EEELi1ELin1ELb0EEENS_5DenseEE4dataEv"
 "_ZN5Eigen13TransposeImplIKNS_5BlockINS1_INS_6MatrixIdLin1ELin1ELi0ELin1ELin1EEELin1ELin1ELb0EEELi1ELin1ELb0EEENS_5DenseEEC2Ev"
 "_ZN5Eigen13TransposeImplIKNS_5BlockINS_6MatrixIdLin1ELin1ELi0ELin1ELin1EEELi1ELin1ELb0EEENS_5DenseEE4dataEv"
 "_ZN5Eigen13TransposeImplIKNS_5BlockINS_6MatrixIdLin1ELin1ELi0ELin1ELin1EEELi1ELin1ELb0EEENS_5DenseEEC2Ev"
 "_ZN5Eigen13TransposeImplIKNS_5BlockINS_6MatrixIdLin1ELin1ELi0ELin1ELin1EEELin1ELin1ELb0EEENS_5DenseEEC2Ev"
 "_ZN5Eigen13TransposeImplIKNS_6MatrixIdLi1ELin1ELi1ELi1ELin1EEENS_5DenseEEC2Ev"
 "_ZN5Eigen13TransposeImplIKNS_6MatrixIdLin1ELi1ELi0ELin1ELi1EEENS_5DenseEEC2Ev"
 "_ZN5Eigen13TransposeImplIKNS_6MatrixIdLin1ELin1ELi0ELin1ELin1EEENS_5DenseEEC2Ev"
 "_ZN5Eigen13TransposeImplINS_3MapINS_6MatrixIdLin1ELin1ELi0ELin1ELin1EEELi0ENS_6StrideILi0ELi0EEEEENS_5DenseEEC2Ev"
 "_ZN5Eigen13TransposeImplINS_6MatrixIdLin1ELi1ELi0ELin1ELi1EEENS_5DenseEEC2Ev"
 "_ZN5Eigen13TransposeImplINS_6MatrixIdLin1ELin1ELi0ELin1ELin1EEENS_5DenseEEC2Ev"
 "_ZN5Eigen14CwiseNullaryOpINS_8internal18scalar_constant_opIN4stan4math3varEEEKNS_5ArrayIS5_Lin1ELi1ELi0ELin1ELi1EEEEC1ERKSA_"
 "_ZN5Eigen14CwiseNullaryOpINS_8internal18scalar_constant_opIN4stan4math3varEEEKNS_5ArrayIS5_Lin1ELi1ELi0ELin1ELi1EEEEC1ExxRKS6_"
 "_ZN5Eigen14CwiseNullaryOpINS_8internal18scalar_constant_opIN4stan4math3varEEENS_6MatrixIS5_Lin1ELi1ELi0ELin1ELi1EEEEC1ExxRKS6_"
 "_ZN5Eigen14CwiseNullaryOpINS_8internal18scalar_constant_opIdEEKNS_5ArrayIdLin1ELi1ELi0ELin1ELi1EEEEC1ERKS7_"
 "_ZN5Eigen14CwiseNullaryOpINS_8internal18scalar_constant_opIdEEKNS_5ArrayIdLin1ELi1ELi0ELin1ELi1EEEEC1ExxRKS3_"
 "_ZN5Eigen14CwiseNullaryOpINS_8internal18scalar_constant_opIdEEKNS_6MatrixIdLi1ELin1ELi1ELi1ELin1EEEEC1ERKS7_"
 "_ZN5Eigen14CwiseNullaryOpINS_8internal18scalar_constant_opIdEEKNS_6MatrixIdLi1ELin1ELi1ELi1ELin1EEEEC1ExxRKS3_"
 "_ZN5Eigen14CwiseNullaryOpINS_8internal18scalar_constant_opIdEEKNS_6MatrixIdLin1ELi1ELi0ELin1ELi1EEEEC1ERKS7_"
 "_ZN5Eigen14CwiseNullaryOpINS_8internal18scalar_constant_opIdEEKNS_6MatrixIdLin1ELi1ELi0ELin1ELi1EEEEC1ExxRKS3_"
 "_ZN5Eigen14CwiseNullaryOpINS_8internal18scalar_constant_opIdEEKNS_6MatrixIdLin1ELin1ELi0ELin1ELin1EEEEC1ERKS7_"
 "_ZN5Eigen14CwiseNullaryOpINS_8internal18scalar_constant_opIdEEKNS_6MatrixIdLin1ELin1ELi0ELin1ELin1EEEEC1ExxRKS3_"
 "_ZN5Eigen14CwiseNullaryOpINS_8internal18scalar_constant_opIdEENS_5ArrayIdLin1ELi1ELi0ELin1ELi1EEEEC1ERKS6_"
 "_ZN5Eigen14CwiseNullaryOpINS_8internal18scalar_constant_opIdEENS_5ArrayIdLin1ELi1ELi0ELin1ELi1EEEEC1ExxRKS3_"
 "_ZN5Eigen14CwiseNullaryOpINS_8internal18scalar_constant_opIdEENS_5ArrayIdLin1ELin1ELi0ELin1ELin1EEEEC1ExxRKS3_"
 "_ZN5Eigen14CwiseNullaryOpINS_8internal18scalar_constant_opIdEENS_6MatrixIdLi4ELi4ELi0ELi4ELi4EEEEC1ExxRKS3_"
 "_ZN5Eigen14CwiseNullaryOpINS_8internal18scalar_constant_opIdEENS_6MatrixIdLin1ELi1ELi0ELin1ELi1EEEEC1ERKS6_"
 "_ZN5Eigen14CwiseNullaryOpINS_8internal18scalar_constant_opIdEENS_6MatrixIdLin1ELi1ELi0ELin1ELi1EEEEC1ExxRKS3_"
 "_ZN5Eigen14CwiseNullaryOpINS_8internal18scalar_constant_opIdEENS_6MatrixIdLin1ELin1ELi0ELin1ELin1EEEEC1ExxRKS3_"
 "_ZN5Eigen14CwiseNullaryOpINS_8internal18scalar_identity_opIdEENS_6MatrixIdLin1ELin1ELi0ELin1ELin1EEEEC1ERKS6_"
 "_ZN5Eigen14CwiseNullaryOpINS_8internal18scalar_identity_opIdEENS_6MatrixIdLin1ELin1ELi0ELin1ELin1EEEEC1ExxRKS3_"
 "_ZN5Eigen14CwiseUnaryViewINS_10MatrixBaseINS_3MapINS_6MatrixIPN4stan4math4variELin1ELi1ELi0ELin1ELi1EEELi0ENS_6StrideILi0ELi0EEEEEE6adj_OpESB_EC1ERSB_RKSD_"
 "_ZN5Eigen14CwiseUnaryViewINS_10MatrixBaseINS_3MapINS_6MatrixIPN4stan4math4variELin1ELin1ELi0ELin1ELin1EEELi0ENS_6StrideILi0ELi0EEEEEE6adj_OpESB_EC1ERSB_RKSD_"
 "_ZN5Eigen14CwiseUnaryViewINS_10MatrixBaseINS_6MatrixIN4stan4math3varELin1ELi1ELi0ELin1ELi1EEEE5vi_OpES6_EC1ERS6_RKS8_"
 "_ZN5Eigen14CwiseUnaryViewINS_10MatrixBaseINS_6MatrixIN4stan4math3varELin1ELi1ELi0ELin1ELi1EEEE6adj_OpES6_EC1ERS6_RKS8_"
 "_ZN5Eigen14JacobiRotationIdE10makeGivensERKdS3_Pd"
 "_ZN5Eigen14JacobiRotationIdE10makeGivensERKdS3_PdNS_8internal10false_typeE"
 "_ZN5Eigen14JacobiRotationIdE1cEv"
 "_ZN5Eigen14JacobiRotationIdE1sEv"
 "_ZN5Eigen14JacobiRotationIdEC1ERKdS3_"
 "_ZN5Eigen14JacobiRotationIdEC1Ev"
 "_ZN5Eigen14TranspositionsILin1ELin1EiE7indicesEv"
 "_ZN5Eigen14TranspositionsILin1ELin1EiEC1Ex"
 "_ZN5Eigen14TranspositionsILin1ELin1EiED1Ev"
 "_ZN5Eigen14TriangularBaseINS_14TriangularViewIKNS_6MatrixIdLin1ELin1ELi0ELin1ELin1EEELj1EEEEC2Ev"
 "_ZN5Eigen14TriangularBaseINS_14TriangularViewIKNS_9TransposeIKNS_5BlockINS_6MatrixIdLin1ELin1ELi0ELin1ELin1EEELin1ELin1ELb0EEEEELj2EEEEC2Ev"
 "_ZN5Eigen14TriangularBaseINS_14TriangularViewIKNS_9TransposeIKNS_6MatrixIdLin1ELin1ELi0ELin1ELin1EEEEELj2EEEEC2Ev"
 "_ZN5Eigen14TriangularBaseINS_14TriangularViewINS_6MatrixIdLin1ELin1ELi0ELin1ELin1EEELj1EEEE6resizeExx"
 "_ZN5Eigen14TriangularBaseINS_14TriangularViewINS_6MatrixIdLin1ELin1ELi0ELin1ELin1EEELj1EEEE7derivedEv"
 "_ZN5Eigen14TriangularBaseINS_14TriangularViewINS_6MatrixIdLin1ELin1ELi0ELin1ELin1EEELj1EEEEC2Ev"
 "_ZN5Eigen14TriangularBaseINS_15SelfAdjointViewINS_5BlockINS_6MatrixIdLin1ELin1ELi0ELin1ELin1EEELin1ELin1ELb0EEELj1EEEEC2Ev"
 "_ZN5Eigen14TriangularViewIKNS_6MatrixIdLin1ELin1ELi0ELin1ELin1EEELj1EEC1ERS3_"
 "_ZN5Eigen14TriangularViewIKNS_9TransposeIKNS_5BlockINS_6MatrixIdLin1ELin1ELi0ELin1ELin1EEELin1ELin1ELb0EEEEELj2EEC1ERS8_"
 "_ZN5Eigen14TriangularViewIKNS_9TransposeIKNS_6MatrixIdLin1ELin1ELi0ELin1ELin1EEEEELj2EEC1ERS6_"
 "_ZN5Eigen14TriangularViewINS_6MatrixIdLin1ELin1ELi0ELin1ELin1EEELj1EE16nestedExpressionEv"
 "_ZN5Eigen14TriangularViewINS_6MatrixIdLin1ELin1ELi0ELin1ELin1EEELj1EEC1ERS2_"
 "_ZN5Eigen15DenseCoeffsBaseINS_6MatrixIN4stan4math3varELin1ELi1ELi0ELin1ELi1EEELi1EE8coeffRefEx"
 "_ZN5Eigen15DenseCoeffsBaseINS_6MatrixIN4stan4math3varELin1ELi1ELi0ELin1ELi1EEELi1EEclEx"
 "_ZN5Eigen15DenseCoeffsBaseINS_6MatrixIdLi1ELin1ELi1ELi1ELin1EEELi1EE8coeffRefEx"
 "_ZN5Eigen15DenseCoeffsBaseINS_6MatrixIdLi1ELin1ELi1ELi1ELin1EEELi1EEclEx"
 "_ZN5Eigen15DenseCoeffsBaseINS_6MatrixIdLi4ELi4ELi0ELi4ELi4EEELi1EE8coeffRefExx"
 "_ZN5Eigen15DenseCoeffsBaseINS_6MatrixIdLi4ELi4ELi0ELi4ELi4EEELi1EEclExx"
 "_ZN5Eigen15DenseCoeffsBaseINS_6MatrixIdLin1ELi1ELi0ELin1ELi1EEELi1EE8coeffRefEx"
 "_ZN5Eigen15DenseCoeffsBaseINS_6MatrixIdLin1ELi1ELi0ELin1ELi1EEELi1EEclEx"
 "_ZN5Eigen15DenseCoeffsBaseINS_6MatrixIdLin1ELi1ELi0ELin1ELi1EEELi1EEixEx"
 "_ZN5Eigen15DenseCoeffsBaseINS_6MatrixIdLin1ELin1ELi0ELin1ELin1EEELi1EE8coeffRefEx"
 "_ZN5Eigen15DenseCoeffsBaseINS_6MatrixIdLin1ELin1ELi0ELin1ELin1EEELi1EE8coeffRefExx"
 "_ZN5Eigen15DenseCoeffsBaseINS_6MatrixIdLin1ELin1ELi0ELin1ELin1EEELi1EEclEx"
 "_ZN5Eigen15DenseCoeffsBaseINS_6MatrixIdLin1ELin1ELi0ELin1ELin1EEELi1EEclExx"
 "_ZN5Eigen15DiagonalWrapperIKNS_5BlockINS_8DiagonalINS_6MatrixIdLin1ELin1ELi0ELin1ELin1EEELi0EEELin1ELi1ELb0EEEEC1ERKS8_"
 "_ZN5Eigen15DiagonalWrapperIKNS_5BlockINS_8DiagonalINS_6MatrixIdLin1ELin1ELi0ELin1ELin1EEELi0EEELin1ELi1ELb0EEEEC1ERS7_"
 "_ZN5Eigen15PlainObjectBaseINS_6MatrixIN4stan4math3varELin1ELi1ELi0ELin1ELi1EEEE10resizeLikeINS_12CwiseUnaryOpIZNS3_18apply_scalar_unaryINS3_7exp_funES5_E5applyERKS5_EUlS4_E_SC_EEEEvRKNS_9EigenBaseIT_EE"
 "_ZN5Eigen15PlainObjectBaseINS_6MatrixIN4stan4math3varELin1ELi1ELi0ELin1ELi1EEEE10resizeLikeINS_12CwiseUnaryOpIZNS3_18apply_scalar_unaryINS3_7log_funES5_E5applyERKS5_EUlS4_E_SC_EEEEvRKNS_9EigenBaseIT_EE"
 "_ZN5Eigen15PlainObjectBaseINS_6MatrixIN4stan4math3varELin1ELi1ELi0ELin1ELi1EEEE10resizeLikeINS_13CwiseBinaryOpINS_8internal13scalar_sum_opIdS4_EEKNS_14CwiseNullaryOpINS9_18scalar_constant_opIdEEKNS_5ArrayIdLin1ELi1ELi0ELin1ELi1EEEEEKNS_12ArrayWrapperIKS5_EEEEEEvRKNS_9EigenBaseIT_EE"
 "_ZN5Eigen15PlainObjectBaseINS_6MatrixIN4stan4math3varELin1ELi1ELi0ELin1ELi1EEEE10resizeLikeINS_13CwiseBinaryOpINS_8internal17scalar_product_opIS4_S4_EEKS5_SC_EEEEvRKNS_9EigenBaseIT_EE"
 "_ZN5Eigen15PlainObjectBaseINS_6MatrixIN4stan4math3varELin1ELi1ELi0ELin1ELi1EEEE10resizeLikeINS_13CwiseBinaryOpINS_8internal18scalar_quotient_opIdS4_EEKNS_14CwiseNullaryOpINS9_18scalar_constant_opIdEEKNS_5ArrayIdLin1ELi1ELi0ELin1ELi1EEEEEKNS_12ArrayWrapperIKS5_EEEEEEvRKNS_9EigenBaseIT_EE"
 "_ZN5Eigen15PlainObjectBaseINS_6MatrixIN4stan4math3varELin1ELi1ELi0ELin1ELi1EEEE10resizeLikeINS_13CwiseBinaryOpINS_8internal20scalar_difference_opIS4_S4_EEKNS_14CwiseNullaryOpINS9_18scalar_constant_opIS4_EEKNS_5ArrayIS4_Lin1ELi1ELi0ELin1ELi1EEEEEKNS_12ArrayWrapperIKS5_EEEEEEvRKNS_9EigenBaseIT_EE"
 "_ZN5Eigen15PlainObjectBaseINS_6MatrixIN4stan4math3varELin1ELi1ELi0ELin1ELi1EEEE10resizeLikeINS_13CwiseBinaryOpINS_8internal20scalar_difference_opIS4_dEEKS5_KNS1_IdLin1ELi1ELi0ELin1ELi1EEEEEEEvRKNS_9EigenBaseIT_EE"
 "_ZN5Eigen15PlainObjectBaseINS_6MatrixIN4stan4math3varELin1ELi1ELi0ELin1ELi1EEEE10resizeLikeINS_3MapIS5_Li0ENS_6StrideILi0ELi0EEEEEEEvRKNS_9EigenBaseIT_EE"
 "_ZN5Eigen15PlainObjectBaseINS_6MatrixIN4stan4math3varELin1ELi1ELi0ELin1ELi1EEEE12_set_noaliasINS1_IdLin1ELi1ELi0ELin1ELi1EEEEERS5_RKNS_9DenseBaseIT_EE"
 "_ZN5Eigen15PlainObjectBaseINS_6MatrixIN4stan4math3varELin1ELi1ELi0ELin1ELi1EEEE12_set_noaliasINS_12CwiseUnaryOpIZNS3_18apply_scalar_unaryINS3_7exp_funES5_E5applyERKS5_EUlS4_E_SC_EEEERS5_RKNS_9DenseBaseIT_EE"
 "_ZN5Eigen15PlainObjectBaseINS_6MatrixIN4stan4math3varELin1ELi1ELi0ELin1ELi1EEEE12_set_noaliasINS_12CwiseUnaryOpIZNS3_18apply_scalar_unaryINS3_7log_funES5_E5applyERKS5_EUlS4_E_SC_EEEERS5_RKNS_9DenseBaseIT_EE"
 "_ZN5Eigen15PlainObjectBaseINS_6MatrixIN4stan4math3varELin1ELi1ELi0ELin1ELi1EEEE12_set_noaliasINS_13CwiseBinaryOpINS_8internal13scalar_sum_opIdS4_EEKNS_14CwiseNullaryOpINS9_18scalar_constant_opIdEEKNS_5ArrayIdLin1ELi1ELi0ELin1ELi1EEEEEKNS_12ArrayWrapperIKS5_EEEEEERS5_RKNS_9DenseBaseIT_EE"
 "_ZN5Eigen15PlainObjectBaseINS_6MatrixIN4stan4math3varELin1ELi1ELi0ELin1ELi1EEEE12_set_noaliasINS_13CwiseBinaryOpINS_8internal17scalar_product_opIS4_S4_EEKS5_SC_EEEERS5_RKNS_9DenseBaseIT_EE"
 "_ZN5Eigen15PlainObjectBaseINS_6MatrixIN4stan4math3varELin1ELi1ELi0ELin1ELi1EEEE12_set_noaliasINS_13CwiseBinaryOpINS_8internal18scalar_quotient_opIdS4_EEKNS_14CwiseNullaryOpINS9_18scalar_constant_opIdEEKNS_5ArrayIdLin1ELi1ELi0ELin1ELi1EEEEEKNS_12ArrayWrapperIKS5_EEEEEERS5_RKNS_9DenseBaseIT_EE"
 "_ZN5Eigen15PlainObjectBaseINS_6MatrixIN4stan4math3varELin1ELi1ELi0ELin1ELi1EEEE12_set_noaliasINS_13CwiseBinaryOpINS_8internal20scalar_difference_opIS4_S4_EEKNS_14CwiseNullaryOpINS9_18scalar_constant_opIS4_EEKNS_5ArrayIS4_Lin1ELi1ELi0ELin1ELi1EEEEEKNS_12ArrayWrapperIKS5_EEEEEERS5_RKNS_9DenseBaseIT_EE"
 "_ZN5Eigen15PlainObjectBaseINS_6MatrixIN4stan4math3varELin1ELi1ELi0ELin1ELi1EEEE12_set_noaliasINS_13CwiseBinaryOpINS_8internal20scalar_difference_opIS4_dEEKS5_KNS1_IdLin1ELi1ELi0ELin1ELi1EEEEEEERS5_RKNS_9DenseBaseIT_EE"
 "_ZN5Eigen15PlainObjectBaseINS_6MatrixIN4stan4math3varELin1ELi1ELi0ELin1ELi1EEEE12_set_noaliasINS_3MapIS5_Li0ENS_6StrideILi0ELi0EEEEEEERS5_RKNS_9DenseBaseIT_EE"
 "_ZN5Eigen15PlainObjectBaseINS_6MatrixIN4stan4math3varELin1ELi1ELi0ELin1ELi1EEEE22_check_template_paramsEv"
 "_ZN5Eigen15PlainObjectBaseINS_6MatrixIN4stan4math3varELin1ELi1ELi0ELin1ELi1EEEE4_setINS_14CwiseNullaryOpINS_8internal18scalar_constant_opIS4_EES5_EEEERS5_RKNS_9DenseBaseIT_EE"
 "_ZN5Eigen15PlainObjectBaseINS_6MatrixIN4stan4math3varELin1ELi1ELi0ELin1ELi1EEEE4_setIS5_EERS5_RKNS_9DenseBaseIT_EE"
 "_ZN5Eigen15PlainObjectBaseINS_6MatrixIN4stan4math3varELin1ELi1ELi0ELin1ELi1EEEE4swapIS5_EEvRNS_9DenseBaseIT_EE"
 "_ZN5Eigen15PlainObjectBaseINS_6MatrixIN4stan4math3varELin1ELi1ELi0ELin1ELi1EEEE6_init1INS1_IdLin1ELi1ELi0ELin1ELi1EEES8_EEvRKNS_9DenseBaseIT0_EE"
 "_ZN5Eigen15PlainObjectBaseINS_6MatrixIN4stan4math3varELin1ELi1ELi0ELin1ELi1EEEE6_init1IiEEvxPNS_8internal9enable_ifIXaaooneLNS_9DenseBaseIS5_EUt_En1ELi1EntsrNS8_14is_convertibleIT_S4_EE5valueoontLNS8_7is_sameINS_9MatrixXprENS_8ArrayXprEEUt_E0EeqLSC_n1EL_ZNS_L7DynamicEEESE_E4typeE"
 "_ZN5Eigen15PlainObjectBaseINS_6MatrixIN4stan4math3varELin1ELi1ELi0ELin1ELi1EEEE6_init2IxxEEvxxPNS_8internal9enable_ifILb1ET_E4typeE"
 "_ZN5Eigen15PlainObjectBaseINS_6MatrixIN4stan4math3varELin1ELi1ELi0ELin1ELi1EEEE6resizeEx"
 "_ZN5Eigen15PlainObjectBaseINS_6MatrixIN4stan4math3varELin1ELi1ELi0ELin1ELi1EEEE6resizeExx"
 "_ZN5Eigen15PlainObjectBaseINS_6MatrixIN4stan4math3varELin1ELi1ELi0ELin1ELi1EEEEC2ERKS6_"
 "_ZN5Eigen15PlainObjectBaseINS_6MatrixIN4stan4math3varELin1ELi1ELi0ELin1ELi1EEEEC2Ev"
 "_ZN5Eigen15PlainObjectBaseINS_6MatrixIN4stan4math3varELin1ELi1ELi0ELin1ELi1EEEEC2INS_12CwiseUnaryOpIZNS3_18apply_scalar_unaryINS3_7exp_funES5_E5applyERKS5_EUlS4_E_SC_EEEERKNS_9DenseBaseIT_EE"
 "_ZN5Eigen15PlainObjectBaseINS_6MatrixIN4stan4math3varELin1ELi1ELi0ELin1ELi1EEEEC2INS_12CwiseUnaryOpIZNS3_18apply_scalar_unaryINS3_7log_funES5_E5applyERKS5_EUlS4_E_SC_EEEERKNS_9DenseBaseIT_EE"
 "_ZN5Eigen15PlainObjectBaseINS_6MatrixIN4stan4math3varELin1ELi1ELi0ELin1ELi1EEEEC2INS_13CwiseBinaryOpINS_8internal13scalar_sum_opIdS4_EEKNS_14CwiseNullaryOpINS9_18scalar_constant_opIdEEKNS_5ArrayIdLin1ELi1ELi0ELin1ELi1EEEEEKNS_12ArrayWrapperIKS5_EEEEEERKNS_9DenseBaseIT_EE"
 "_ZN5Eigen15PlainObjectBaseINS_6MatrixIN4stan4math3varELin1ELi1ELi0ELin1ELi1EEEEC2INS_13CwiseBinaryOpINS_8internal17scalar_product_opIS4_S4_EEKS5_SC_EEEERKNS_9DenseBaseIT_EE"
 "_ZN5Eigen15PlainObjectBaseINS_6MatrixIN4stan4math3varELin1ELi1ELi0ELin1ELi1EEEEC2INS_13CwiseBinaryOpINS_8internal18scalar_quotient_opIdS4_EEKNS_14CwiseNullaryOpINS9_18scalar_constant_opIdEEKNS_5ArrayIdLin1ELi1ELi0ELin1ELi1EEEEEKNS_12ArrayWrapperIKS5_EEEEEERKNS_9DenseBaseIT_EE"
 "_ZN5Eigen15PlainObjectBaseINS_6MatrixIN4stan4math3varELin1ELi1ELi0ELin1ELi1EEEEC2INS_13CwiseBinaryOpINS_8internal20scalar_difference_opIS4_S4_EEKNS_14CwiseNullaryOpINS9_18scalar_constant_opIS4_EEKNS_5ArrayIS4_Lin1ELi1ELi0ELin1ELi1EEEEEKNS_12ArrayWrapperIKS5_EEEEEERKNS_9DenseBaseIT_EE"
 "_ZN5Eigen15PlainObjectBaseINS_6MatrixIN4stan4math3varELin1ELi1ELi0ELin1ELi1EEEEC2INS_13CwiseBinaryOpINS_8internal20scalar_difference_opIS4_dEEKS5_KNS1_IdLin1ELi1ELi0ELin1ELi1EEEEEEERKNS_9DenseBaseIT_EE"
 "_ZN5Eigen15PlainObjectBaseINS_6MatrixIN4stan4math3varELin1ELi1ELi0ELin1ELi1EEEEC2INS_3MapIS5_Li0ENS_6StrideILi0ELi0EEEEEEERKNS_9DenseBaseIT_EE"
 "_ZN5Eigen15PlainObjectBaseINS_6MatrixIN4stan4math3varELin1ELi1ELi0ELin1ELi1EEEED2Ev"
 "_ZN5Eigen15PlainObjectBaseINS_6MatrixIPN4stan4math4variELin1ELi1ELi0ELin1ELi1EEEE22_check_template_paramsEv"
 "_ZN5Eigen15PlainObjectBaseINS_6MatrixIPN4stan4math4variELin1ELin1ELi0ELin1ELin1EEEE22_check_template_paramsEv"
 "_ZN5Eigen15PlainObjectBaseINS_6MatrixIdLi1ELi1ELi0ELi1ELi1EEEE22_check_template_paramsEv"
 "_ZN5Eigen15PlainObjectBaseINS_6MatrixIdLi1ELi1ELi0ELi1ELi1EEEE6_init2IxxEEvxxPNS_8internal9enable_ifILb1ET_E4typeE"
 "_ZN5Eigen15PlainObjectBaseINS_6MatrixIdLi1ELi1ELi0ELi1ELi1EEEE6resizeExx"
 "_ZN5Eigen15PlainObjectBaseINS_6MatrixIdLi1ELi1ELi0ELi1ELi1EEEE8coeffRefExx"
 "_ZN5Eigen15PlainObjectBaseINS_6MatrixIdLi1ELi1ELi0ELi1ELi1EEEEC2Ev"
 "_ZN5Eigen15PlainObjectBaseINS_6MatrixIdLi1ELin1ELi1ELi1ELin1EEEE10resizeLikeINS_13CwiseBinaryOpINS_8internal17scalar_product_opIddEEKNS_14CwiseNullaryOpINS6_18scalar_constant_opIdEEKS2_EESC_EEEEvRKNS_9EigenBaseIT_EE"
 "_ZN5Eigen15PlainObjectBaseINS_6MatrixIdLi1ELin1ELi1ELi1ELin1EEEE12_set_noaliasINS_13CwiseBinaryOpINS_8internal17scalar_product_opIddEEKNS_14CwiseNullaryOpINS6_18scalar_constant_opIdEEKS2_EESC_EEEERS2_RKNS_9DenseBaseIT_EE"
 "_ZN5Eigen15PlainObjectBaseINS_6MatrixIdLi1ELin1ELi1ELi1ELin1EEEE22_check_template_paramsEv"
 "_ZN5Eigen15PlainObjectBaseINS_6MatrixIdLi1ELin1ELi1ELi1ELin1EEEE4dataEv"
 "_ZN5Eigen15PlainObjectBaseINS_6MatrixIdLi1ELin1ELi1ELi1ELin1EEEE4swapIS2_EEvRNS_9DenseBaseIT_EE"
 "_ZN5Eigen15PlainObjectBaseINS_6MatrixIdLi1ELin1ELi1ELi1ELin1EEEE6_init1IiEEvxPNS_8internal9enable_ifIXaaooneLNS_9DenseBaseIS2_EUt_En1ELi1EntsrNS5_14is_convertibleIT_dEE5valueoontLNS5_7is_sameINS_9MatrixXprENS_8ArrayXprEEUt_E0EeqLS9_n1EL_ZNS_L7DynamicEEESB_E4typeE"
 "_ZN5Eigen15PlainObjectBaseINS_6MatrixIdLi1ELin1ELi1ELi1ELin1EEEE6resizeEx"
 "_ZN5Eigen15PlainObjectBaseINS_6MatrixIdLi1ELin1ELi1ELi1ELin1EEEE6resizeExx"
 "_ZN5Eigen15PlainObjectBaseINS_6MatrixIdLi1ELin1ELi1ELi1ELin1EEEEC2ERKS3_"
 "_ZN5Eigen15PlainObjectBaseINS_6MatrixIdLi1ELin1ELi1ELi1ELin1EEEEC2Ev"
 "_ZN5Eigen15PlainObjectBaseINS_6MatrixIdLi1ELin1ELi1ELi1ELin1EEEEC2INS_13CwiseBinaryOpINS_8internal17scalar_product_opIddEEKNS_14CwiseNullaryOpINS6_18scalar_constant_opIdEEKS2_EESC_EEEERKNS_9DenseBaseIT_EE"
 "_ZN5Eigen15PlainObjectBaseINS_6MatrixIdLi1ELin1ELi1ELi1ELin1EEEED2Ev"
 "_ZN5Eigen15PlainObjectBaseINS_6MatrixIdLi4ELi4ELi0ELi4ELi4EEEE22_check_template_paramsEv"
 "_ZN5Eigen15PlainObjectBaseINS_6MatrixIdLi4ELi4ELi0ELi4ELi4EEEE4_setINS_14CwiseNullaryOpINS_8internal18scalar_constant_opIdEES2_EEEERS2_RKNS_9DenseBaseIT_EE"
 "_ZN5Eigen15PlainObjectBaseINS_6MatrixIdLi4ELi4ELi0ELi4ELi4EEEE4dataEv"
 "_ZN5Eigen15PlainObjectBaseINS_6MatrixIdLi4ELi4ELi0ELi4ELi4EEEEC2ENS_8internal42constructor_without_unaligned_array_assertE"
 "_ZN5Eigen15PlainObjectBaseINS_6MatrixIdLin1ELi1ELi0ELin1ELi1EEEE10resizeLikeINS_12CwiseUnaryOpIZN4stan4math18apply_scalar_unaryINS7_7exp_funES2_E5applyERKS2_EUldE_SB_EEEEvRKNS_9EigenBaseIT_EE"
 "_ZN5Eigen15PlainObjectBaseINS_6MatrixIdLin1ELi1ELi0ELin1ELi1EEEE10resizeLikeINS_12CwiseUnaryOpIZN4stan4math18apply_scalar_unaryINS7_7log_funES2_E5applyERKS2_EUldE_SB_EEEEvRKNS_9EigenBaseIT_EE"
 "_ZN5Eigen15PlainObjectBaseINS_6MatrixIdLin1ELi1ELi0ELin1ELi1EEEE10resizeLikeINS_13CwiseBinaryOpINS_8internal13scalar_sum_opIddEEKNS5_INS6_17scalar_product_opIddEEKNS_12ArrayWrapperIKS2_EEKNS_12CwiseUnaryOpINS6_13scalar_exp_opIdEESE_EEEESE_EEEEvRKNS_9EigenBaseIT_EE"
 "_ZN5Eigen15PlainObjectBaseINS_6MatrixIdLin1ELi1ELi0ELin1ELi1EEEE10resizeLikeINS_13CwiseBinaryOpINS_8internal13scalar_sum_opIddEEKNS_14CwiseNullaryOpINS6_18scalar_constant_opIdEEKNS_5ArrayIdLin1ELi1ELi0ELin1ELi1EEEEEKNS_12ArrayWrapperIKS2_EEEEEEvRKNS_9EigenBaseIT_EE"
 "_ZN5Eigen15PlainObjectBaseINS_6MatrixIdLin1ELi1ELi0ELin1ELi1EEEE10resizeLikeINS_13CwiseBinaryOpINS_8internal13scalar_sum_opIddEEKNS_7ProductINS1_IdLin1ELin1ELi0ELin1ELin1EEES2_Li0EEEKS2_EEEEvRKNS_9EigenBaseIT_EE"
 "_ZN5Eigen15PlainObjectBaseINS_6MatrixIdLin1ELi1ELi0ELin1ELi1EEEE10resizeLikeINS_13CwiseBinaryOpINS_8internal17scalar_product_opIddEEKS2_S9_EEEEvRKNS_9EigenBaseIT_EE"
 "_ZN5Eigen15PlainObjectBaseINS_6MatrixIdLin1ELi1ELi0ELin1ELi1EEEE10resizeLikeINS_13CwiseBinaryOpINS_8internal18scalar_quotient_opIddEEKNS_14CwiseNullaryOpINS6_18scalar_constant_opIdEEKNS_5ArrayIdLin1ELi1ELi0ELin1ELi1EEEEEKNS_12ArrayWrapperIKS2_EEEEEEvRKNS_9EigenBaseIT_EE"
 "_ZN5Eigen15PlainObjectBaseINS_6MatrixIdLin1ELi1ELi0ELin1ELi1EEEE10resizeLikeINS_13CwiseBinaryOpINS_8internal20scalar_difference_opIddEEKNS_14CwiseNullaryOpINS6_18scalar_constant_opIdEEKNS_5ArrayIdLin1ELi1ELi0ELin1ELi1EEEEEKNS_12ArrayWrapperIKS2_EEEEEEvRKNS_9EigenBaseIT_EE"
 "_ZN5Eigen15PlainObjectBaseINS_6MatrixIdLin1ELi1ELi0ELin1ELi1EEEE10resizeLikeINS_13CwiseBinaryOpINS_8internal20scalar_difference_opIddEEKS2_S9_EEEEvRKNS_9EigenBaseIT_EE"
 "_ZN5Eigen15PlainObjectBaseINS_6MatrixIdLin1ELi1ELi0ELin1ELi1EEEE10resizeLikeINS_14CwiseNullaryOpINS_8internal18scalar_constant_opIdEES2_EEEEvRKNS_9EigenBaseIT_EE"
 "_ZN5Eigen15PlainObjectBaseINS_6MatrixIdLin1ELi1ELi0ELin1ELi1EEEE10resizeLikeINS_3MapIS2_Li0ENS_6StrideILi0ELi0EEEEEEEvRKNS_9EigenBaseIT_EE"
 "_ZN5Eigen15PlainObjectBaseINS_6MatrixIdLin1ELi1ELi0ELin1ELi1EEEE10resizeLikeINS_5BlockIKNS1_IdLin1ELin1ELi0ELin1ELin1EEELi1ELin1ELb0EEEEEvRKNS_9EigenBaseIT_EE"
 "_ZN5Eigen15PlainObjectBaseINS_6MatrixIdLin1ELi1ELi0ELin1ELi1EEEE10resizeLikeINS_7ProductINS1_IdLin1ELin1ELi0ELin1ELin1EEES2_Li0EEEEEvRKNS_9EigenBaseIT_EE"
 "_ZN5Eigen15PlainObjectBaseINS_6MatrixIdLin1ELi1ELi0ELin1ELi1EEEE10resizeLikeINS_7ProductINS_9TransposeINS1_IdLin1ELin1ELi0ELin1ELin1EEEEES2_Li0EEEEEvRKNS_9EigenBaseIT_EE"
 "_ZN5Eigen15PlainObjectBaseINS_6MatrixIdLin1ELi1ELi0ELin1ELi1EEEE12_set_noaliasINS_12CwiseUnaryOpINS_8internal14scalar_sqrt_opIdEEKNS_12ArrayWrapperIKS2_EEEEEERS2_RKNS_9DenseBaseIT_EE"
 "_ZN5Eigen15PlainObjectBaseINS_6MatrixIdLin1ELi1ELi0ELin1ELi1EEEE12_set_noaliasINS_12CwiseUnaryOpINS_8internal16scalar_square_opIdEEKNS_12ArrayWrapperIKS2_EEEEEERS2_RKNS_9DenseBaseIT_EE"
 "_ZN5Eigen15PlainObjectBaseINS_6MatrixIdLin1ELi1ELi0ELin1ELi1EEEE12_set_noaliasINS_12CwiseUnaryOpIZN4stan4math18apply_scalar_unaryINS7_7exp_funES2_E5applyERKS2_EUldE_SB_EEEERS2_RKNS_9DenseBaseIT_EE"
 "_ZN5Eigen15PlainObjectBaseINS_6MatrixIdLin1ELi1ELi0ELin1ELi1EEEE12_set_noaliasINS_12CwiseUnaryOpIZN4stan4math18apply_scalar_unaryINS7_7log_funES2_E5applyERKS2_EUldE_SB_EEEERS2_RKNS_9DenseBaseIT_EE"
 "_ZN5Eigen15PlainObjectBaseINS_6MatrixIdLin1ELi1ELi0ELin1ELi1EEEE12_set_noaliasINS_13CwiseBinaryOpINS_8internal13scalar_sum_opIddEEKNS5_INS6_17scalar_product_opIddEEKNS_12ArrayWrapperIKS2_EEKNS_12CwiseUnaryOpINS6_13scalar_exp_opIdEESE_EEEESE_EEEERS2_RKNS_9DenseBaseIT_EE"
 "_ZN5Eigen15PlainObjectBaseINS_6MatrixIdLin1ELi1ELi0ELin1ELi1EEEE12_set_noaliasINS_13CwiseBinaryOpINS_8internal13scalar_sum_opIddEEKNS_14CwiseNullaryOpINS6_18scalar_constant_opIdEEKNS_5ArrayIdLin1ELi1ELi0ELin1ELi1EEEEEKNS_12ArrayWrapperIKS2_EEEEEERS2_RKNS_9DenseBaseIT_EE"
 "_ZN5Eigen15PlainObjectBaseINS_6MatrixIdLin1ELi1ELi0ELin1ELi1EEEE12_set_noaliasINS_13CwiseBinaryOpINS_8internal13scalar_sum_opIddEEKNS_7ProductINS1_IdLin1ELin1ELi0ELin1ELin1EEES2_Li0EEEKS2_EEEERS2_RKNS_9DenseBaseIT_EE"
 "_ZN5Eigen15PlainObjectBaseINS_6MatrixIdLin1ELi1ELi0ELin1ELi1EEEE12_set_noaliasINS_13CwiseBinaryOpINS_8internal17scalar_product_opIddEEKNS_14CwiseNullaryOpINS6_18scalar_constant_opIdEEKS2_EESC_EEEERS2_RKNS_9DenseBaseIT_EE"
 "_ZN5Eigen15PlainObjectBaseINS_6MatrixIdLin1ELi1ELi0ELin1ELi1EEEE12_set_noaliasINS_13CwiseBinaryOpINS_8internal17scalar_product_opIddEEKS2_S9_EEEERS2_RKNS_9DenseBaseIT_EE"
 "_ZN5Eigen15PlainObjectBaseINS_6MatrixIdLin1ELi1ELi0ELin1ELi1EEEE12_set_noaliasINS_13CwiseBinaryOpINS_8internal18scalar_quotient_opIddEEKNS_14CwiseNullaryOpINS6_18scalar_constant_opIdEEKNS_5ArrayIdLin1ELi1ELi0ELin1ELi1EEEEEKNS_12ArrayWrapperIKS2_EEEEEERS2_RKNS_9DenseBaseIT_EE"
 "_ZN5Eigen15PlainObjectBaseINS_6MatrixIdLin1ELi1ELi0ELin1ELi1EEEE12_set_noaliasINS_13CwiseBinaryOpINS_8internal20scalar_difference_opIddEEKNS_14CwiseNullaryOpINS6_18scalar_constant_opIdEEKNS_5ArrayIdLin1ELi1ELi0ELin1ELi1EEEEEKNS_12ArrayWrapperIKS2_EEEEEERS2_RKNS_9DenseBaseIT_EE"
 "_ZN5Eigen15PlainObjectBaseINS_6MatrixIdLin1ELi1ELi0ELin1ELi1EEEE12_set_noaliasINS_13CwiseBinaryOpINS_8internal20scalar_difference_opIddEEKS2_S9_EEEERS2_RKNS_9DenseBaseIT_EE"
 "_ZN5Eigen15PlainObjectBaseINS_6MatrixIdLin1ELi1ELi0ELin1ELi1EEEE12_set_noaliasINS_14CwiseNullaryOpINS_8internal18scalar_constant_opIdEES2_EEEERS2_RKNS_9DenseBaseIT_EE"
 "_ZN5Eigen15PlainObjectBaseINS_6MatrixIdLin1ELi1ELi0ELin1ELi1EEEE12_set_noaliasINS_3MapIS2_Li0ENS_6StrideILi0ELi0EEEEEEERS2_RKNS_9DenseBaseIT_EE"
 "_ZN5Eigen15PlainObjectBaseINS_6MatrixIdLin1ELi1ELi0ELin1ELi1EEEE12_set_noaliasINS_5BlockIKNS1_IdLin1ELin1ELi0ELin1ELin1EEELi1ELin1ELb0EEEEERS2_RKNS_9DenseBaseIT_EE"
 "_ZN5Eigen15PlainObjectBaseINS_6MatrixIdLin1ELi1ELi0ELin1ELi1EEEE12_set_noaliasINS_7ProductINS1_IdLin1ELin1ELi0ELin1ELin1EEES2_Li0EEEEERS2_RKNS_9DenseBaseIT_EE"
 "_ZN5Eigen15PlainObjectBaseINS_6MatrixIdLin1ELi1ELi0ELin1ELi1EEEE12_set_noaliasINS_7ProductINS_9TransposeINS1_IdLin1ELin1ELi0ELin1ELin1EEEEES2_Li0EEEEERS2_RKNS_9DenseBaseIT_EE"
 "_ZN5Eigen15PlainObjectBaseINS_6MatrixIdLin1ELi1ELi0ELin1ELi1EEEE22_check_template_paramsEv"
 "_ZN5Eigen15PlainObjectBaseINS_6MatrixIdLin1ELi1ELi0ELin1ELi1EEEE4_setINS_12CwiseUnaryOpINS_8internal18scalar_opposite_opIdEEKS2_EEEERS2_RKNS_9DenseBaseIT_EE"
 "_ZN5Eigen15PlainObjectBaseINS_6MatrixIdLin1ELi1ELi0ELin1ELi1EEEE4_setINS_13CwiseBinaryOpINS_8internal13scalar_sum_opIddEEKNS5_INS6_17scalar_product_opIddEEKNS_14CwiseNullaryOpINS6_18scalar_constant_opIdEEKS2_EESE_EEKNS5_ISA_SG_KNSB_ISD_S2_EEEEEEEERS2_RKNS_9DenseBaseIT_EE"
 "_ZN5Eigen15PlainObjectBaseINS_6MatrixIdLin1ELi1ELi0ELin1ELi1EEEE4_setINS_13CwiseBinaryOpINS_8internal13scalar_sum_opIddEEKS2_KNS5_INS6_17scalar_product_opIddEEKNS_14CwiseNullaryOpINS6_18scalar_constant_opIdEES9_EES9_EEEEEERS2_RKNS_9DenseBaseIT_EE"
 "_ZN5Eigen15PlainObjectBaseINS_6MatrixIdLin1ELi1ELi0ELin1ELi1EEEE4_setINS_13CwiseBinaryOpINS_8internal18scalar_quotient_opIddEEKS2_KNS_14CwiseNullaryOpINS6_18scalar_constant_opIdEES9_EEEEEERS2_RKNS_9DenseBaseIT_EE"
 "_ZN5Eigen15PlainObjectBaseINS_6MatrixIdLin1ELi1ELi0ELin1ELi1EEEE4_setINS_14CwiseNullaryOpINS_8internal18scalar_constant_opIdEES2_EEEERS2_RKNS_9DenseBaseIT_EE"
 "_ZN5Eigen15PlainObjectBaseINS_6MatrixIdLin1ELi1ELi0ELin1ELi1EEEE4_setINS_14CwiseUnaryViewINS_10MatrixBaseINS1_IN4stan4math3varELin1ELi1ELi0ELin1ELi1EEEE6adj_OpESA_EEEERS2_RKNS_9DenseBaseIT_EE"
 "_ZN5Eigen15PlainObjectBaseINS_6MatrixIdLin1ELi1ELi0ELin1ELi1EEEE4_setINS_3MapIS2_Li0ENS_6StrideILi0ELi0EEEEEEERS2_RKNS_9DenseBaseIT_EE"
 "_ZN5Eigen15PlainObjectBaseINS_6MatrixIdLin1ELi1ELi0ELin1ELi1EEEE4_setINS_5SolveINS_14TriangularViewIKNS_9TransposeIKNS1_IdLin1ELin1ELi0ELin1ELin1EEEEELj2EEES2_EEEERS2_RKNS_9DenseBaseIT_EE"
 "_ZN5Eigen15PlainObjectBaseINS_6MatrixIdLin1ELi1ELi0ELin1ELi1EEEE4_setINS_7ProductINS1_IdLin1ELin1ELi0ELin1ELin1EEES2_Li0EEEEERS2_RKNS_9DenseBaseIT_EE"
 "_ZN5Eigen15PlainObjectBaseINS_6MatrixIdLin1ELi1ELi0ELin1ELi1EEEE4_setINS_8DiagonalINS1_IdLin1ELin1ELi0ELin1ELin1EEELi0EEEEERS2_RKNS_9DenseBaseIT_EE"
 "_ZN5Eigen15PlainObjectBaseINS_6MatrixIdLin1ELi1ELi0ELin1ELi1EEEE4_setINS_8DiagonalINS1_IdLin1ELin1ELi0ELin1ELin1EEELin1EEEEERS2_RKNS_9DenseBaseIT_EE"
 "_ZN5Eigen15PlainObjectBaseINS_6MatrixIdLin1ELi1ELi0ELin1ELi1EEEE4_setIS2_EERS2_RKNS_9DenseBaseIT_EE"
 "_ZN5Eigen15PlainObjectBaseINS_6MatrixIdLin1ELi1ELi0ELin1ELi1EEEE4dataEv"
 "_ZN5Eigen15PlainObjectBaseINS_6MatrixIdLin1ELi1ELi0ELin1ELi1EEEE4swapIS2_EEvRNS_9DenseBaseIT_EE"
 "_ZN5Eigen15PlainObjectBaseINS_6MatrixIdLin1ELi1ELi0ELin1ELi1EEEE6_init1INS_12CwiseUnaryOpINS_8internal14scalar_sqrt_opIdEEKNS_12ArrayWrapperIKS2_EEEESD_EEvRKNS_9DenseBaseIT0_EE"
 "_ZN5Eigen15PlainObjectBaseINS_6MatrixIdLin1ELi1ELi0ELin1ELi1EEEE6_init1INS_12CwiseUnaryOpINS_8internal16scalar_square_opIdEEKNS_12ArrayWrapperIKS2_EEEESD_EEvRKNS_9DenseBaseIT0_EE"
 "_ZN5Eigen15PlainObjectBaseINS_6MatrixIdLin1ELi1ELi0ELin1ELi1EEEE6_init1INS_13CwiseBinaryOpINS_8internal17scalar_product_opIddEEKNS_14CwiseNullaryOpINS6_18scalar_constant_opIdEEKS2_EESC_EESF_EEvRKNS_9DenseBaseIT0_EE"
 "_ZN5Eigen15PlainObjectBaseINS_6MatrixIdLin1ELi1ELi0ELin1ELi1EEEE6_init1INS_13CwiseBinaryOpINS_8internal20scalar_difference_opIddEEKS2_S9_EESA_EEvRKNS_9DenseBaseIT0_EE"
 "_ZN5Eigen15PlainObjectBaseINS_6MatrixIdLin1ELi1ELi0ELin1ELi1EEEE6_init1INS_14CwiseNullaryOpINS_8internal18scalar_constant_opIdEES2_EES9_EEvRKNS_9DenseBaseIT0_EE"
 "_ZN5Eigen15PlainObjectBaseINS_6MatrixIdLin1ELi1ELi0ELin1ELi1EEEE6_init1INS_7ProductINS1_IdLin1ELin1ELi0ELin1ELin1EEES2_Li0EEES7_EEvRKNS_9DenseBaseIT0_EE"
 "_ZN5Eigen15PlainObjectBaseINS_6MatrixIdLin1ELi1ELi0ELin1ELi1EEEE6_init1IiEEvxPNS_8internal9enable_ifIXaaooneLNS_9DenseBaseIS2_EUt_En1ELi1EntsrNS5_14is_convertibleIT_dEE5valueoontLNS5_7is_sameINS_9MatrixXprENS_8ArrayXprEEUt_E0EeqLS9_n1EL_ZNS_L7DynamicEEESB_E4typeE"
 "_ZN5Eigen15PlainObjectBaseINS_6MatrixIdLin1ELi1ELi0ELin1ELi1EEEE6_init1IxEEvxPNS_8internal9enable_ifIXaaooneLNS_9DenseBaseIS2_EUt_En1ELi1EntsrNS5_14is_convertibleIT_dEE5valueoontLNS5_7is_sameINS_9MatrixXprENS_8ArrayXprEEUt_E0EeqLS9_n1EL_ZNS_L7DynamicEEESB_E4typeE"
 "_ZN5Eigen15PlainObjectBaseINS_6MatrixIdLin1ELi1ELi0ELin1ELi1EEEE6_init1IyEEvxPNS_8internal9enable_ifIXaaooneLNS_9DenseBaseIS2_EUt_En1ELi1EntsrNS5_14is_convertibleIT_dEE5valueoontLNS5_7is_sameINS_9MatrixXprENS_8ArrayXprEEUt_E0EeqLS9_n1EL_ZNS_L7DynamicEEESB_E4typeE"
 "_ZN5Eigen15PlainObjectBaseINS_6MatrixIdLin1ELi1ELi0ELin1ELi1EEEE6_init2IxxEEvxxPNS_8internal9enable_ifILb1ET_E4typeE"
 "_ZN5Eigen15PlainObjectBaseINS_6MatrixIdLin1ELi1ELi0ELin1ELi1EEEE6resizeEx"
 "_ZN5Eigen15PlainObjectBaseINS_6MatrixIdLin1ELi1ELi0ELin1ELi1EEEE6resizeExx"
 "_ZN5Eigen15PlainObjectBaseINS_6MatrixIdLin1ELi1ELi0ELin1ELi1EEEE8coeffRefEx"
 "_ZN5Eigen15PlainObjectBaseINS_6MatrixIdLin1ELi1ELi0ELin1ELi1EEEE8coeffRefExx"
 "_ZN5Eigen15PlainObjectBaseINS_6MatrixIdLin1ELi1ELi0ELin1ELi1EEEEC2EOS3_"
 "_ZN5Eigen15PlainObjectBaseINS_6MatrixIdLin1ELi1ELi0ELin1ELi1EEEEC2ERKS3_"
 "_ZN5Eigen15PlainObjectBaseINS_6MatrixIdLin1ELi1ELi0ELin1ELi1EEEEC2Ev"
 "_ZN5Eigen15PlainObjectBaseINS_6MatrixIdLin1ELi1ELi0ELin1ELi1EEEEC2INS_12CwiseUnaryOpIZN4stan4math18apply_scalar_unaryINS7_7exp_funES2_E5applyERKS2_EUldE_SB_EEEERKNS_9DenseBaseIT_EE"
 "_ZN5Eigen15PlainObjectBaseINS_6MatrixIdLin1ELi1ELi0ELin1ELi1EEEEC2INS_12CwiseUnaryOpIZN4stan4math18apply_scalar_unaryINS7_7log_funES2_E5applyERKS2_EUldE_SB_EEEERKNS_9DenseBaseIT_EE"
 "_ZN5Eigen15PlainObjectBaseINS_6MatrixIdLin1ELi1ELi0ELin1ELi1EEEEC2INS_13CwiseBinaryOpINS_8internal13scalar_sum_opIddEEKNS5_INS6_17scalar_product_opIddEEKNS_12ArrayWrapperIKS2_EEKNS_12CwiseUnaryOpINS6_13scalar_exp_opIdEESE_EEEESE_EEEERKNS_9DenseBaseIT_EE"
 "_ZN5Eigen15PlainObjectBaseINS_6MatrixIdLin1ELi1ELi0ELin1ELi1EEEEC2INS_13CwiseBinaryOpINS_8internal13scalar_sum_opIddEEKNS_14CwiseNullaryOpINS6_18scalar_constant_opIdEEKNS_5ArrayIdLin1ELi1ELi0ELin1ELi1EEEEEKNS_12ArrayWrapperIKS2_EEEEEERKNS_9DenseBaseIT_EE"
 "_ZN5Eigen15PlainObjectBaseINS_6MatrixIdLin1ELi1ELi0ELin1ELi1EEEEC2INS_13CwiseBinaryOpINS_8internal13scalar_sum_opIddEEKNS_7ProductINS1_IdLin1ELin1ELi0ELin1ELin1EEES2_Li0EEEKS2_EEEERKNS_9DenseBaseIT_EE"
 "_ZN5Eigen15PlainObjectBaseINS_6MatrixIdLin1ELi1ELi0ELin1ELi1EEEEC2INS_13CwiseBinaryOpINS_8internal17scalar_product_opIddEEKS2_S9_EEEERKNS_9DenseBaseIT_EE"
 "_ZN5Eigen15PlainObjectBaseINS_6MatrixIdLin1ELi1ELi0ELin1ELi1EEEEC2INS_13CwiseBinaryOpINS_8internal18scalar_quotient_opIddEEKNS_14CwiseNullaryOpINS6_18scalar_constant_opIdEEKNS_5ArrayIdLin1ELi1ELi0ELin1ELi1EEEEEKNS_12ArrayWrapperIKS2_EEEEEERKNS_9DenseBaseIT_EE"
 "_ZN5Eigen15PlainObjectBaseINS_6MatrixIdLin1ELi1ELi0ELin1ELi1EEEEC2INS_13CwiseBinaryOpINS_8internal20scalar_difference_opIddEEKNS_14CwiseNullaryOpINS6_18scalar_constant_opIdEEKNS_5ArrayIdLin1ELi1ELi0ELin1ELi1EEEEEKNS_12ArrayWrapperIKS2_EEEEEERKNS_9DenseBaseIT_EE"
 "_ZN5Eigen15PlainObjectBaseINS_6MatrixIdLin1ELi1ELi0ELin1ELi1EEEEC2INS_13CwiseBinaryOpINS_8internal20scalar_difference_opIddEEKS2_S9_EEEERKNS_9DenseBaseIT_EE"
 "_ZN5Eigen15PlainObjectBaseINS_6MatrixIdLin1ELi1ELi0ELin1ELi1EEEEC2INS_14CwiseNullaryOpINS_8internal18scalar_constant_opIdEES2_EEEERKNS_9DenseBaseIT_EE"
 "_ZN5Eigen15PlainObjectBaseINS_6MatrixIdLin1ELi1ELi0ELin1ELi1EEEEC2INS_3MapIS2_Li0ENS_6StrideILi0ELi0EEEEEEERKNS_9DenseBaseIT_EE"
 "_ZN5Eigen15PlainObjectBaseINS_6MatrixIdLin1ELi1ELi0ELin1ELi1EEEEC2INS_5BlockIKNS1_IdLin1ELin1ELi0ELin1ELin1EEELi1ELin1ELb0EEEEERKNS_9DenseBaseIT_EE"
 "_ZN5Eigen15PlainObjectBaseINS_6MatrixIdLin1ELi1ELi0ELin1ELi1EEEEC2INS_7ProductINS1_IdLin1ELin1ELi0ELin1ELin1EEES2_Li0EEEEERKNS_9DenseBaseIT_EE"
 "_ZN5Eigen15PlainObjectBaseINS_6MatrixIdLin1ELi1ELi0ELin1ELi1EEEEC2INS_7ProductINS_9TransposeINS1_IdLin1ELin1ELi0ELin1ELin1EEEEES2_Li0EEEEERKNS_9DenseBaseIT_EE"
 "_ZN5Eigen15PlainObjectBaseINS_6MatrixIdLin1ELi1ELi0ELin1ELi1EEEED2Ev"
 "_ZN5Eigen15PlainObjectBaseINS_6MatrixIdLin1ELin1ELi0ELin1ELin1EEEE10resizeLikeINS_13CwiseBinaryOpINS_8internal17scalar_product_opIddEEKNS_14CwiseNullaryOpINS6_18scalar_constant_opIdEEKS2_EESC_EEEEvRKNS_9EigenBaseIT_EE"
 "_ZN5Eigen15PlainObjectBaseINS_6MatrixIdLin1ELin1ELi0ELin1ELin1EEEE10resizeLikeINS_14CwiseNullaryOpINS_8internal18scalar_constant_opIdEES2_EEEEvRKNS_9EigenBaseIT_EE"
 "_ZN5Eigen15PlainObjectBaseINS_6MatrixIdLin1ELin1ELi0ELin1ELin1EEEE10resizeLikeINS_14CwiseUnaryViewINS_10MatrixBaseINS_3MapINS1_IPN4stan4math4variELin1ELin1ELi0ELin1ELin1EEELi0ENS_6StrideILi0ELi0EEEEEE6adj_OpESF_EEEEvRKNS_9EigenBaseIT_EE"
 "_ZN5Eigen15PlainObjectBaseINS_6MatrixIdLin1ELin1ELi0ELin1ELin1EEEE10resizeLikeINS_14TriangularViewIKS2_Lj1EEEEEvRKNS_9EigenBaseIT_EE"
 "_ZN5Eigen15PlainObjectBaseINS_6MatrixIdLin1ELin1ELi0ELin1ELin1EEEE10resizeLikeINS_19HouseholderSequenceIS2_NS1_IdLin1ELi1ELi0ELin1ELi1EEELi1EEEEEvRKNS_9EigenBaseIT_EE"
 "_ZN5Eigen15PlainObjectBaseINS_6MatrixIdLin1ELin1ELi0ELin1ELin1EEEE10resizeLikeINS_3MapIKS2_Li0ENS_6StrideILi0ELi0EEEEEEEvRKNS_9EigenBaseIT_EE"
 "_ZN5Eigen15PlainObjectBaseINS_6MatrixIdLin1ELin1ELi0ELin1ELin1EEEE10resizeLikeINS_3MapIS2_Li0ENS_6StrideILi0ELi0EEEEEEEvRKNS_9EigenBaseIT_EE"
 "_ZN5Eigen15PlainObjectBaseINS_6MatrixIdLin1ELin1ELi0ELin1ELin1EEEE12_set_noaliasINS_12CwiseUnaryOpINS_8internal14scalar_sqrt_opIdEEKNS_12ArrayWrapperIKS2_EEEEEERS2_RKNS_9DenseBaseIT_EE"
 "_ZN5Eigen15PlainObjectBaseINS_6MatrixIdLin1ELin1ELi0ELin1ELin1EEEE12_set_noaliasINS_12CwiseUnaryOpINS_8internal16scalar_square_opIdEEKNS_12ArrayWrapperIKS2_EEEEEERS2_RKNS_9DenseBaseIT_EE"
 "_ZN5Eigen15PlainObjectBaseINS_6MatrixIdLin1ELin1ELi0ELin1ELin1EEEE12_set_noaliasINS_13CwiseBinaryOpINS_8internal17scalar_product_opIddEEKNS_14CwiseNullaryOpINS6_18scalar_constant_opIdEEKS2_EESC_EEEERS2_RKNS_9DenseBaseIT_EE"
 "_ZN5Eigen15PlainObjectBaseINS_6MatrixIdLin1ELin1ELi0ELin1ELin1EEEE12_set_noaliasINS_14CwiseNullaryOpINS_8internal18scalar_constant_opIdEES2_EEEERS2_RKNS_9DenseBaseIT_EE"
 "_ZN5Eigen15PlainObjectBaseINS_6MatrixIdLin1ELin1ELi0ELin1ELin1EEEE12_set_noaliasINS_14CwiseNullaryOpINS_8internal18scalar_identity_opIdEES2_EEEERS2_RKNS_9DenseBaseIT_EE"
 "_ZN5Eigen15PlainObjectBaseINS_6MatrixIdLin1ELin1ELi0ELin1ELin1EEEE12_set_noaliasINS_14CwiseUnaryViewINS_10MatrixBaseINS_3MapINS1_IPN4stan4math4variELin1ELin1ELi0ELin1ELin1EEELi0ENS_6StrideILi0ELi0EEEEEE6adj_OpESF_EEEERS2_RKNS_9DenseBaseIT_EE"
 "_ZN5Eigen15PlainObjectBaseINS_6MatrixIdLin1ELin1ELi0ELin1ELin1EEEE12_set_noaliasINS_3MapIKS2_Li0ENS_6StrideILi0ELi0EEEEEEERS2_RKNS_9DenseBaseIT_EE"
 "_ZN5Eigen15PlainObjectBaseINS_6MatrixIdLin1ELin1ELi0ELin1ELin1EEEE12_set_noaliasINS_3MapIS2_Li0ENS_6StrideILi0ELi0EEEEEEERS2_RKNS_9DenseBaseIT_EE"
 "_ZN5Eigen15PlainObjectBaseINS_6MatrixIdLin1ELin1ELi0ELin1ELin1EEEE12_set_noaliasINS_7ProductINS_13CwiseBinaryOpINS_8internal20scalar_difference_opIddEEKNS1_IdLin1ELi1ELi0ELin1ELi1EEESB_EENS_9TransposeISA_EELi0EEEEERS2_RKNS_9DenseBaseIT_EE"
 "_ZN5Eigen15PlainObjectBaseINS_6MatrixIdLin1ELin1ELi0ELin1ELin1EEEE12_set_noaliasINS_7ProductINS_9TransposeINS_3MapIS2_Li0ENS_6StrideILi0ELi0EEEEEEES2_Li0EEEEERS2_RKNS_9DenseBaseIT_EE"
 "_ZN5Eigen15PlainObjectBaseINS_6MatrixIdLin1ELin1ELi0ELin1ELin1EEEE12_set_noaliasINS_7ProductIS2_S2_Li0EEEEERS2_RKNS_9DenseBaseIT_EE"
 "_ZN5Eigen15PlainObjectBaseINS_6MatrixIdLin1ELin1ELi0ELin1ELin1EEEE16_resize_to_matchINS_14TriangularViewIKS2_Lj1EEEEEvRKNS_9EigenBaseIT_EE"
 "_ZN5Eigen15PlainObjectBaseINS_6MatrixIdLin1ELin1ELi0ELin1ELin1EEEE16_resize_to_matchINS_19HouseholderSequenceIS2_NS1_IdLin1ELi1ELi0ELin1ELi1EEELi1EEEEEvRKNS_9EigenBaseIT_EE"
 "_ZN5Eigen15PlainObjectBaseINS_6MatrixIdLin1ELin1ELi0ELin1ELin1EEEE22_check_template_paramsEv"
 "_ZN5Eigen15PlainObjectBaseINS_6MatrixIdLin1ELin1ELi0ELin1ELin1EEEE4_setINS_13CwiseBinaryOpINS_8internal13scalar_sum_opIddEEKNS5_INS6_17scalar_product_opIddEEKNS_14CwiseNullaryOpINS6_18scalar_constant_opIdEEKS2_EESE_EEKNS5_ISA_SG_KNSB_INS6_18scalar_identity_opIdEES2_EEEEEEEERS2_RKNS_9DenseBaseIT_EE"
 "_ZN5Eigen15PlainObjectBaseINS_6MatrixIdLin1ELin1ELi0ELin1ELin1EEEE4_setINS_13CwiseBinaryOpINS_8internal18scalar_quotient_opIddEEKS2_KNS_14CwiseNullaryOpINS6_18scalar_constant_opIdEES9_EEEEEERS2_RKNS_9DenseBaseIT_EE"
 "_ZN5Eigen15PlainObjectBaseINS_6MatrixIdLin1ELin1ELi0ELin1ELin1EEEE4_setINS_14CwiseNullaryOpINS_8internal18scalar_constant_opIdEES2_EEEERS2_RKNS_9DenseBaseIT_EE"
 "_ZN5Eigen15PlainObjectBaseINS_6MatrixIdLin1ELin1ELi0ELin1ELin1EEEE4_setINS_14CwiseNullaryOpINS_8internal18scalar_identity_opIdEES2_EEEERS2_RKNS_9DenseBaseIT_EE"
 "_ZN5Eigen15PlainObjectBaseINS_6MatrixIdLin1ELin1ELi0ELin1ELin1EEEE4_setINS_7ProductINS5_IS2_S2_Li0EEENS_9TransposeIS2_EELi0EEEEERS2_RKNS_9DenseBaseIT_EE"
 "_ZN5Eigen15PlainObjectBaseINS_6MatrixIdLin1ELin1ELi0ELin1ELin1EEEE4_setIS2_EERS2_RKNS_9DenseBaseIT_EE"
 "_ZN5Eigen15PlainObjectBaseINS_6MatrixIdLin1ELin1ELi0ELin1ELin1EEEE4dataEv"
 "_ZN5Eigen15PlainObjectBaseINS_6MatrixIdLin1ELin1ELi0ELin1ELin1EEEE4swapIS2_EEvRNS_9DenseBaseIT_EE"
 "_ZN5Eigen15PlainObjectBaseINS_6MatrixIdLin1ELin1ELi0ELin1ELin1EEEE6_init1INS_12CwiseUnaryOpINS_8internal14scalar_sqrt_opIdEEKNS_12ArrayWrapperIKS2_EEEESD_EEvRKNS_9DenseBaseIT0_EE"
 "_ZN5Eigen15PlainObjectBaseINS_6MatrixIdLin1ELin1ELi0ELin1ELin1EEEE6_init1INS_12CwiseUnaryOpINS_8internal16scalar_square_opIdEEKNS_12ArrayWrapperIKS2_EEEESD_EEvRKNS_9DenseBaseIT0_EE"
 "_ZN5Eigen15PlainObjectBaseINS_6MatrixIdLin1ELin1ELi0ELin1ELin1EEEE6_init1INS_14CwiseNullaryOpINS_8internal18scalar_constant_opIdEES2_EES9_EEvRKNS_9DenseBaseIT0_EE"
 "_ZN5Eigen15PlainObjectBaseINS_6MatrixIdLin1ELin1ELi0ELin1ELin1EEEE6_init1INS_14CwiseNullaryOpINS_8internal18scalar_identity_opIdEES2_EES9_EEvRKNS_9DenseBaseIT0_EE"
 "_ZN5Eigen15PlainObjectBaseINS_6MatrixIdLin1ELin1ELi0ELin1ELin1EEEE6_init1INS_7ProductINS_13CwiseBinaryOpINS_8internal20scalar_difference_opIddEEKNS1_IdLin1ELi1ELi0ELin1ELi1EEESB_EENS_9TransposeISA_EELi0EEESF_EEvRKNS_9DenseBaseIT0_EE"
 "_ZN5Eigen15PlainObjectBaseINS_6MatrixIdLin1ELin1ELi0ELin1ELin1EEEE6_init1INS_7ProductINS_9TransposeINS_3MapIS2_Li0ENS_6StrideILi0ELi0EEEEEEES2_Li0EEESC_EEvRKNS_9DenseBaseIT0_EE"
 "_ZN5Eigen15PlainObjectBaseINS_6MatrixIdLin1ELin1ELi0ELin1ELin1EEEE6_init1INS_7ProductIS2_S2_Li0EEES6_EEvRKNS_9DenseBaseIT0_EE"
 "_ZN5Eigen15PlainObjectBaseINS_6MatrixIdLin1ELin1ELi0ELin1ELin1EEEE6_init2IiiEEvxxPNS_8internal9enable_ifILb1ET_E4typeE"
 "_ZN5Eigen15PlainObjectBaseINS_6MatrixIdLin1ELin1ELi0ELin1ELin1EEEE6_init2IxxEEvxxPNS_8internal9enable_ifILb1ET_E4typeE"
 "_ZN5Eigen15PlainObjectBaseINS_6MatrixIdLin1ELin1ELi0ELin1ELin1EEEE6_init2IyyEEvxxPNS_8internal9enable_ifILb1ET_E4typeE"
 "_ZN5Eigen15PlainObjectBaseINS_6MatrixIdLin1ELin1ELi0ELin1ELin1EEEE6resizeExx"
 "_ZN5Eigen15PlainObjectBaseINS_6MatrixIdLin1ELin1ELi0ELin1ELin1EEEE7setOnesExx"
 "_ZN5Eigen15PlainObjectBaseINS_6MatrixIdLin1ELin1ELi0ELin1ELin1EEEE8coeffRefExx"
 "_ZN5Eigen15PlainObjectBaseINS_6MatrixIdLin1ELin1ELi0ELin1ELin1EEEEC2ERKS3_"
 "_ZN5Eigen15PlainObjectBaseINS_6MatrixIdLin1ELin1ELi0ELin1ELin1EEEEC2Ev"
 "_ZN5Eigen15PlainObjectBaseINS_6MatrixIdLin1ELin1ELi0ELin1ELin1EEEEC2INS_13CwiseBinaryOpINS_8internal17scalar_product_opIddEEKNS_14CwiseNullaryOpINS6_18scalar_constant_opIdEEKS2_EESC_EEEERKNS_9DenseBaseIT_EE"
 "_ZN5Eigen15PlainObjectBaseINS_6MatrixIdLin1ELin1ELi0ELin1ELin1EEEEC2INS_14CwiseNullaryOpINS_8internal18scalar_constant_opIdEES2_EEEERKNS_9DenseBaseIT_EE"
 "_ZN5Eigen15PlainObjectBaseINS_6MatrixIdLin1ELin1ELi0ELin1ELin1EEEEC2INS_14CwiseUnaryViewINS_10MatrixBaseINS_3MapINS1_IPN4stan4math4variELin1ELin1ELi0ELin1ELin1EEELi0ENS_6StrideILi0ELi0EEEEEE6adj_OpESF_EEEERKNS_9DenseBaseIT_EE"
 "_ZN5Eigen15PlainObjectBaseINS_6MatrixIdLin1ELin1ELi0ELin1ELin1EEEEC2INS_3MapIKS2_Li0ENS_6StrideILi0ELi0EEEEEEERKNS_9DenseBaseIT_EE"
 "_ZN5Eigen15PlainObjectBaseINS_6MatrixIdLin1ELin1ELi0ELin1ELin1EEEEC2INS_3MapIS2_Li0ENS_6StrideILi0ELi0EEEEEEERKNS_9DenseBaseIT_EE"
 "_ZN5Eigen15PlainObjectBaseINS_6MatrixIdLin1ELin1ELi0ELin1ELin1EEEED2Ev"
 "_ZN5Eigen15PlainObjectBaseINS_6MatrixIdLin1ELin1ELi0ELin1ELin1EEEEaSINS_14TriangularViewIKS2_Lj1EEEEERS2_RKNS_9EigenBaseIT_EE"
 "_ZN5Eigen15PlainObjectBaseINS_6MatrixIdLin1ELin1ELi0ELin1ELin1EEEEaSINS_19HouseholderSequenceIS2_NS1_IdLin1ELi1ELi0ELin1ELi1EEELi1EEEEERS2_RKNS_9EigenBaseIT_EE"
 "_ZN5Eigen15PlainObjectBaseINS_6MatrixIdLin1ELin1ELi1ELin1ELin1EEEE12_set_noaliasINS_7ProductINS5_INS1_IdLin1ELin1ELi0ELin1ELin1EEES6_Li0EEENS_9TransposeIS6_EELi0EEEEERS2_RKNS_9DenseBaseIT_EE"
 "_ZN5Eigen15PlainObjectBaseINS_6MatrixIdLin1ELin1ELi1ELin1ELin1EEEE22_check_template_paramsEv"
 "_ZN5Eigen15PlainObjectBaseINS_6MatrixIdLin1ELin1ELi1ELin1ELin1EEEE6_init1INS_7ProductINS5_INS1_IdLin1ELin1ELi0ELin1ELin1EEES6_Li0EEENS_9TransposeIS6_EELi0EEESA_EEvRKNS_9DenseBaseIT0_EE"
 "_ZN5Eigen15PlainObjectBaseINS_6MatrixIdLin1ELin1ELi1ELin1ELin1EEEE6resizeExx"
 "_ZN5Eigen15PlainObjectBaseINS_6MatrixIdLin1ELin1ELi1ELin1ELin1EEEE8coeffRefExx"
 "_ZN5Eigen15PlainObjectBaseINS_6MatrixIdLin1ELin1ELi1ELin1ELin1EEEEC2Ev"
 "_ZN5Eigen15PlainObjectBaseINS_6MatrixIdLin1ELin1ELi1ELin1ELin1EEEED2Ev"
 "_ZN5Eigen15PlainObjectBaseINS_6MatrixIiLin1ELi1ELi0ELin1ELi1EEEE22_check_template_paramsEv"
 "_ZN5Eigen15PlainObjectBaseINS_6MatrixIiLin1ELi1ELi0ELin1ELi1EEEE6_init1IxEEvxPNS_8internal9enable_ifIXaaooneLNS_9DenseBaseIS2_EUt_En1ELi1EntsrNS5_14is_convertibleIT_iEE5valueoontLNS5_7is_sameINS_9MatrixXprENS_8ArrayXprEEUt_E0EeqLS9_n1EL_ZNS_L7DynamicEEESB_E4typeE"
 "_ZN5Eigen15PlainObjectBaseINS_6MatrixIiLin1ELi1ELi0ELin1ELi1EEEE6resizeEx"
 "_ZN5Eigen15PlainObjectBaseINS_6MatrixIiLin1ELi1ELi0ELin1ELi1EEEE8coeffRefEx"
 "_ZN5Eigen15PlainObjectBaseINS_6MatrixIiLin1ELi1ELi0ELin1ELi1EEEEC2Ev"
 "_ZN5Eigen15PlainObjectBaseINS_6MatrixIiLin1ELi1ELi0ELin1ELi1EEEED2Ev"
 "_ZN5Eigen15SelfAdjointViewINS_5BlockINS_6MatrixIdLin1ELin1ELi0ELin1ELin1EEELin1ELin1ELb0EEELj1EE10rankUpdateINS1_INS1_IS3_Lin1ELi1ELb1EEELin1ELi1ELb0EEENS1_INS2_IdLin1ELi1ELi0ELin1ELi1EEELin1ELi1ELb0EEEEERS5_RKNS_10MatrixBaseIT_EERKNSC_IT0_EERKd"
 "_ZN5Eigen15SelfAdjointViewINS_5BlockINS_6MatrixIdLin1ELin1ELi0ELin1ELin1EEELin1ELin1ELb0EEELj1EE10rankUpdateIS4_EERS5_RKNS_10MatrixBaseIT_EERKd"
 "_ZN5Eigen15SelfAdjointViewINS_5BlockINS_6MatrixIdLin1ELin1ELi0ELin1ELin1EEELin1ELin1ELb0EEELj1EEC1ERS4_"
 "_ZN5Eigen16CwiseUnaryOpImplINS_10MatrixBaseINS_6MatrixIN4stan4math3varELin1ELi1ELi0ELin1ELi1EEEE5vi_OpEKS6_NS_5DenseEEC2Ev"
 "_ZN5Eigen16CwiseUnaryOpImplINS_10MatrixBaseINS_6MatrixIN4stan4math3varELin1ELi1ELi0ELin1ELi1EEEE6val_OpEKS6_NS_5DenseEEC2Ev"
 "_ZN5Eigen16CwiseUnaryOpImplINS_8internal13scalar_abs_opIdEEKNS_5BlockINS4_INS_6MatrixIdLin1ELin1ELi0ELin1ELin1EEELi1ELin1ELb0EEELi1ELin1ELb0EEENS_5DenseEEC2Ev"
 "_ZN5Eigen16CwiseUnaryOpImplINS_8internal13scalar_abs_opIdEEKNS_5BlockINS4_INS_6MatrixIdLin1ELin1ELi0ELin1ELin1EEELin1ELi1ELb1EEELin1ELi1ELb0EEENS_5DenseEEC2Ev"
 "_ZN5Eigen16CwiseUnaryOpImplINS_8internal13scalar_abs_opIdEEKNS_5BlockINS_8DiagonalINS_6MatrixIdLin1ELin1ELi0ELin1ELin1EEELi0EEELin1ELi1ELb0EEENS_5DenseEEC2Ev"
 "_ZN5Eigen16CwiseUnaryOpImplINS_8internal13scalar_abs_opIdEEKNS_6MatrixIdLin1ELin1ELi0ELin1ELin1EEENS_5DenseEEC2Ev"
 "_ZN5Eigen16CwiseUnaryOpImplINS_8internal13scalar_exp_opIdEEKNS_12ArrayWrapperIKNS_6MatrixIdLin1ELi1ELi0ELin1ELi1EEEEENS_5DenseEEC2Ev"
 "_ZN5Eigen16CwiseUnaryOpImplINS_8internal14scalar_abs2_opIdEEKNS_5BlockIKNS4_INS4_INS_6MatrixIdLin1ELin1ELi0ELin1ELin1EEELin1ELi1ELb1EEELin1ELi1ELb0EEELin1ELi1ELb0EEENS_5DenseEEC2Ev"
 "_ZN5Eigen16CwiseUnaryOpImplINS_8internal14scalar_abs2_opIdEEKNS_5BlockINS4_INS_6MatrixIdLin1ELin1ELi0ELin1ELin1EEELin1ELin1ELb0EEELi1ELin1ELb0EEENS_5DenseEEC2Ev"
 "_ZN5Eigen16CwiseUnaryOpImplINS_8internal14scalar_abs2_opIdEEKNS_5BlockINS_6MatrixIdLin1ELin1ELi0ELin1ELin1EEELi1ELin1ELb0EEENS_5DenseEEC2Ev"
 "_ZN5Eigen16CwiseUnaryOpImplINS_8internal14scalar_abs2_opIdEEKNS_6MatrixIdLin1ELi1ELi0ELin1ELi1EEENS_5DenseEEC2Ev"
 "_ZN5Eigen16CwiseUnaryOpImplINS_8internal14scalar_sqrt_opIdEEKNS_12ArrayWrapperIKNS_6MatrixIdLin1ELi1ELi0ELin1ELi1EEEEENS_5DenseEEC2Ev"
 "_ZN5Eigen16CwiseUnaryOpImplINS_8internal14scalar_sqrt_opIdEEKNS_12ArrayWrapperIKNS_6MatrixIdLin1ELin1ELi0ELin1ELin1EEEEENS_5DenseEEC2Ev"
 "_ZN5Eigen16CwiseUnaryOpImplINS_8internal16scalar_square_opIdEEKNS_12ArrayWrapperIKNS_6MatrixIdLin1ELi1ELi0ELin1ELi1EEEEENS_5DenseEEC2Ev"
 "_ZN5Eigen16CwiseUnaryOpImplINS_8internal16scalar_square_opIdEEKNS_12ArrayWrapperIKNS_6MatrixIdLin1ELin1ELi0ELin1ELin1EEEEENS_5DenseEEC2Ev"
 "_ZN5Eigen16CwiseUnaryOpImplINS_8internal17scalar_inverse_opIdEEKNS_12ArrayWrapperIKNS_8DiagonalIKNS_6MatrixIdLin1ELin1ELi0ELin1ELin1EEELi0EEEEENS_5DenseEEC2Ev"
 "_ZN5Eigen16CwiseUnaryOpImplINS_8internal18scalar_opposite_opIdEEKNS_6MatrixIdLin1ELi1ELi0ELin1ELi1EEENS_5DenseEEC2Ev"
 "_ZN5Eigen16CwiseUnaryOpImplINS_8internal18scalar_opposite_opIdEEKNS_7ProductINS_6MatrixIdLin1ELin1ELi0ELin1ELin1EEENS5_IdLin1ELi1ELi0ELin1ELi1EEELi0EEENS_5DenseEEC2Ev"
 "_ZN5Eigen16CwiseUnaryOpImplIZN4stan4math17multiply_mat_variIdLin1ELin1ENS2_3varELi1EEC4ERKNS_6MatrixIdLin1ELin1ELi0ELin1ELin1EEERKNS6_IS4_Lin1ELi1ELi0ELin1ELi1EEEEUldE_KNS_7ProductINS_3MapIS7_Li0ENS_6StrideILi0ELi0EEEEESI_Li0EEENS_5DenseEEC2Ev"
 "_ZN5Eigen16CwiseUnaryOpImplIZN4stan4math18apply_scalar_unaryINS2_7exp_funENS_6MatrixINS2_3varELin1ELi1ELi0ELin1ELi1EEEE5applyERKS7_EUlS6_E_S9_NS_5DenseEEC2Ev"
 "_ZN5Eigen16CwiseUnaryOpImplIZN4stan4math18apply_scalar_unaryINS2_7exp_funENS_6MatrixIdLin1ELi1ELi0ELin1ELi1EEEE5applyERKS6_EUldE_S8_NS_5DenseEEC2Ev"
 "_ZN5Eigen16CwiseUnaryOpImplIZN4stan4math18apply_scalar_unaryINS2_7log_funENS_6MatrixINS2_3varELin1ELi1ELi0ELin1ELi1EEEE5applyERKS7_EUlS6_E_S9_NS_5DenseEEC2Ev"
 "_ZN5Eigen16CwiseUnaryOpImplIZN4stan4math18apply_scalar_unaryINS2_7log_funENS_6MatrixIdLin1ELi1ELi0ELin1ELi1EEEE5applyERKS6_EUldE_S8_NS_5DenseEEC2Ev"
 "_ZN5Eigen16GenericNumTraitsIdE7epsilonEv"
 "_ZN5Eigen17CwiseBinaryOpImplINS_8internal13scalar_cmp_opIddLNS1_14ComparisonNameE0EEEKNS_12ArrayWrapperIKNS_13CwiseBinaryOpINS1_20scalar_difference_opIddEEKNS_6MatrixIdLin1ELi1ELi0ELin1ELi1EEESB_EEEESF_NS_5DenseEEC2Ev"
 "_ZN5Eigen17CwiseBinaryOpImplINS_8internal13scalar_cmp_opIddLNS1_14ComparisonNameE0EEEKNS_12ArrayWrapperINS_5BlockINS6_INS_6MatrixIdLin1ELin1ELi0ELin1ELin1EEELin1ELi1ELb1EEELin1ELi1ELb0EEEEEKNS_14CwiseNullaryOpINS1_18scalar_constant_opIdEENS_5ArrayIdLin1ELi1ELi0ELin1ELi1EEEEENS_5DenseEEC2Ev"
 "_ZN5Eigen17CwiseBinaryOpImplINS_8internal13scalar_cmp_opIddLNS1_14ComparisonNameE0EEEKNS_12ArrayWrapperINS_5BlockINS_6MatrixIdLin1ELin1ELi0ELin1ELin1EEELin1ELi1ELb0EEEEEKNS_14CwiseNullaryOpINS1_18scalar_constant_opIdEENS_5ArrayIdLin1ELi1ELi0ELin1ELi1EEEEENS_5DenseEEC2Ev"
 "_ZN5Eigen17CwiseBinaryOpImplINS_8internal13scalar_cmp_opIddLNS1_14ComparisonNameE2EEEKNS_12ArrayWrapperINS_8DiagonalIKNS_6MatrixIdLin1ELin1ELi0ELin1ELin1EEELi0EEEEEKNS_14CwiseNullaryOpINS1_18scalar_constant_opIdEENS_5ArrayIdLin1ELi1ELi0ELin1ELi1EEEEENS_5DenseEEC2Ev"
 "_ZN5Eigen17CwiseBinaryOpImplINS_8internal13scalar_sum_opIdN4stan4math3varEEEKNS_14CwiseNullaryOpINS1_18scalar_constant_opIdEEKNS_5ArrayIdLin1ELi1ELi0ELin1ELi1EEEEEKNS_12ArrayWrapperIKNS_6MatrixIS5_Lin1ELi1ELi0ELin1ELi1EEEEENS_5DenseEEC2Ev"
 "_ZN5Eigen17CwiseBinaryOpImplINS_8internal13scalar_sum_opIddEEKNS_13CwiseBinaryOpINS1_17scalar_product_opIddEEKNS_12ArrayWrapperIKNS_6MatrixIdLin1ELi1ELi0ELin1ELi1EEEEEKNS_12CwiseUnaryOpINS1_13scalar_exp_opIdEESC_EEEESC_NS_5DenseEEC2Ev"
 "_ZN5Eigen17CwiseBinaryOpImplINS_8internal13scalar_sum_opIddEEKNS_13CwiseBinaryOpINS1_17scalar_product_opIddEEKNS_14CwiseNullaryOpINS1_18scalar_constant_opIdEEKNS_6MatrixIdLin1ELi1ELi0ELin1ELi1EEEEEKNS_5BlockIKNSF_ISB_Lin1ELi1ELb0EEELin1ELi1ELb0EEEEEKNS4_IS6_SE_KNSF_IKNSF_INSF_INSA_IdLin1ELin1ELi0ELin1ELin1EEELin1ELi1ELb1EEELin1ELi1ELb0EEELin1ELi1ELb0EEEEENS_5DenseEEC2Ev"
 "_ZN5Eigen17CwiseBinaryOpImplINS_8internal13scalar_sum_opIddEEKNS_13CwiseBinaryOpINS1_17scalar_product_opIddEEKNS_14CwiseNullaryOpINS1_18scalar_constant_opIdEEKNS_6MatrixIdLin1ELi1ELi0ELin1ELi1EEEEESC_EEKNS4_IS6_SE_KNS7_IS9_SB_EEEENS_5DenseEEC2Ev"
 "_ZN5Eigen17CwiseBinaryOpImplINS_8internal13scalar_sum_opIddEEKNS_13CwiseBinaryOpINS1_17scalar_product_opIddEEKNS_14CwiseNullaryOpINS1_18scalar_constant_opIdEEKNS_6MatrixIdLin1ELin1ELi0ELin1ELin1EEEEESC_EEKNS4_IS6_SE_KNS7_INS1_18scalar_identity_opIdEESB_EEEENS_5DenseEEC2Ev"
 "_ZN5Eigen17CwiseBinaryOpImplINS_8internal13scalar_sum_opIddEEKNS_14CwiseNullaryOpINS1_18scalar_constant_opIdEEKNS_5ArrayIdLin1ELi1ELi0ELin1ELi1EEEEEKNS_12ArrayWrapperIKNS_6MatrixIdLin1ELi1ELi0ELin1ELi1EEEEENS_5DenseEEC2Ev"
 "_ZN5Eigen17CwiseBinaryOpImplINS_8internal13scalar_sum_opIddEEKNS_6MatrixIdLin1ELi1ELi0ELin1ELi1EEEKNS_13CwiseBinaryOpINS1_17scalar_product_opIddEEKNS_14CwiseNullaryOpINS1_18scalar_constant_opIdEES6_EES6_EENS_5DenseEEC2Ev"
 "_ZN5Eigen17CwiseBinaryOpImplINS_8internal13scalar_sum_opIddEEKNS_7ProductINS_6MatrixIdLin1ELin1ELi0ELin1ELin1EEENS5_IdLin1ELi1ELi0ELin1ELi1EEELi0EEEKS7_NS_5DenseEEC2Ev"
 "_ZN5Eigen17CwiseBinaryOpImplINS_8internal17scalar_product_opIN4stan4math3varES5_EEKNS_6MatrixIS5_Lin1ELi1ELi0ELin1ELi1EEES9_NS_5DenseEEC2Ev"
 "_ZN5Eigen17CwiseBinaryOpImplINS_8internal17scalar_product_opIddEEKNS_12ArrayWrapperIKNS_6MatrixIdLin1ELi1ELi0ELin1ELi1EEEEEKNS_12CwiseUnaryOpINS1_13scalar_exp_opIdEES9_EENS_5DenseEEC2Ev"
 "_ZN5Eigen17CwiseBinaryOpImplINS_8internal17scalar_product_opIddEEKNS_12ArrayWrapperINS_6MatrixIdLin1ELi1ELi0ELin1ELi1EEEEEKNS_12CwiseUnaryOpINS1_13scalar_exp_opIdEEKNS4_IKS6_EEEENS_5DenseEEC2Ev"
 "_ZN5Eigen17CwiseBinaryOpImplINS_8internal17scalar_product_opIddEEKNS_12ArrayWrapperINS_6MatrixIdLin1ELi1ELi0ELin1ELi1EEEEES8_NS_5DenseEEC2Ev"
 "_ZN5Eigen17CwiseBinaryOpImplINS_8internal17scalar_product_opIddEEKNS_14CwiseNullaryOpINS1_18scalar_constant_opIdEEKNS_6MatrixIdLi1ELin1ELi1ELi1ELin1EEEEES9_NS_5DenseEEC2Ev"
 "_ZN5Eigen17CwiseBinaryOpImplINS_8internal17scalar_product_opIddEEKNS_14CwiseNullaryOpINS1_18scalar_constant_opIdEEKNS_6MatrixIdLin1ELi1ELi0ELin1ELi1EEEEEKNS4_IS6_S8_EENS_5DenseEEC2Ev"
 "_ZN5Eigen17CwiseBinaryOpImplINS_8internal17scalar_product_opIddEEKNS_14CwiseNullaryOpINS1_18scalar_constant_opIdEEKNS_6MatrixIdLin1ELi1ELi0ELin1ELi1EEEEEKNS_5BlockIKNSC_INSC_INS7_IdLin1ELin1ELi0ELin1ELin1EEELin1ELi1ELb1EEELin1ELi1ELb0EEELin1ELi1ELb0EEENS_5DenseEEC2Ev"
 "_ZN5Eigen17CwiseBinaryOpImplINS_8internal17scalar_product_opIddEEKNS_14CwiseNullaryOpINS1_18scalar_constant_opIdEEKNS_6MatrixIdLin1ELi1ELi0ELin1ELi1EEEEEKNS_5BlockIKNSC_IS8_Lin1ELi1ELb0EEELin1ELi1ELb0EEENS_5DenseEEC2Ev"
 "_ZN5Eigen17CwiseBinaryOpImplINS_8internal17scalar_product_opIddEEKNS_14CwiseNullaryOpINS1_18scalar_constant_opIdEEKNS_6MatrixIdLin1ELi1ELi0ELin1ELi1EEEEEKNS_5BlockINSC_INS7_IdLin1ELin1ELi0ELin1ELin1EEELin1ELi1ELb1EEELin1ELi1ELb0EEENS_5DenseEEC2Ev"
 "_ZN5Eigen17CwiseBinaryOpImplINS_8internal17scalar_product_opIddEEKNS_14CwiseNullaryOpINS1_18scalar_constant_opIdEEKNS_6MatrixIdLin1ELi1ELi0ELin1ELi1EEEEES9_NS_5DenseEEC2Ev"
 "_ZN5Eigen17CwiseBinaryOpImplINS_8internal17scalar_product_opIddEEKNS_14CwiseNullaryOpINS1_18scalar_constant_opIdEEKNS_6MatrixIdLin1ELin1ELi0ELin1ELin1EEEEEKNS4_INS1_18scalar_identity_opIdEES8_EENS_5DenseEEC2Ev"
 "_ZN5Eigen17CwiseBinaryOpImplINS_8internal17scalar_product_opIddEEKNS_14CwiseNullaryOpINS1_18scalar_constant_opIdEEKNS_6MatrixIdLin1ELin1ELi0ELin1ELin1EEEEES9_NS_5DenseEEC2Ev"
 "_ZN5Eigen17CwiseBinaryOpImplINS_8internal17scalar_product_opIddEEKNS_6MatrixIdLin1ELi1ELi0ELin1ELi1EEEKNS_13CwiseBinaryOpINS1_20scalar_difference_opIddEES6_S6_EENS_5DenseEEC2Ev"
 "_ZN5Eigen17CwiseBinaryOpImplINS_8internal17scalar_product_opIddEEKNS_6MatrixIdLin1ELi1ELi0ELin1ELi1EEES6_NS_5DenseEEC2Ev"
 "_ZN5Eigen17CwiseBinaryOpImplINS_8internal17scalar_product_opIddEEKNS_9TransposeIKNS_3MapINS_6MatrixIdLi1ELin1ELi1ELi1ELin1EEELi0ENS_6StrideILi0ELi0EEEEEEEKNS5_INS6_IdLin1ELi1ELi0ELin1ELi1EEELi0ES9_EENS_5DenseEEC2Ev"
 "_ZN5Eigen17CwiseBinaryOpImplINS_8internal17scalar_product_opIddEEKNS_9TransposeIKNS_5BlockINS_6MatrixIdLin1ELin1ELi0ELin1ELin1EEELi1ELin1ELb0EEEEEKNS5_INS6_IdLin1ELi1ELi0ELin1ELi1EEELin1ELi1ELb0EEENS_5DenseEEC2Ev"
 "_ZN5Eigen17CwiseBinaryOpImplINS_8internal18scalar_quotient_opIdN4stan4math3varEEEKNS_14CwiseNullaryOpINS1_18scalar_constant_opIdEEKNS_5ArrayIdLin1ELi1ELi0ELin1ELi1EEEEEKNS_12ArrayWrapperIKNS_6MatrixIS5_Lin1ELi1ELi0ELin1ELi1EEEEENS_5DenseEEC2Ev"
 "_ZN5Eigen17CwiseBinaryOpImplINS_8internal18scalar_quotient_opIddEEKNS_14CwiseNullaryOpINS1_18scalar_constant_opIdEEKNS_5ArrayIdLin1ELi1ELi0ELin1ELi1EEEEEKNS_12ArrayWrapperIKNS_6MatrixIdLin1ELi1ELi0ELin1ELi1EEEEENS_5DenseEEC2Ev"
 "_ZN5Eigen17CwiseBinaryOpImplINS_8internal18scalar_quotient_opIddEEKNS_5BlockIKNS4_INS4_INS_6MatrixIdLin1ELin1ELi0ELin1ELin1EEELin1ELi1ELb1EEELin1ELi1ELb0EEELin1ELi1ELb0EEEKNS_14CwiseNullaryOpINS1_18scalar_constant_opIdEEKNS5_IdLin1ELi1ELi0ELin1ELi1EEEEENS_5DenseEEC2Ev"
 "_ZN5Eigen17CwiseBinaryOpImplINS_8internal18scalar_quotient_opIddEEKNS_6MatrixIdLin1ELi1ELi0ELin1ELi1EEEKNS_14CwiseNullaryOpINS1_18scalar_constant_opIdEES6_EENS_5DenseEEC2Ev"
 "_ZN5Eigen17CwiseBinaryOpImplINS_8internal18scalar_quotient_opIddEEKNS_6MatrixIdLin1ELin1ELi0ELin1ELin1EEEKNS_14CwiseNullaryOpINS1_18scalar_constant_opIdEES6_EENS_5DenseEEC2Ev"
 "_ZN5Eigen17CwiseBinaryOpImplINS_8internal20scalar_difference_opIN4stan4math3varES5_EEKNS_14CwiseNullaryOpINS1_18scalar_constant_opIS5_EEKNS_5ArrayIS5_Lin1ELi1ELi0ELin1ELi1EEEEEKNS_12ArrayWrapperIKNS_6MatrixIS5_Lin1ELi1ELi0ELin1ELi1EEEEENS_5DenseEEC2Ev"
 "_ZN5Eigen17CwiseBinaryOpImplINS_8internal20scalar_difference_opIN4stan4math3varEdEEKNS_6MatrixIS5_Lin1ELi1ELi0ELin1ELi1EEEKNS7_IdLin1ELi1ELi0ELin1ELi1EEENS_5DenseEEC2Ev"
 "_ZN5Eigen17CwiseBinaryOpImplINS_8internal20scalar_difference_opIddEEKNS_14CwiseNullaryOpINS1_18scalar_constant_opIdEEKNS_5ArrayIdLin1ELi1ELi0ELin1ELi1EEEEEKNS_12ArrayWrapperIKNS_6MatrixIdLin1ELi1ELi0ELin1ELi1EEEEENS_5DenseEEC2Ev"
 "_ZN5Eigen17CwiseBinaryOpImplINS_8internal20scalar_difference_opIddEEKNS_14CwiseNullaryOpINS1_18scalar_identity_opIdEENS_6MatrixIdLin1ELin1ELi0ELin1ELin1EEEEEKNS_7ProductINS_13CwiseBinaryOpINS1_17scalar_product_opIddEEKNS4_INS1_18scalar_constant_opIdEEKNS7_IdLin1ELi1ELi0ELin1ELi1EEEEESI_EENS_9TransposeISI_EELi0EEENS_5DenseEEC2Ev"
 "_ZN5Eigen17CwiseBinaryOpImplINS_8internal20scalar_difference_opIddEEKNS_6MatrixIdLin1ELi1ELi0ELin1ELi1EEES6_NS_5DenseEEC2Ev"
 "_ZN5Eigen17CwiseBinaryOpImplINS_8internal22scalar_conj_product_opIddEEKNS_5BlockINS_6MatrixIdLin1ELi1ELi0ELin1ELi1EEELin1ELi1ELb0EEEKNS4_INS4_INS5_IdLin1ELin1ELi0ELin1ELin1EEELin1ELi1ELb1EEELin1ELi1ELb0EEENS_5DenseEEC2Ev"
 "_ZN5Eigen17CwiseBinaryOpImplINS_8internal22scalar_conj_product_opIddEEKNS_6MatrixIdLin1ELi1ELi0ELin1ELi1EEES6_NS_5DenseEEC2Ev"
 "_ZN5Eigen17CwiseBinaryOpImplINS_8internal22scalar_conj_product_opIddEEKNS_9TransposeIKNS_6MatrixIdLi1ELin1ELi1ELi1ELin1EEEEEKNS5_IdLin1ELi1ELi0ELin1ELi1EEENS_5DenseEEC2Ev"
 "_ZN5Eigen18CwiseUnaryViewImplINS_10MatrixBaseINS_3MapINS_6MatrixIPN4stan4math4variELin1ELi1ELi0ELin1ELi1EEELi0ENS_6StrideILi0ELi0EEEEEE6adj_OpESB_NS_5DenseEEC2Ev"
 "_ZN5Eigen18CwiseUnaryViewImplINS_10MatrixBaseINS_3MapINS_6MatrixIPN4stan4math4variELin1ELin1ELi0ELin1ELin1EEELi0ENS_6StrideILi0ELi0EEEEEE6adj_OpESB_NS_5DenseEEC2Ev"
 "_ZN5Eigen18CwiseUnaryViewImplINS_10MatrixBaseINS_6MatrixIN4stan4math3varELin1ELi1ELi0ELin1ELi1EEEE5vi_OpES6_NS_5DenseEEC2Ev"
 "_ZN5Eigen18CwiseUnaryViewImplINS_10MatrixBaseINS_6MatrixIN4stan4math3varELin1ELi1ELi0ELin1ELi1EEEE6adj_OpES6_NS_5DenseEEC2Ev"
 "_ZN5Eigen18TranspositionsBaseINS_14TranspositionsILin1ELin1EiEEE11setIdentityEv"
 "_ZN5Eigen18TranspositionsBaseINS_14TranspositionsILin1ELin1EiEEE6resizeEx"
 "_ZN5Eigen18TranspositionsBaseINS_14TranspositionsILin1ELin1EiEEE7derivedEv"
 "_ZN5Eigen18TranspositionsBaseINS_14TranspositionsILin1ELin1EiEEE7indicesEv"
 "_ZN5Eigen18TranspositionsBaseINS_14TranspositionsILin1ELin1EiEEE8coeffRefEx"
 "_ZN5Eigen18TriangularViewImplIKNS_6MatrixIdLin1ELin1ELi0ELin1ELin1EEELj1ENS_5DenseEEC2Ev"
 "_ZN5Eigen18TriangularViewImplIKNS_9TransposeIKNS_5BlockINS_6MatrixIdLin1ELin1ELi0ELin1ELin1EEELin1ELin1ELb0EEEEELj2ENS_5DenseEEC2Ev"
 "_ZN5Eigen18TriangularViewImplIKNS_9TransposeIKNS_6MatrixIdLin1ELin1ELi0ELin1ELin1EEEEELj2ENS_5DenseEEC2Ev"
 "_ZN5Eigen18TriangularViewImplINS_6MatrixIdLin1ELin1ELi0ELin1ELin1EEELj10ENS_5DenseEE7setZeroEv"
 "_ZN5Eigen18TriangularViewImplINS_6MatrixIdLin1ELin1ELi0ELin1ELin1EEELj1ENS_5DenseEEC2Ev"
 "_ZN5Eigen18TriangularViewImplINS_6MatrixIdLin1ELin1ELi0ELin1ELin1EEELj1ENS_5DenseEEaSINS_13CwiseBinaryOpINS_8internal18scalar_quotient_opIddEEKS2_KNS_14CwiseNullaryOpINS7_18scalar_constant_opIdEESA_EEEEEERNS_14TriangularViewIS2_Lj1EEERKNS_10MatrixBaseIT_EE"
 "_ZN5Eigen18TriangularViewImplINS_6MatrixIdLin1ELin1ELi0ELin1ELin1EEELj1ENS_5DenseEEdVERKd"
 "_ZN5Eigen19HouseholderSequenceINS_6MatrixIdLin1ELin1ELi0ELin1ELin1EEENS1_IdLin1ELi1ELi0ELin1ELi1EEELi1EE8setShiftEx"
 "_ZN5Eigen19HouseholderSequenceINS_6MatrixIdLin1ELin1ELi0ELin1ELin1EEENS1_IdLin1ELi1ELi0ELin1ELi1EEELi1EE9setLengthEx"
 "_ZN5Eigen19HouseholderSequenceINS_6MatrixIdLin1ELin1ELi0ELin1ELin1EEENS1_IdLin1ELi1ELi0ELin1ELi1EEELi1EEC1ERKS2_RKS3_"
 "_ZN5Eigen22SelfAdjointEigenSolverINS_6MatrixIdLin1ELin1ELi0ELin1ELin1EEEE25check_template_parametersEv"
 "_ZN5Eigen22SelfAdjointEigenSolverINS_6MatrixIdLin1ELin1ELi0ELin1ELin1EEEE7computeIS2_EERS3_RKNS_9EigenBaseIT_EEi"
 "_ZN5Eigen22SelfAdjointEigenSolverINS_6MatrixIdLin1ELin1ELi0ELin1ELin1EEEEC1IS2_EERKNS_9EigenBaseIT_EEi"
 "_ZN5Eigen22SelfAdjointEigenSolverINS_6MatrixIdLin1ELin1ELi0ELin1ELin1EEEED1Ev"
 "_ZN5Eigen28selfadjoint_product_selectorINS_5BlockINS_6MatrixIdLin1ELin1ELi0ELin1ELin1EEELin1ELin1ELb0EEES4_Li1ELb0EE3runERS4_RKS4_RKd"
 "_ZN5Eigen3LLTINS_6MatrixIdLin1ELin1ELi0ELin1ELin1EEELi1EE25check_template_parametersEv"
 "_ZN5Eigen3LLTINS_6MatrixIdLin1ELin1ELi0ELin1ELin1EEELi1EE7computeIS2_EERS3_RKNS_9EigenBaseIT_EE"
 "_ZN5Eigen3LLTINS_6MatrixIdLin1ELin1ELi0ELin1ELin1EEELi1EEC1IS2_EERKNS_9EigenBaseIT_EE"
 "_ZN5Eigen3LLTINS_6MatrixIdLin1ELin1ELi0ELin1ELin1EEELi1EED1Ev"
 "_ZN5Eigen3MapIKNS_6MatrixIdLin1ELin1ELi0ELin1ELin1EEELi0ENS_6StrideILi0ELi0EEEE20cast_to_pointer_typeEPKd"
 "_ZN5Eigen3MapIKNS_6MatrixIdLin1ELin1ELi0ELin1ELin1EEELi0ENS_6StrideILi0ELi0EEEEC1EPKdxxRKS5_"
 "_ZN5Eigen3MapINS_6MatrixIN4stan4math3varELin1ELi1ELi0ELin1ELi1EEELi0ENS_6StrideILi0ELi0EEEE20cast_to_pointer_typeEPS4_"
 "_ZN5Eigen3MapINS_6MatrixIN4stan4math3varELin1ELi1ELi0ELin1ELi1EEELi0ENS_6StrideILi0ELi0EEEEC1EPS4_xRKS7_"
 "_ZN5Eigen3MapINS_6MatrixIPN4stan4math4variELin1ELi1ELi0ELin1ELi1EEELi0ENS_6StrideILi0ELi0EEEE20cast_to_pointer_typeEPS5_"
 "_ZN5Eigen3MapINS_6MatrixIPN4stan4math4variELin1ELi1ELi0ELin1ELi1EEELi0ENS_6StrideILi0ELi0EEEEC1EPS5_xRKS8_"
 "_ZN5Eigen3MapINS_6MatrixIPN4stan4math4variELin1ELi1ELi0ELin1ELi1EEELi0ENS_6StrideILi0ELi0EEEEC1ERKS9_"
 "_ZN5Eigen3MapINS_6MatrixIPN4stan4math4variELin1ELin1ELi0ELin1ELin1EEELi0ENS_6StrideILi0ELi0EEEE20cast_to_pointer_typeEPS5_"
 "_ZN5Eigen3MapINS_6MatrixIPN4stan4math4variELin1ELin1ELi0ELin1ELin1EEELi0ENS_6StrideILi0ELi0EEEEC1EPS5_xxRKS8_"
 "_ZN5Eigen3MapINS_6MatrixIPN4stan4math4variELin1ELin1ELi0ELin1ELin1EEELi0ENS_6StrideILi0ELi0EEEEC1ERKS9_"
 "_ZN5Eigen3MapINS_6MatrixIdLi1ELin1ELi1ELi1ELin1EEELi0ENS_6StrideILi0ELi0EEEE20cast_to_pointer_typeEPd"
 "_ZN5Eigen3MapINS_6MatrixIdLi1ELin1ELi1ELi1ELin1EEELi0ENS_6StrideILi0ELi0EEEEC1EPdxRKS4_"
 "_ZN5Eigen3MapINS_6MatrixIdLi1ELin1ELi1ELi1ELin1EEELi0ENS_6StrideILi0ELi0EEEEC1ERKS5_"
 "_ZN5Eigen3MapINS_6MatrixIdLin1ELi1ELi0ELin1ELi1EEELi0ENS_6StrideILi0ELi0EEEE20cast_to_pointer_typeEPd"
 "_ZN5Eigen3MapINS_6MatrixIdLin1ELi1ELi0ELin1ELi1EEELi0ENS_6StrideILi0ELi0EEEEC1EPdxRKS4_"
 "_ZN5Eigen3MapINS_6MatrixIdLin1ELi1ELi0ELin1ELi1EEELi0ENS_6StrideILi0ELi0EEEEC1EPdxxRKS4_"
 "_ZN5Eigen3MapINS_6MatrixIdLin1ELi1ELi0ELin1ELi1EEELi0ENS_6StrideILi0ELi0EEEEC1ERKS5_"
 "_ZN5Eigen3MapINS_6MatrixIdLin1ELin1ELi0ELin1ELin1EEELi0ENS_6StrideILi0ELi0EEEE20cast_to_pointer_typeEPd"
 "_ZN5Eigen3MapINS_6MatrixIdLin1ELin1ELi0ELin1ELin1EEELi0ENS_6StrideILi0ELi0EEEEC1EPdxxRKS4_"
 "_ZN5Eigen3MapINS_6MatrixIdLin1ELin1ELi0ELin1ELin1EEELi0ENS_6StrideILi0ELi0EEEEC1ERKS5_"
 "_ZN5Eigen4LDLTINS_6MatrixIdLin1ELin1ELi0ELin1ELin1EEELi1EE25check_template_parametersEv"
 "_ZN5Eigen4LDLTINS_6MatrixIdLin1ELin1ELi0ELin1ELin1EEELi1EE7computeIS2_EERS3_RKNS_9EigenBaseIT_EE"
 "_ZN5Eigen4LDLTINS_6MatrixIdLin1ELin1ELi0ELin1ELin1EEELi1EEC1IS2_EERKNS_9EigenBaseIT_EE"
 "_ZN5Eigen4LDLTINS_6MatrixIdLin1ELin1ELi0ELin1ELin1EEELi1EED1Ev"
 "_ZN5Eigen5BlockIKNS0_INS0_INS_6MatrixIdLin1ELin1ELi0ELin1ELin1EEELin1ELi1ELb1EEELin1ELi1ELb0EEELin1ELi1ELb0EEC1ERKS6_"
 "_ZN5Eigen5BlockIKNS0_INS0_INS_6MatrixIdLin1ELin1ELi0ELin1ELin1EEELin1ELi1ELb1EEELin1ELi1ELb0EEELin1ELi1ELb0EEC2ERS5_xxxx"
 "_ZN5Eigen5BlockIKNS0_INS_6MatrixIdLin1ELi1ELi0ELin1ELi1EEELin1ELi1ELb0EEELin1ELi1ELb0EEC1ERKS5_"
 "_ZN5Eigen5BlockIKNS0_INS_6MatrixIdLin1ELi1ELi0ELin1ELi1EEELin1ELi1ELb0EEELin1ELi1ELb0EEC2ERS4_xxxx"
 "_ZN5Eigen5BlockIKNS_6MatrixIdLin1ELin1ELi0ELin1ELin1EEELi1ELin1ELb0EEC1ERKS4_"
 "_ZN5Eigen5BlockIKNS_6MatrixIdLin1ELin1ELi0ELin1ELin1EEELi1ELin1ELb0EEC1ERS3_x"
 "_ZN5Eigen5BlockIKNS_6MatrixIdLin1ELin1ELi0ELin1ELin1EEELin1ELi1ELb0EEC1ERKS4_"
 "_ZN5Eigen5BlockIKNS_6MatrixIdLin1ELin1ELi0ELin1ELin1EEELin1ELi1ELb1EEC1ERKS4_"
 "_ZN5Eigen5BlockIKNS_6MatrixIdLin1ELin1ELi0ELin1ELin1EEELin1ELi1ELb1EEC1ERS3_x"
 "_ZN5Eigen5BlockINS0_INS0_INS_6MatrixIdLin1ELin1ELi0ELin1ELin1EEELin1ELi1ELb1EEELin1ELi1ELb0EEELin1ELi1ELb0EEC2ERS4_xxxx"
 "_ZN5Eigen5BlockINS0_INS_6MatrixIdLin1ELin1ELi0ELin1ELin1EEELi1ELin1ELb0EEELi1ELin1ELb0EEC1ERKS4_"
 "_ZN5Eigen5BlockINS0_INS_6MatrixIdLin1ELin1ELi0ELin1ELin1EEELi1ELin1ELb0EEELi1ELin1ELb0EEC2ERS3_xxxx"
 "_ZN5Eigen5BlockINS0_INS_6MatrixIdLin1ELin1ELi0ELin1ELin1EEELin1ELi1ELb1EEELin1ELi1ELb0EEC1ERKS4_"
 "_ZN5Eigen5BlockINS0_INS_6MatrixIdLin1ELin1ELi0ELin1ELin1EEELin1ELi1ELb1EEELin1ELi1ELb0EEC2ERS3_xxxx"
 "_ZN5Eigen5BlockINS0_INS_6MatrixIdLin1ELin1ELi0ELin1ELin1EEELin1ELin1ELb0EEELi1ELin1ELb0EEC1ERKS4_"
 "_ZN5Eigen5BlockINS0_INS_6MatrixIdLin1ELin1ELi0ELin1ELin1EEELin1ELin1ELb0EEELi1ELin1ELb0EEC1ERS3_xxxx"
 "_ZN5Eigen5BlockINS0_INS_6MatrixIdLin1ELin1ELi0ELin1ELin1EEELin1ELin1ELb0EEELin1ELi1ELb0EEC1ERS3_xxxx"
 "_ZN5Eigen5BlockINS0_INS_6MatrixIdLin1ELin1ELi0ELin1ELin1EEELin1ELin1ELb0EEELin1ELin1ELb0EEC1ERS3_xxxx"
 "_ZN5Eigen5BlockINS_3MapINS_6MatrixIdLin1ELin1ELi0ELin1ELin1EEELi0ENS_6StrideILi0ELi0EEEEELin1ELi1ELb1EEC1ERS6_x"
 "_ZN5Eigen5BlockINS_6MatrixIdLin1ELi1ELi0ELin1ELi1EEELin1ELi1ELb0EEC1ERKS3_"
 "_ZN5Eigen5BlockINS_6MatrixIdLin1ELi1ELi0ELin1ELi1EEELin1ELi1ELb0EEC2ERS2_xxxx"
 "_ZN5Eigen5BlockINS_6MatrixIdLin1ELi1ELi0ELin1ELi1EEELin1ELi1ELb1EEC1ERS2_x"
 "_ZN5Eigen5BlockINS_6MatrixIdLin1ELin1ELi0ELin1ELin1EEELi1ELin1ELb0EEC1ERKS3_"
 "_ZN5Eigen5BlockINS_6MatrixIdLin1ELin1ELi0ELin1ELin1EEELi1ELin1ELb0EEC1ERS2_x"
 "_ZN5Eigen5BlockINS_6MatrixIdLin1ELin1ELi0ELin1ELin1EEELi1ELin1ELb0EEC1ERS2_xxxx"
 "_ZN5Eigen5BlockINS_6MatrixIdLin1ELin1ELi0ELin1ELin1EEELin1ELi1ELb0EEC1ERKS3_"
 "_ZN5Eigen5BlockINS_6MatrixIdLin1ELin1ELi0ELin1ELin1EEELin1ELi1ELb0EEC1ERS2_xxxx"
 "_ZN5Eigen5BlockINS_6MatrixIdLin1ELin1ELi0ELin1ELin1EEELin1ELi1ELb1EEC1ERKS3_"
 "_ZN5Eigen5BlockINS_6MatrixIdLin1ELin1ELi0ELin1ELin1EEELin1ELi1ELb1EEC1ERS2_x"
 "_ZN5Eigen5BlockINS_6MatrixIdLin1ELin1ELi0ELin1ELin1EEELin1ELin1ELb0EEC1ERS2_xxxx"
 "_ZN5Eigen5BlockINS_8DiagonalINS_6MatrixIdLin1ELin1ELi0ELin1ELin1EEELi0EEELin1ELi1ELb0EEC1ERKS5_"
 "_ZN5Eigen5BlockINS_8DiagonalINS_6MatrixIdLin1ELin1ELi0ELin1ELin1EEELi0EEELin1ELi1ELb0EEC2ERS4_xxxx"
 "_ZN5Eigen5SolveINS_14TriangularViewIKNS_9TransposeIKNS_6MatrixIdLin1ELin1ELi0ELin1ELin1EEEEELj2EEENS3_IdLin1ELi1ELi0ELin1ELi1EEEEC1ERKS8_RKS9_"
 "_ZN5Eigen6MatrixIN4stan4math3varELin1ELi1ELi0ELin1ELi1EEC1ERKS4_"
 "_ZN5Eigen6MatrixIN4stan4math3varELin1ELi1ELi0ELin1ELi1EEC1Ev"
 "_ZN5Eigen6MatrixIN4stan4math3varELin1ELi1ELi0ELin1ELi1EEC1INS0_IdLin1ELi1ELi0ELin1ELi1EEEEERKT_"
 "_ZN5Eigen6MatrixIN4stan4math3varELin1ELi1ELi0ELin1ELi1EEC1INS_12CwiseUnaryOpIZNS2_18apply_scalar_unaryINS2_7exp_funES4_E5applyERKS4_EUlS3_E_SA_EEEERKNS_9EigenBaseIT_EE"
 "_ZN5Eigen6MatrixIN4stan4math3varELin1ELi1ELi0ELin1ELi1EEC1INS_12CwiseUnaryOpIZNS2_18apply_scalar_unaryINS2_7log_funES4_E5applyERKS4_EUlS3_E_SA_EEEERKNS_9EigenBaseIT_EE"
 "_ZN5Eigen6MatrixIN4stan4math3varELin1ELi1ELi0ELin1ELi1EEC1INS_13CwiseBinaryOpINS_8internal13scalar_sum_opIdS3_EEKNS_14CwiseNullaryOpINS7_18scalar_constant_opIdEEKNS_5ArrayIdLin1ELi1ELi0ELin1ELi1EEEEEKNS_12ArrayWrapperIKS4_EEEEEERKNS_9EigenBaseIT_EE"
 "_ZN5Eigen6MatrixIN4stan4math3varELin1ELi1ELi0ELin1ELi1EEC1INS_13CwiseBinaryOpINS_8internal17scalar_product_opIS3_S3_EEKS4_SA_EEEERKNS_9EigenBaseIT_EE"
 "_ZN5Eigen6MatrixIN4stan4math3varELin1ELi1ELi0ELin1ELi1EEC1INS_13CwiseBinaryOpINS_8internal18scalar_quotient_opIdS3_EEKNS_14CwiseNullaryOpINS7_18scalar_constant_opIdEEKNS_5ArrayIdLin1ELi1ELi0ELin1ELi1EEEEEKNS_12ArrayWrapperIKS4_EEEEEERKNS_9EigenBaseIT_EE"
 "_ZN5Eigen6MatrixIN4stan4math3varELin1ELi1ELi0ELin1ELi1EEC1INS_13CwiseBinaryOpINS_8internal20scalar_difference_opIS3_S3_EEKNS_14CwiseNullaryOpINS7_18scalar_constant_opIS3_EEKNS_5ArrayIS3_Lin1ELi1ELi0ELin1ELi1EEEEEKNS_12ArrayWrapperIKS4_EEEEEERKNS_9EigenBaseIT_EE"
 "_ZN5Eigen6MatrixIN4stan4math3varELin1ELi1ELi0ELin1ELi1EEC1INS_13CwiseBinaryOpINS_8internal20scalar_difference_opIS3_dEEKS4_KNS0_IdLin1ELi1ELi0ELin1ELi1EEEEEEERKNS_9EigenBaseIT_EE"
 "_ZN5Eigen6MatrixIN4stan4math3varELin1ELi1ELi0ELin1ELi1EEC1INS_3MapIS4_Li0ENS_6StrideILi0ELi0EEEEEEERKNS_9EigenBaseIT_EE"
 "_ZN5Eigen6MatrixIN4stan4math3varELin1ELi1ELi0ELin1ELi1EEC1IiEERKT_"
 "_ZN5Eigen6MatrixIN4stan4math3varELin1ELi1ELi0ELin1ELi1EEC1IxxEERKT_RKT0_"
 "_ZN5Eigen6MatrixIN4stan4math3varELin1ELi1ELi0ELin1ELi1EED1Ev"
 "_ZN5Eigen6MatrixIN4stan4math3varELin1ELi1ELi0ELin1ELi1EEaSEOS4_"
 "_ZN5Eigen6MatrixIN4stan4math3varELin1ELi1ELi0ELin1ELi1EEaSERKS4_"
 "_ZN5Eigen6MatrixIN4stan4math3varELin1ELi1ELi0ELin1ELi1EEaSINS_14CwiseNullaryOpINS_8internal18scalar_constant_opIS3_EES4_EEEERS4_RKNS_9DenseBaseIT_EE"
 "_ZN5Eigen6MatrixIdLi1ELi1ELi0ELi1ELi1EEC1IxxEERKT_RKT0_"
 "_ZN5Eigen6MatrixIdLi1ELin1ELi1ELi1ELin1EEC1ERKS1_"
 "_ZN5Eigen6MatrixIdLi1ELin1ELi1ELi1ELin1EEC1Ev"
 "_ZN5Eigen6MatrixIdLi1ELin1ELi1ELi1ELin1EEC1INS_13CwiseBinaryOpINS_8internal17scalar_product_opIddEEKNS_14CwiseNullaryOpINS4_18scalar_constant_opIdEEKS1_EESA_EEEERKNS_9EigenBaseIT_EE"
 "_ZN5Eigen6MatrixIdLi1ELin1ELi1ELi1ELin1EEC1IiEERKT_"
 "_ZN5Eigen6MatrixIdLi1ELin1ELi1ELi1ELin1EED1Ev"
 "_ZN5Eigen6MatrixIdLi1ELin1ELi1ELi1ELin1EEaSEOS1_"
 "_ZN5Eigen6MatrixIdLi4ELi4ELi0ELi4ELi4EEC1ENS_8internal42constructor_without_unaligned_array_assertE"
 "_ZN5Eigen6MatrixIdLi4ELi4ELi0ELi4ELi4EEaSINS_14CwiseNullaryOpINS_8internal18scalar_constant_opIdEES1_EEEERS1_RKNS_9DenseBaseIT_EE"
 "_ZN5Eigen6MatrixIdLin1ELi1ELi0ELin1ELi1EEC1EOS1_"
 "_ZN5Eigen6MatrixIdLin1ELi1ELi0ELin1ELi1EEC1ERKS1_"
 "_ZN5Eigen6MatrixIdLin1ELi1ELi0ELin1ELi1EEC1Ev"
 "_ZN5Eigen6MatrixIdLin1ELi1ELi0ELin1ELi1EEC1INS_12CwiseUnaryOpINS_8internal14scalar_sqrt_opIdEEKNS_12ArrayWrapperIKS1_EEEEEERKT_"
 "_ZN5Eigen6MatrixIdLin1ELi1ELi0ELin1ELi1EEC1INS_12CwiseUnaryOpINS_8internal16scalar_square_opIdEEKNS_12ArrayWrapperIKS1_EEEEEERKT_"
 "_ZN5Eigen6MatrixIdLin1ELi1ELi0ELin1ELi1EEC1INS_12CwiseUnaryOpIZN4stan4math18apply_scalar_unaryINS5_7exp_funES1_E5applyERKS1_EUldE_S9_EEEERKNS_9EigenBaseIT_EE"
 "_ZN5Eigen6MatrixIdLin1ELi1ELi0ELin1ELi1EEC1INS_12CwiseUnaryOpIZN4stan4math18apply_scalar_unaryINS5_7log_funES1_E5applyERKS1_EUldE_S9_EEEERKNS_9EigenBaseIT_EE"
 "_ZN5Eigen6MatrixIdLin1ELi1ELi0ELin1ELi1EEC1INS_13CwiseBinaryOpINS_8internal13scalar_sum_opIddEEKNS3_INS4_17scalar_product_opIddEEKNS_12ArrayWrapperIKS1_EEKNS_12CwiseUnaryOpINS4_13scalar_exp_opIdEESC_EEEESC_EEEERKNS_9EigenBaseIT_EE"
 "_ZN5Eigen6MatrixIdLin1ELi1ELi0ELin1ELi1EEC1INS_13CwiseBinaryOpINS_8internal13scalar_sum_opIddEEKNS_14CwiseNullaryOpINS4_18scalar_constant_opIdEEKNS_5ArrayIdLin1ELi1ELi0ELin1ELi1EEEEEKNS_12ArrayWrapperIKS1_EEEEEERKNS_9EigenBaseIT_EE"
 "_ZN5Eigen6MatrixIdLin1ELi1ELi0ELin1ELi1EEC1INS_13CwiseBinaryOpINS_8internal13scalar_sum_opIddEEKNS_7ProductINS0_IdLin1ELin1ELi0ELin1ELin1EEES1_Li0EEEKS1_EEEERKNS_9EigenBaseIT_EE"
 "_ZN5Eigen6MatrixIdLin1ELi1ELi0ELin1ELi1EEC1INS_13CwiseBinaryOpINS_8internal17scalar_product_opIddEEKNS_14CwiseNullaryOpINS4_18scalar_constant_opIdEEKS1_EESA_EEEERKT_"
 "_ZN5Eigen6MatrixIdLin1ELi1ELi0ELin1ELi1EEC1INS_13CwiseBinaryOpINS_8internal17scalar_product_opIddEEKS1_S7_EEEERKNS_9EigenBaseIT_EE"
 "_ZN5Eigen6MatrixIdLin1ELi1ELi0ELin1ELi1EEC1INS_13CwiseBinaryOpINS_8internal18scalar_quotient_opIddEEKNS_14CwiseNullaryOpINS4_18scalar_constant_opIdEEKNS_5ArrayIdLin1ELi1ELi0ELin1ELi1EEEEEKNS_12ArrayWrapperIKS1_EEEEEERKNS_9EigenBaseIT_EE"
 "_ZN5Eigen6MatrixIdLin1ELi1ELi0ELin1ELi1EEC1INS_13CwiseBinaryOpINS_8internal20scalar_difference_opIddEEKNS_14CwiseNullaryOpINS4_18scalar_constant_opIdEEKNS_5ArrayIdLin1ELi1ELi0ELin1ELi1EEEEEKNS_12ArrayWrapperIKS1_EEEEEERKNS_9EigenBaseIT_EE"
 "_ZN5Eigen6MatrixIdLin1ELi1ELi0ELin1ELi1EEC1INS_13CwiseBinaryOpINS_8internal20scalar_difference_opIddEEKS1_S7_EEEERKNS_9EigenBaseIT_EE"
 "_ZN5Eigen6MatrixIdLin1ELi1ELi0ELin1ELi1EEC1INS_13CwiseBinaryOpINS_8internal20scalar_difference_opIddEEKS1_S7_EEEERKT_"
 "_ZN5Eigen6MatrixIdLin1ELi1ELi0ELin1ELi1EEC1INS_14CwiseNullaryOpINS_8internal18scalar_constant_opIdEES1_EEEERKNS_9EigenBaseIT_EE"
 "_ZN5Eigen6MatrixIdLin1ELi1ELi0ELin1ELi1EEC1INS_14CwiseNullaryOpINS_8internal18scalar_constant_opIdEES1_EEEERKT_"
 "_ZN5Eigen6MatrixIdLin1ELi1ELi0ELin1ELi1EEC1INS_3MapIS1_Li0ENS_6StrideILi0ELi0EEEEEEERKNS_9EigenBaseIT_EE"
 "_ZN5Eigen6MatrixIdLin1ELi1ELi0ELin1ELi1EEC1INS_5BlockIKNS0_IdLin1ELin1ELi0ELin1ELin1EEELi1ELin1ELb0EEEEERKNS_9EigenBaseIT_EE"
 "_ZN5Eigen6MatrixIdLin1ELi1ELi0ELin1ELi1EEC1INS_7ProductINS0_IdLin1ELin1ELi0ELin1ELin1EEES1_Li0EEEEERKNS_9EigenBaseIT_EE"
 "_ZN5Eigen6MatrixIdLin1ELi1ELi0ELin1ELi1EEC1INS_7ProductINS0_IdLin1ELin1ELi0ELin1ELin1EEES1_Li0EEEEERKT_"
 "_ZN5Eigen6MatrixIdLin1ELi1ELi0ELin1ELi1EEC1INS_7ProductINS_9TransposeINS0_IdLin1ELin1ELi0ELin1ELin1EEEEES1_Li0EEEEERKNS_9EigenBaseIT_EE"
 "_ZN5Eigen6MatrixIdLin1ELi1ELi0ELin1ELi1EEC1IiEERKT_"
 "_ZN5Eigen6MatrixIdLin1ELi1ELi0ELin1ELi1EEC1IxEERKT_"
 "_ZN5Eigen6MatrixIdLin1ELi1ELi0ELin1ELi1EEC1IxxEERKT_RKT0_"
 "_ZN5Eigen6MatrixIdLin1ELi1ELi0ELin1ELi1EEC1IyEERKT_"
 "_ZN5Eigen6MatrixIdLin1ELi1ELi0ELin1ELi1EED1Ev"
 "_ZN5Eigen6MatrixIdLin1ELi1ELi0ELin1ELi1EEaSEOS1_"
 "_ZN5Eigen6MatrixIdLin1ELi1ELi0ELin1ELi1EEaSERKS1_"
 "_ZN5Eigen6MatrixIdLin1ELi1ELi0ELin1ELi1EEaSINS_12CwiseUnaryOpINS_8internal18scalar_opposite_opIdEEKS1_EEEERS1_RKNS_9DenseBaseIT_EE"
 "_ZN5Eigen6MatrixIdLin1ELi1ELi0ELin1ELi1EEaSINS_13CwiseBinaryOpINS_8internal13scalar_sum_opIddEEKNS3_INS4_17scalar_product_opIddEEKNS_14CwiseNullaryOpINS4_18scalar_constant_opIdEEKS1_EESC_EEKNS3_IS8_SE_KNS9_ISB_S1_EEEEEEEERS1_RKNS_9DenseBaseIT_EE"
 "_ZN5Eigen6MatrixIdLin1ELi1ELi0ELin1ELi1EEaSINS_13CwiseBinaryOpINS_8internal13scalar_sum_opIddEEKS1_KNS3_INS4_17scalar_product_opIddEEKNS_14CwiseNullaryOpINS4_18scalar_constant_opIdEES7_EES7_EEEEEERS1_RKNS_9DenseBaseIT_EE"
 "_ZN5Eigen6MatrixIdLin1ELi1ELi0ELin1ELi1EEaSINS_13CwiseBinaryOpINS_8internal18scalar_quotient_opIddEEKS1_KNS_14CwiseNullaryOpINS4_18scalar_constant_opIdEES7_EEEEEERS1_RKNS_9DenseBaseIT_EE"
 "_ZN5Eigen6MatrixIdLin1ELi1ELi0ELin1ELi1EEaSINS_14CwiseNullaryOpINS_8internal18scalar_constant_opIdEES1_EEEERS1_RKNS_9DenseBaseIT_EE"
 "_ZN5Eigen6MatrixIdLin1ELi1ELi0ELin1ELi1EEaSINS_14CwiseUnaryViewINS_10MatrixBaseINS0_IN4stan4math3varELin1ELi1ELi0ELin1ELi1EEEE6adj_OpES8_EEEERS1_RKNS_9DenseBaseIT_EE"
 "_ZN5Eigen6MatrixIdLin1ELi1ELi0ELin1ELi1EEaSINS_3MapIS1_Li0ENS_6StrideILi0ELi0EEEEEEERS1_RKNS_9DenseBaseIT_EE"
 "_ZN5Eigen6MatrixIdLin1ELi1ELi0ELin1ELi1EEaSINS_5SolveINS_14TriangularViewIKNS_9TransposeIKNS0_IdLin1ELin1ELi0ELin1ELin1EEEEELj2EEES1_EEEERS1_RKNS_9DenseBaseIT_EE"
 "_ZN5Eigen6MatrixIdLin1ELi1ELi0ELin1ELi1EEaSINS_7ProductINS0_IdLin1ELin1ELi0ELin1ELin1EEES1_Li0EEEEERS1_RKNS_9DenseBaseIT_EE"
 "_ZN5Eigen6MatrixIdLin1ELi1ELi0ELin1ELi1EEaSINS_8DiagonalINS0_IdLin1ELin1ELi0ELin1ELin1EEELi0EEEEERS1_RKNS_9DenseBaseIT_EE"
 "_ZN5Eigen6MatrixIdLin1ELi1ELi0ELin1ELi1EEaSINS_8DiagonalINS0_IdLin1ELin1ELi0ELin1ELin1EEELin1EEEEERS1_RKNS_9DenseBaseIT_EE"
 "_ZN5Eigen6MatrixIdLin1ELin1ELi0ELin1ELin1EEC1ERKS1_"
 "_ZN5Eigen6MatrixIdLin1ELin1ELi0ELin1ELin1EEC1Ev"
 "_ZN5Eigen6MatrixIdLin1ELin1ELi0ELin1ELin1EEC1INS_12CwiseUnaryOpINS_8internal14scalar_sqrt_opIdEEKNS_12ArrayWrapperIKS1_EEEEEERKT_"
 "_ZN5Eigen6MatrixIdLin1ELin1ELi0ELin1ELin1EEC1INS_12CwiseUnaryOpINS_8internal16scalar_square_opIdEEKNS_12ArrayWrapperIKS1_EEEEEERKT_"
 "_ZN5Eigen6MatrixIdLin1ELin1ELi0ELin1ELin1EEC1INS_13CwiseBinaryOpINS_8internal17scalar_product_opIddEEKNS_14CwiseNullaryOpINS4_18scalar_constant_opIdEEKS1_EESA_EEEERKNS_9EigenBaseIT_EE"
 "_ZN5Eigen6MatrixIdLin1ELin1ELi0ELin1ELin1EEC1INS_14CwiseNullaryOpINS_8internal18scalar_constant_opIdEES1_EEEERKNS_9EigenBaseIT_EE"
 "_ZN5Eigen6MatrixIdLin1ELin1ELi0ELin1ELin1EEC1INS_14CwiseNullaryOpINS_8internal18scalar_constant_opIdEES1_EEEERKT_"
 "_ZN5Eigen6MatrixIdLin1ELin1ELi0ELin1ELin1EEC1INS_14CwiseNullaryOpINS_8internal18scalar_identity_opIdEES1_EEEERKT_"
 "_ZN5Eigen6MatrixIdLin1ELin1ELi0ELin1ELin1EEC1INS_14CwiseUnaryViewINS_10MatrixBaseINS_3MapINS0_IPN4stan4math4variELin1ELin1ELi0ELin1ELin1EEELi0ENS_6StrideILi0ELi0EEEEEE6adj_OpESD_EEEERKNS_9EigenBaseIT_EE"
 "_ZN5Eigen6MatrixIdLin1ELin1ELi0ELin1ELin1EEC1INS_3MapIKS1_Li0ENS_6StrideILi0ELi0EEEEEEERKNS_9EigenBaseIT_EE"
 "_ZN5Eigen6MatrixIdLin1ELin1ELi0ELin1ELin1EEC1INS_3MapIS1_Li0ENS_6StrideILi0ELi0EEEEEEERKNS_9EigenBaseIT_EE"
 "_ZN5Eigen6MatrixIdLin1ELin1ELi0ELin1ELin1EEC1INS_7ProductINS_13CwiseBinaryOpINS_8internal20scalar_difference_opIddEEKNS0_IdLin1ELi1ELi0ELin1ELi1EEES9_EENS_9TransposeIS8_EELi0EEEEERKT_"
 "_ZN5Eigen6MatrixIdLin1ELin1ELi0ELin1ELin1EEC1INS_7ProductINS_9TransposeINS_3MapIS1_Li0ENS_6StrideILi0ELi0EEEEEEES1_Li0EEEEERKT_"
 "_ZN5Eigen6MatrixIdLin1ELin1ELi0ELin1ELin1EEC1INS_7ProductIS1_S1_Li0EEEEERKT_"
 "_ZN5Eigen6MatrixIdLin1ELin1ELi0ELin1ELin1EEC1IiiEERKT_RKT0_"
 "_ZN5Eigen6MatrixIdLin1ELin1ELi0ELin1ELin1EEC1IxxEERKT_RKT0_"
 "_ZN5Eigen6MatrixIdLin1ELin1ELi0ELin1ELin1EEC1IyyEERKT_RKT0_"
 "_ZN5Eigen6MatrixIdLin1ELin1ELi0ELin1ELin1EED1Ev"
 "_ZN5Eigen6MatrixIdLin1ELin1ELi0ELin1ELin1EEaSEOS1_"
 "_ZN5Eigen6MatrixIdLin1ELin1ELi0ELin1ELin1EEaSERKS1_"
 "_ZN5Eigen6MatrixIdLin1ELin1ELi0ELin1ELin1EEaSINS_13CwiseBinaryOpINS_8internal13scalar_sum_opIddEEKNS3_INS4_17scalar_product_opIddEEKNS_14CwiseNullaryOpINS4_18scalar_constant_opIdEEKS1_EESC_EEKNS3_IS8_SE_KNS9_INS4_18scalar_identity_opIdEES1_EEEEEEEERS1_RKNS_9DenseBaseIT_EE"
 "_ZN5Eigen6MatrixIdLin1ELin1ELi0ELin1ELin1EEaSINS_13CwiseBinaryOpINS_8internal18scalar_quotient_opIddEEKS1_KNS_14CwiseNullaryOpINS4_18scalar_constant_opIdEES7_EEEEEERS1_RKNS_9DenseBaseIT_EE"
 "_ZN5Eigen6MatrixIdLin1ELin1ELi0ELin1ELin1EEaSINS_14CwiseNullaryOpINS_8internal18scalar_constant_opIdEES1_EEEERS1_RKNS_9DenseBaseIT_EE"
 "_ZN5Eigen6MatrixIdLin1ELin1ELi0ELin1ELin1EEaSINS_14CwiseNullaryOpINS_8internal18scalar_identity_opIdEES1_EEEERS1_RKNS_9DenseBaseIT_EE"
 "_ZN5Eigen6MatrixIdLin1ELin1ELi0ELin1ELin1EEaSINS_14TriangularViewIKS1_Lj1EEEEERS1_RKNS_9EigenBaseIT_EE"
 "_ZN5Eigen6MatrixIdLin1ELin1ELi0ELin1ELin1EEaSINS_19HouseholderSequenceIS1_NS0_IdLin1ELi1ELi0ELin1ELi1EEELi1EEEEERS1_RKNS_9EigenBaseIT_EE"
 "_ZN5Eigen6MatrixIdLin1ELin1ELi0ELin1ELin1EEaSINS_7ProductINS3_IS1_S1_Li0EEENS_9TransposeIS1_EELi0EEEEERS1_RKNS_9DenseBaseIT_EE"
 "_ZN5Eigen6MatrixIdLin1ELin1ELi1ELin1ELin1EEC1INS_7ProductINS3_INS0_IdLin1ELin1ELi0ELin1ELin1EEES4_Li0EEENS_9TransposeIS4_EELi0EEEEERKT_"
 "_ZN5Eigen6MatrixIdLin1ELin1ELi1ELin1ELin1EED1Ev"
 "_ZN5Eigen6MatrixIiLin1ELi1ELi0ELin1ELi1EEC1IxEERKT_"
 "_ZN5Eigen6MatrixIiLin1ELi1ELi0ELin1ELi1EED1Ev"
 "_ZN5Eigen6StrideILi0ELi0EEC1ERKS1_"
 "_ZN5Eigen6StrideILi0ELi0EEC1Ev"
 "_ZN5Eigen6StrideILin1ELi0EEC2Exx"
 "_ZN5Eigen6numext4abs2IdEENS_8internal11abs2_retvalINS2_36global_math_functions_filtering_baseIT_vE4typeEE4typeERKS5_"
 "_ZN5Eigen6numext4conjIdEENS_8internal11conj_retvalINS2_36global_math_functions_filtering_baseIT_vE4typeEE4typeERKS5_"
 "_ZN5Eigen6numext4imagIdEENS_8internal11imag_retvalINS2_36global_math_functions_filtering_baseIT_vE4typeEE4typeERKS5_"
 "_ZN5Eigen6numext4realIdEENS_8internal11real_retvalINS2_36global_math_functions_filtering_baseIT_vE4typeEE4typeERKS5_"
 "_ZN5Eigen6numext5hypotIdEENS_8internal12hypot_retvalINS2_36global_math_functions_filtering_baseIT_vE4typeEE4typeERKS5_SB_"
 "_ZN5Eigen6numext8div_ceilIxEET_RKS2_S4_"
 "_ZN5Eigen7MapBaseINS_3MapIKNS_6MatrixIdLin1ELin1ELi0ELin1ELin1EEELi0ENS_6StrideILi0ELi0EEEEELi0EEC2EPKdxx"
 "_ZN5Eigen7MapBaseINS_3MapINS_6MatrixIN4stan4math3varELin1ELi1ELi0ELin1ELi1EEELi0ENS_6StrideILi0ELi0EEEEELi0EEC2EPS5_x"
 "_ZN5Eigen7MapBaseINS_3MapINS_6MatrixIN4stan4math3varELin1ELi1ELi0ELin1ELi1EEELi0ENS_6StrideILi0ELi0EEEEELi1EEC2EPS5_x"
 "_ZN5Eigen7MapBaseINS_3MapINS_6MatrixIPN4stan4math4variELin1ELi1ELi0ELin1ELi1EEELi0ENS_6StrideILi0ELi0EEEEELi0EEC2EPS6_x"
 "_ZN5Eigen7MapBaseINS_3MapINS_6MatrixIPN4stan4math4variELin1ELi1ELi0ELin1ELi1EEELi0ENS_6StrideILi0ELi0EEEEELi0EEC2ERKSB_"
 "_ZN5Eigen7MapBaseINS_3MapINS_6MatrixIPN4stan4math4variELin1ELi1ELi0ELin1ELi1EEELi0ENS_6StrideILi0ELi0EEEEELi1EEC2EPS6_x"
 "_ZN5Eigen7MapBaseINS_3MapINS_6MatrixIPN4stan4math4variELin1ELi1ELi0ELin1ELi1EEELi0ENS_6StrideILi0ELi0EEEEELi1EEC2ERKSB_"
 "_ZN5Eigen7MapBaseINS_3MapINS_6MatrixIPN4stan4math4variELin1ELin1ELi0ELin1ELin1EEELi0ENS_6StrideILi0ELi0EEEEELi0EEC2EPS6_xx"
 "_ZN5Eigen7MapBaseINS_3MapINS_6MatrixIPN4stan4math4variELin1ELin1ELi0ELin1ELin1EEELi0ENS_6StrideILi0ELi0EEEEELi1EEC2EPS6_xx"
 "_ZN5Eigen7MapBaseINS_3MapINS_6MatrixIdLi1ELin1ELi1ELi1ELin1EEELi0ENS_6StrideILi0ELi0EEEEELi0EEC2EPdx"
 "_ZN5Eigen7MapBaseINS_3MapINS_6MatrixIdLi1ELin1ELi1ELi1ELin1EEELi0ENS_6StrideILi0ELi0EEEEELi0EEC2ERKS7_"
 "_ZN5Eigen7MapBaseINS_3MapINS_6MatrixIdLi1ELin1ELi1ELi1ELin1EEELi0ENS_6StrideILi0ELi0EEEEELi1EEC2EPdx"
 "_ZN5Eigen7MapBaseINS_3MapINS_6MatrixIdLi1ELin1ELi1ELi1ELin1EEELi0ENS_6StrideILi0ELi0EEEEELi1EEC2ERKS7_"
 "_ZN5Eigen7MapBaseINS_3MapINS_6MatrixIdLin1ELi1ELi0ELin1ELi1EEELi0ENS_6StrideILi0ELi0EEEEELi0EEC2EPdx"
 "_ZN5Eigen7MapBaseINS_3MapINS_6MatrixIdLin1ELi1ELi0ELin1ELi1EEELi0ENS_6StrideILi0ELi0EEEEELi0EEC2EPdxx"
 "_ZN5Eigen7MapBaseINS_3MapINS_6MatrixIdLin1ELi1ELi0ELin1ELi1EEELi0ENS_6StrideILi0ELi0EEEEELi0EEC2ERKS7_"
 "_ZN5Eigen7MapBaseINS_3MapINS_6MatrixIdLin1ELi1ELi0ELin1ELi1EEELi0ENS_6StrideILi0ELi0EEEEELi1EE4dataEv"
 "_ZN5Eigen7MapBaseINS_3MapINS_6MatrixIdLin1ELi1ELi0ELin1ELi1EEELi0ENS_6StrideILi0ELi0EEEEELi1EEC2EPdx"
 "_ZN5Eigen7MapBaseINS_3MapINS_6MatrixIdLin1ELi1ELi0ELin1ELi1EEELi0ENS_6StrideILi0ELi0EEEEELi1EEC2EPdxx"
 "_ZN5Eigen7MapBaseINS_3MapINS_6MatrixIdLin1ELi1ELi0ELin1ELi1EEELi0ENS_6StrideILi0ELi0EEEEELi1EEC2ERKS7_"
 "_ZN5Eigen7MapBaseINS_3MapINS_6MatrixIdLin1ELin1ELi0ELin1ELin1EEELi0ENS_6StrideILi0ELi0EEEEELi0EEC2EPdxx"
 "_ZN5Eigen7MapBaseINS_3MapINS_6MatrixIdLin1ELin1ELi0ELin1ELin1EEELi0ENS_6StrideILi0ELi0EEEEELi1EE4dataEv"
 "_ZN5Eigen7MapBaseINS_3MapINS_6MatrixIdLin1ELin1ELi0ELin1ELin1EEELi0ENS_6StrideILi0ELi0EEEEELi1EEC2EPdxx"
 "_ZN5Eigen7MapBaseINS_5BlockIKNS1_INS1_INS_6MatrixIdLin1ELin1ELi0ELin1ELin1EEELin1ELi1ELb1EEELin1ELi1ELb0EEELin1ELi1ELb0EEELi0EEC2EPKdxx"
 "_ZN5Eigen7MapBaseINS_5BlockIKNS1_INS1_INS_6MatrixIdLin1ELin1ELi0ELin1ELin1EEELin1ELi1ELb1EEELin1ELi1ELb0EEELin1ELi1ELb0EEELi0EEC2ERKS8_"
 "_ZN5Eigen7MapBaseINS_5BlockIKNS1_INS_6MatrixIdLin1ELi1ELi0ELin1ELi1EEELin1ELi1ELb0EEELin1ELi1ELb0EEELi0EEC2EPKdxx"
 "_ZN5Eigen7MapBaseINS_5BlockIKNS1_INS_6MatrixIdLin1ELi1ELi0ELin1ELi1EEELin1ELi1ELb0EEELin1ELi1ELb0EEELi0EEC2ERKS7_"
 "_ZN5Eigen7MapBaseINS_5BlockIKNS_6MatrixIdLin1ELin1ELi0ELin1ELin1EEELi1ELin1ELb0EEELi0EEC2EPKdxx"
 "_ZN5Eigen7MapBaseINS_5BlockIKNS_6MatrixIdLin1ELin1ELi0ELin1ELin1EEELi1ELin1ELb0EEELi0EEC2ERKS6_"
 "_ZN5Eigen7MapBaseINS_5BlockIKNS_6MatrixIdLin1ELin1ELi0ELin1ELin1EEELin1ELi1ELb0EEELi0EEC2ERKS6_"
 "_ZN5Eigen7MapBaseINS_5BlockIKNS_6MatrixIdLin1ELin1ELi0ELin1ELin1EEELin1ELi1ELb1EEELi0EEC2EPKdxx"
 "_ZN5Eigen7MapBaseINS_5BlockIKNS_6MatrixIdLin1ELin1ELi0ELin1ELin1EEELin1ELi1ELb1EEELi0EEC2ERKS6_"
 "_ZN5Eigen7MapBaseINS_5BlockINS1_INS1_INS_6MatrixIdLin1ELin1ELi0ELin1ELin1EEELin1ELi1ELb1EEELin1ELi1ELb0EEELin1ELi1ELb0EEELi0EEC2EPdxx"
 "_ZN5Eigen7MapBaseINS_5BlockINS1_INS1_INS_6MatrixIdLin1ELin1ELi0ELin1ELin1EEELin1ELi1ELb1EEELin1ELi1ELb0EEELin1ELi1ELb0EEELi1EEC2EPdxx"
 "_ZN5Eigen7MapBaseINS_5BlockINS1_INS_6MatrixIdLin1ELin1ELi0ELin1ELin1EEELi1ELin1ELb0EEELi1ELin1ELb0EEELi0EEC2EPdxx"
 "_ZN5Eigen7MapBaseINS_5BlockINS1_INS_6MatrixIdLin1ELin1ELi0ELin1ELin1EEELi1ELin1ELb0EEELi1ELin1ELb0EEELi0EEC2ERKS6_"
 "_ZN5Eigen7MapBaseINS_5BlockINS1_INS_6MatrixIdLin1ELin1ELi0ELin1ELin1EEELi1ELin1ELb0EEELi1ELin1ELb0EEELi1EEC2EPdxx"
 "_ZN5Eigen7MapBaseINS_5BlockINS1_INS_6MatrixIdLin1ELin1ELi0ELin1ELin1EEELi1ELin1ELb0EEELi1ELin1ELb0EEELi1EEC2ERKS6_"
 "_ZN5Eigen7MapBaseINS_5BlockINS1_INS_6MatrixIdLin1ELin1ELi0ELin1ELin1EEELin1ELi1ELb1EEELin1ELi1ELb0EEELi0EEC2EPdxx"
 "_ZN5Eigen7MapBaseINS_5BlockINS1_INS_6MatrixIdLin1ELin1ELi0ELin1ELin1EEELin1ELi1ELb1EEELin1ELi1ELb0EEELi0EEC2ERKS6_"
 "_ZN5Eigen7MapBaseINS_5BlockINS1_INS_6MatrixIdLin1ELin1ELi0ELin1ELin1EEELin1ELi1ELb1EEELin1ELi1ELb0EEELi1EE4dataEv"
 "_ZN5Eigen7MapBaseINS_5BlockINS1_INS_6MatrixIdLin1ELin1ELi0ELin1ELin1EEELin1ELi1ELb1EEELin1ELi1ELb0EEELi1EEC2EPdxx"
 "_ZN5Eigen7MapBaseINS_5BlockINS1_INS_6MatrixIdLin1ELin1ELi0ELin1ELin1EEELin1ELi1ELb1EEELin1ELi1ELb0EEELi1EEC2ERKS6_"
 "_ZN5Eigen7MapBaseINS_5BlockINS1_INS_6MatrixIdLin1ELin1ELi0ELin1ELin1EEELin1ELin1ELb0EEELi1ELin1ELb0EEELi0EEC2EPdxx"
 "_ZN5Eigen7MapBaseINS_5BlockINS1_INS_6MatrixIdLin1ELin1ELi0ELin1ELin1EEELin1ELin1ELb0EEELi1ELin1ELb0EEELi0EEC2ERKS6_"
 "_ZN5Eigen7MapBaseINS_5BlockINS1_INS_6MatrixIdLin1ELin1ELi0ELin1ELin1EEELin1ELin1ELb0EEELi1ELin1ELb0EEELi1EEC2EPdxx"
 "_ZN5Eigen7MapBaseINS_5BlockINS1_INS_6MatrixIdLin1ELin1ELi0ELin1ELin1EEELin1ELin1ELb0EEELi1ELin1ELb0EEELi1EEC2ERKS6_"
 "_ZN5Eigen7MapBaseINS_5BlockINS1_INS_6MatrixIdLin1ELin1ELi0ELin1ELin1EEELin1ELin1ELb0EEELin1ELi1ELb0EEELi0EEC2EPdxx"
 "_ZN5Eigen7MapBaseINS_5BlockINS1_INS_6MatrixIdLin1ELin1ELi0ELin1ELin1EEELin1ELin1ELb0EEELin1ELi1ELb0EEELi1EE4dataEv"
 "_ZN5Eigen7MapBaseINS_5BlockINS1_INS_6MatrixIdLin1ELin1ELi0ELin1ELin1EEELin1ELin1ELb0EEELin1ELi1ELb0EEELi1EEC2EPdxx"
 "_ZN5Eigen7MapBaseINS_5BlockINS1_INS_6MatrixIdLin1ELin1ELi0ELin1ELin1EEELin1ELin1ELb0EEELin1ELin1ELb0EEELi0EEC2EPdxx"
 "_ZN5Eigen7MapBaseINS_5BlockINS1_INS_6MatrixIdLin1ELin1ELi0ELin1ELin1EEELin1ELin1ELb0EEELin1ELin1ELb0EEELi1EEC2EPdxx"
 "_ZN5Eigen7MapBaseINS_5BlockINS_3MapINS_6MatrixIdLin1ELin1ELi0ELin1ELin1EEELi0ENS_6StrideILi0ELi0EEEEELin1ELi1ELb1EEELi0EEC2EPdxx"
 "_ZN5Eigen7MapBaseINS_5BlockINS_3MapINS_6MatrixIdLin1ELin1ELi0ELin1ELin1EEELi0ENS_6StrideILi0ELi0EEEEELin1ELi1ELb1EEELi1EE8coeffRefEx"
 "_ZN5Eigen7MapBaseINS_5BlockINS_3MapINS_6MatrixIdLin1ELin1ELi0ELin1ELin1EEELi0ENS_6StrideILi0ELi0EEEEELin1ELi1ELb1EEELi1EEC2EPdxx"
 "_ZN5Eigen7MapBaseINS_5BlockINS_6MatrixIdLin1ELi1ELi0ELin1ELi1EEELin1ELi1ELb0EEELi0EEC2EPdxx"
 "_ZN5Eigen7MapBaseINS_5BlockINS_6MatrixIdLin1ELi1ELi0ELin1ELi1EEELin1ELi1ELb0EEELi0EEC2ERKS5_"
 "_ZN5Eigen7MapBaseINS_5BlockINS_6MatrixIdLin1ELi1ELi0ELin1ELi1EEELin1ELi1ELb0EEELi1EE4dataEv"
 "_ZN5Eigen7MapBaseINS_5BlockINS_6MatrixIdLin1ELi1ELi0ELin1ELi1EEELin1ELi1ELb0EEELi1EEC2EPdxx"
 "_ZN5Eigen7MapBaseINS_5BlockINS_6MatrixIdLin1ELi1ELi0ELin1ELi1EEELin1ELi1ELb0EEELi1EEC2ERKS5_"
 "_ZN5Eigen7MapBaseINS_5BlockINS_6MatrixIdLin1ELi1ELi0ELin1ELi1EEELin1ELi1ELb1EEELi1EEC2EPdxx"
 "_ZN5Eigen7MapBaseINS_5BlockINS_6MatrixIdLin1ELin1ELi0ELin1ELin1EEELi1ELin1ELb0EEELi0EEC2EPdxx"
 "_ZN5Eigen7MapBaseINS_5BlockINS_6MatrixIdLin1ELin1ELi0ELin1ELin1EEELi1ELin1ELb0EEELi0EEC2ERKS5_"
 "_ZN5Eigen7MapBaseINS_5BlockINS_6MatrixIdLin1ELin1ELi0ELin1ELin1EEELi1ELin1ELb0EEELi1EE4dataEv"
 "_ZN5Eigen7MapBaseINS_5BlockINS_6MatrixIdLin1ELin1ELi0ELin1ELin1EEELi1ELin1ELb0EEELi1EEC2EPdxx"
 "_ZN5Eigen7MapBaseINS_5BlockINS_6MatrixIdLin1ELin1ELi0ELin1ELin1EEELi1ELin1ELb0EEELi1EEC2ERKS5_"
 "_ZN5Eigen7MapBaseINS_5BlockINS_6MatrixIdLin1ELin1ELi0ELin1ELin1EEELin1ELi1ELb0EEELi0EEC2EPdxx"
 "_ZN5Eigen7MapBaseINS_5BlockINS_6MatrixIdLin1ELin1ELi0ELin1ELin1EEELin1ELi1ELb0EEELi0EEC2ERKS5_"
 "_ZN5Eigen7MapBaseINS_5BlockINS_6MatrixIdLin1ELin1ELi0ELin1ELin1EEELin1ELi1ELb0EEELi1EE4dataEv"
 "_ZN5Eigen7MapBaseINS_5BlockINS_6MatrixIdLin1ELin1ELi0ELin1ELin1EEELin1ELi1ELb0EEELi1EEC2EPdxx"
 "_ZN5Eigen7MapBaseINS_5BlockINS_6MatrixIdLin1ELin1ELi0ELin1ELin1EEELin1ELi1ELb0EEELi1EEC2ERKS5_"
 "_ZN5Eigen7MapBaseINS_5BlockINS_6MatrixIdLin1ELin1ELi0ELin1ELin1EEELin1ELi1ELb1EEELi0EEC2EPdxx"
 "_ZN5Eigen7MapBaseINS_5BlockINS_6MatrixIdLin1ELin1ELi0ELin1ELin1EEELin1ELi1ELb1EEELi0EEC2ERKS5_"
 "_ZN5Eigen7MapBaseINS_5BlockINS_6MatrixIdLin1ELin1ELi0ELin1ELin1EEELin1ELi1ELb1EEELi1EE4dataEv"
 "_ZN5Eigen7MapBaseINS_5BlockINS_6MatrixIdLin1ELin1ELi0ELin1ELin1EEELin1ELi1ELb1EEELi1EE8coeffRefEx"
 "_ZN5Eigen7MapBaseINS_5BlockINS_6MatrixIdLin1ELin1ELi0ELin1ELin1EEELin1ELi1ELb1EEELi1EEC2EPdxx"
 "_ZN5Eigen7MapBaseINS_5BlockINS_6MatrixIdLin1ELin1ELi0ELin1ELin1EEELin1ELi1ELb1EEELi1EEC2ERKS5_"
 "_ZN5Eigen7MapBaseINS_5BlockINS_6MatrixIdLin1ELin1ELi0ELin1ELin1EEELin1ELin1ELb0EEELi0EEC2EPdxx"
 "_ZN5Eigen7MapBaseINS_5BlockINS_6MatrixIdLin1ELin1ELi0ELin1ELin1EEELin1ELin1ELb0EEELi1EE4dataEv"
 "_ZN5Eigen7MapBaseINS_5BlockINS_6MatrixIdLin1ELin1ELi0ELin1ELin1EEELin1ELin1ELb0EEELi1EE8coeffRefExx"
 "_ZN5Eigen7MapBaseINS_5BlockINS_6MatrixIdLin1ELin1ELi0ELin1ELin1EEELin1ELin1ELb0EEELi1EEC2EPdxx"
 "_ZN5Eigen7MapBaseINS_5BlockINS_8DiagonalINS_6MatrixIdLin1ELin1ELi0ELin1ELin1EEELi0EEELin1ELi1ELb0EEELi0EEC2EPdxx"
 "_ZN5Eigen7MapBaseINS_5BlockINS_8DiagonalINS_6MatrixIdLin1ELin1ELi0ELin1ELin1EEELi0EEELin1ELi1ELb0EEELi0EEC2ERKS7_"
 "_ZN5Eigen7MapBaseINS_5BlockINS_8DiagonalINS_6MatrixIdLin1ELin1ELi0ELin1ELin1EEELi0EEELin1ELi1ELb0EEELi1EEC2EPdxx"
 "_ZN5Eigen7MapBaseINS_5BlockINS_8DiagonalINS_6MatrixIdLin1ELin1ELi0ELin1ELin1EEELi0EEELin1ELi1ELb0EEELi1EEC2ERKS7_"
 "_ZN5Eigen7NoAliasINS_5BlockINS1_INS_6MatrixIdLin1ELin1ELi0ELin1ELin1EEELin1ELin1ELb0EEELin1ELi1ELb0EEENS_10MatrixBaseEEC1ERS5_"
 "_ZN5Eigen7NoAliasINS_5BlockINS1_INS_6MatrixIdLin1ELin1ELi0ELin1ELin1EEELin1ELin1ELb0EEELin1ELi1ELb0EEENS_10MatrixBaseEEmIINS_7ProductINS1_IS4_Lin1ELin1ELb0EEENS_9TransposeIKNS1_IS4_Li1ELin1ELb0EEEEELi0EEEEERS5_RKNS6_IT_EE"
 "_ZN5Eigen7NoAliasINS_5BlockINS_6MatrixIdLin1ELi1ELi0ELin1ELi1EEELin1ELi1ELb0EEENS_10MatrixBaseEEC1ERS4_"
 "_ZN5Eigen7NoAliasINS_5BlockINS_6MatrixIdLin1ELi1ELi0ELin1ELi1EEELin1ELi1ELb0EEENS_10MatrixBaseEEaSINS_7ProductINS_15SelfAdjointViewINS1_INS2_IdLin1ELin1ELi0ELin1ELin1EEELin1ELin1ELb0EEELj1EEENS_13CwiseBinaryOpINS_8internal17scalar_product_opIddEEKNS_14CwiseNullaryOpINSE_18scalar_constant_opIdEEKS3_EEKNS1_INS1_ISA_Lin1ELi1ELb1EEELin1ELi1ELb0EEEEELi0EEEEERS4_RKNS5_IT_EE"
 "_ZN5Eigen7NoAliasINS_5BlockINS_6MatrixIdLin1ELin1ELi0ELin1ELin1EEELin1ELi1ELb0EEENS_10MatrixBaseEEC1ERS4_"
 "_ZN5Eigen7NoAliasINS_5BlockINS_6MatrixIdLin1ELin1ELi0ELin1ELin1EEELin1ELi1ELb0EEENS_10MatrixBaseEEmIINS_7ProductINS1_IS3_Lin1ELin1ELb0EEENS1_INS2_IdLin1ELi1ELi0ELin1ELi1EEELin1ELi1ELb0EEELi0EEEEERS4_RKNS5_IT_EE"
 "_ZN5Eigen7NoAliasINS_5BlockINS_6MatrixIdLin1ELin1ELi0ELin1ELin1EEELin1ELi1ELb0EEENS_10MatrixBaseEEmIINS_7ProductINS1_IS3_Lin1ELin1ELb0EEENS_9TransposeIKNS1_IS3_Li1ELin1ELb0EEEEELi0EEEEERS4_RKNS5_IT_EE"
 "_ZN5Eigen7NoAliasINS_6MatrixIdLin1ELi1ELi0ELin1ELi1EEENS_10MatrixBaseEEC1ERS2_"
 "_ZN5Eigen7NoAliasINS_6MatrixIdLin1ELi1ELi0ELin1ELi1EEENS_10MatrixBaseEEaSINS_12CwiseUnaryOpINS_8internal18scalar_opposite_opIdEEKNS_7ProductINS1_IdLin1ELin1ELi0ELin1ELin1EEES2_Li0EEEEEEERS2_RKNS3_IT_EE"
 "_ZN5Eigen7NoAliasINS_6MatrixIdLin1ELi1ELi0ELin1ELi1EEENS_10MatrixBaseEEaSINS_12CwiseUnaryOpINS_8internal18scalar_opposite_opIdEEKS2_EEEERS2_RKNS3_IT_EE"
 "_ZN5Eigen7NoAliasINS_6MatrixIdLin1ELi1ELi0ELin1ELi1EEENS_10MatrixBaseEEaSINS_13CwiseBinaryOpINS_8internal13scalar_sum_opIddEEKS2_KNS6_INS7_17scalar_product_opIddEEKNS_14CwiseNullaryOpINS7_18scalar_constant_opIdEESA_EESA_EEEEEERS2_RKNS3_IT_EE"
 "_ZN5Eigen7NoAliasINS_6MatrixIdLin1ELi1ELi0ELin1ELi1EEENS_10MatrixBaseEEaSINS_13CwiseBinaryOpINS_8internal20scalar_difference_opIddEEKS2_SA_EEEERS2_RKNS3_IT_EE"
 "_ZN5Eigen7NoAliasINS_6MatrixIdLin1ELin1ELi0ELin1ELin1EEENS_10MatrixBaseEEC1ERS2_"
 "_ZN5Eigen7NoAliasINS_6MatrixIdLin1ELin1ELi0ELin1ELin1EEENS_10MatrixBaseEEaSINS_13CwiseBinaryOpINS_8internal20scalar_difference_opIddEEKNS_14CwiseNullaryOpINS7_18scalar_identity_opIdEES2_EEKNS_7ProductINS6_INS7_17scalar_product_opIddEEKNSA_INS7_18scalar_constant_opIdEEKNS1_IdLin1ELi1ELi0ELin1ELi1EEEEESL_EENS_9TransposeISL_EELi0EEEEEEERS2_RKNS3_IT_EE"
 "_ZN5Eigen7NoAliasINS_6MatrixIdLin1ELin1ELi0ELin1ELin1EEENS_10MatrixBaseEEaSINS_7ProductINS_13CwiseBinaryOpINS_8internal17scalar_product_opIddEEKNS_14CwiseNullaryOpINS8_18scalar_constant_opIdEEKS2_EESE_EENS_9TransposeIS2_EELi0EEEEERS2_RKNS3_IT_EE"
 "_ZN5Eigen7NoAliasINS_6MatrixIdLin1ELin1ELi0ELin1ELin1EEENS_10MatrixBaseEEpLINS_7ProductINS_13CwiseBinaryOpINS_8internal17scalar_product_opIddEEKNS_14CwiseNullaryOpINS8_18scalar_constant_opIdEEKNS1_IdLin1ELi1ELi0ELin1ELi1EEEEESF_EENS_9TransposeISF_EELi0EEEEERS2_RKNS3_IT_EE"
 "_ZN5Eigen7ProductINS0_INS_6MatrixIdLin1ELin1ELi0ELin1ELin1EEES2_Li0EEENS_9TransposeIS2_EELi0EEC1ERKS3_RKS5_"
 "_ZN5Eigen7ProductINS_13CwiseBinaryOpINS_8internal17scalar_product_opIddEEKNS_14CwiseNullaryOpINS2_18scalar_constant_opIdEEKNS_6MatrixIdLin1ELi1ELi0ELin1ELi1EEEEESA_EENS_9TransposeISA_EELi0EEC1ERKSD_RKSF_"
 "_ZN5Eigen7ProductINS_13CwiseBinaryOpINS_8internal17scalar_product_opIddEEKNS_14CwiseNullaryOpINS2_18scalar_constant_opIdEEKNS_6MatrixIdLin1ELi1ELi0ELin1ELi1EEEEESA_EENS_9TransposeISA_EELi0EEC1ERKSG_"
 "_ZN5Eigen7ProductINS_13CwiseBinaryOpINS_8internal17scalar_product_opIddEEKNS_14CwiseNullaryOpINS2_18scalar_constant_opIdEEKNS_6MatrixIdLin1ELin1ELi0ELin1ELin1EEEEESA_EENS_9TransposeIS9_EELi0EEC1ERKSD_RKSF_"
 "_ZN5Eigen7ProductINS_13CwiseBinaryOpINS_8internal17scalar_product_opIddEEKNS_14CwiseNullaryOpINS2_18scalar_constant_opIdEEKNS_6MatrixIdLin1ELin1ELi0ELin1ELin1EEEEESA_EENS_9TransposeIS9_EELi1EEC1ERKSD_RKSF_"
 "_ZN5Eigen7ProductINS_13CwiseBinaryOpINS_8internal20scalar_difference_opIddEEKNS_6MatrixIdLin1ELi1ELi0ELin1ELi1EEES7_EENS_9TransposeIS6_EELi0EEC1ERKS8_RKSA_"
 "_ZN5Eigen7ProductINS_15DiagonalWrapperIKNS_5BlockINS_8DiagonalINS_6MatrixIdLin1ELin1ELi0ELin1ELin1EEELi0EEELin1ELi1ELb0EEEEENS_9TransposeIKNS2_IS5_Li1ELin1ELb0EEEEELi1EEC1ERKS9_RKSD_"
 "_ZN5Eigen7ProductINS_15SelfAdjointViewINS_5BlockINS_6MatrixIdLin1ELin1ELi0ELin1ELin1EEELin1ELin1ELb0EEELj1EEENS_13CwiseBinaryOpINS_8internal17scalar_product_opIddEEKNS_14CwiseNullaryOpINS8_18scalar_constant_opIdEEKNS3_IdLin1ELi1ELi0ELin1ELi1EEEEEKNS2_INS2_IS4_Lin1ELi1ELb1EEELin1ELi1ELb0EEEEELi0EEC1ERKS6_RKSL_"
 "_ZN5Eigen7ProductINS_3MapINS_6MatrixIdLi1ELin1ELi1ELi1ELin1EEELi0ENS_6StrideILi0ELi0EEEEENS1_INS2_IdLin1ELi1ELi0ELin1ELi1EEELi0ES5_EELi0EEC1ERKS6_RKS8_"
 "_ZN5Eigen7ProductINS_3MapINS_6MatrixIdLin1ELin1ELi0ELin1ELin1EEELi0ENS_6StrideILi0ELi0EEEEES6_Li0EEC1ERKS6_S9_"
 "_ZN5Eigen7ProductINS_3MapINS_6MatrixIdLin1ELin1ELi0ELin1ELin1EEELi0ENS_6StrideILi0ELi0EEEEES6_Li0EEC1ERKS7_"
 "_ZN5Eigen7ProductINS_5BlockINS1_INS_6MatrixIdLin1ELin1ELi0ELin1ELin1EEELin1ELin1ELb0EEELin1ELin1ELb0EEENS_9TransposeIKNS1_IS4_Li1ELin1ELb0EEEEELi0EEC1ERKS5_RKS9_"
 "_ZN5Eigen7ProductINS_5BlockINS_6MatrixIdLin1ELin1ELi0ELin1ELin1EEELi1ELin1ELb0EEENS1_INS2_IdLin1ELi1ELi0ELin1ELi1EEELin1ELi1ELb0EEELi0EEC1ERKS4_RKS6_"
 "_ZN5Eigen7ProductINS_5BlockINS_6MatrixIdLin1ELin1ELi0ELin1ELin1EEELin1ELin1ELb0EEENS1_INS2_IdLin1ELi1ELi0ELin1ELi1EEELin1ELi1ELb0EEELi0EEC1ERKS4_RKS6_"
 "_ZN5Eigen7ProductINS_5BlockINS_6MatrixIdLin1ELin1ELi0ELin1ELin1EEELin1ELin1ELb0EEENS_9TransposeIKNS1_IS3_Li1ELin1ELb0EEEEELi0EEC1ERKS4_RKS8_"
 "_ZN5Eigen7ProductINS_6MatrixIdLin1ELin1ELi0ELin1ELin1EEENS1_IdLin1ELi1ELi0ELin1ELi1EEELi0EEC1ERKS2_RKS3_"
 "_ZN5Eigen7ProductINS_6MatrixIdLin1ELin1ELi0ELin1ELin1EEES2_Li0EEC1ERKS2_S5_"
 "_ZN5Eigen7ProductINS_9TransposeINS_3MapINS_6MatrixIdLin1ELin1ELi0ELin1ELin1EEELi0ENS_6StrideILi0ELi0EEEEEEES4_Li0EEC1ERKS8_RKS4_"
 "_ZN5Eigen7ProductINS_9TransposeINS_6MatrixIdLin1ELin1ELi0ELin1ELin1EEEEENS2_IdLin1ELi1ELi0ELin1ELi1EEELi0EEC1ERKS4_RKS5_"
 "_ZN5Eigen8DiagonalIKNS_6MatrixIdLin1ELin1ELi0ELin1ELin1EEELi0EEC1ERKS4_"
 "_ZN5Eigen8DiagonalIKNS_6MatrixIdLin1ELin1ELi0ELin1ELin1EEELi0EEC1ERS3_x"
 "_ZN5Eigen8DiagonalINS_6MatrixIdLin1ELin1ELi0ELin1ELin1EEELi0EE4dataEv"
 "_ZN5Eigen8DiagonalINS_6MatrixIdLin1ELin1ELi0ELin1ELin1EEELi0EEC1ERKS3_"
 "_ZN5Eigen8DiagonalINS_6MatrixIdLin1ELin1ELi0ELin1ELin1EEELi0EEC1ERS2_x"
 "_ZN5Eigen8DiagonalINS_6MatrixIdLin1ELin1ELi0ELin1ELin1EEELin1EEC1ERS2_x"
 "_ZN5Eigen8internal10AssignmentINS_12ArrayWrapperINS_6MatrixIdLin1ELi1ELi0ELin1ELi1EEEEENS2_IKS4_EENS0_13div_assign_opIddEENS0_11Dense2DenseEvE3runERS5_RKS7_RKS9_"
 "_ZN5Eigen8internal10AssignmentINS_12ArrayWrapperINS_6MatrixIdLin1ELi1ELi0ELin1ELi1EEEEENS_13CwiseBinaryOpINS0_17scalar_product_opIddEEKS5_KNS_12CwiseUnaryOpINS0_13scalar_exp_opIdEEKNS2_IKS4_EEEEEENS0_9assign_opIddEENS0_11Dense2DenseEvE3runERS5_RKSI_RKSK_"
 "_ZN5Eigen8internal10AssignmentINS_12ArrayWrapperINS_6MatrixIdLin1ELi1ELi0ELin1ELi1EEEEENS_13CwiseBinaryOpINS0_17scalar_product_opIddEEKS5_S9_EENS0_13add_assign_opIddEENS0_11Dense2DenseEvE3runERS5_RKSA_RKSC_"
 "_ZN5Eigen8internal10AssignmentINS_12ArrayWrapperINS_6MatrixIdLin1ELi1ELi0ELin1ELi1EEEEENS_14CwiseNullaryOpINS0_18scalar_constant_opIdEENS_5ArrayIdLin1ELi1ELi0ELin1ELi1EEEEENS0_13add_assign_opIddEENS0_11Dense2DenseEvE3runERS5_RKSB_RKSD_"
 "_ZN5Eigen8internal10AssignmentINS_12ArrayWrapperINS_6MatrixIdLin1ELin1ELi0ELin1ELin1EEEEENS2_IKS4_EENS0_13div_assign_opIddEENS0_11Dense2DenseEvE3runERS5_RKS7_RKS9_"
 "_ZN5Eigen8internal10AssignmentINS_12ArrayWrapperINS_6MatrixIdLin1ELin1ELi0ELin1ELin1EEEEENS_14CwiseNullaryOpINS0_18scalar_constant_opIdEENS_5ArrayIdLin1ELin1ELi0ELin1ELin1EEEEENS0_13add_assign_opIddEENS0_11Dense2DenseEvE3runERS5_RKSB_RKSD_"
 "_ZN5Eigen8internal10AssignmentINS_12ArrayWrapperINS_8DiagonalINS_6MatrixIdLin1ELin1ELi0ELin1ELin1EEELi0EEEEENS_12CwiseUnaryOpINS0_17scalar_inverse_opIdEEKNS2_IKNS3_IKS5_Li0EEEEEEENS0_13add_assign_opIddEENS0_11Dense2DenseEvE3runERS7_RKSG_RKSI_"
 "_ZN5Eigen8internal10AssignmentINS_14CwiseUnaryViewINS_10MatrixBaseINS_6MatrixIN4stan4math3varELin1ELi1ELi0ELin1ELi1EEEE5vi_OpES8_EENS_3MapINS4_IPNS6_4variELin1ELin1ELi0ELin1ELin1EEELi0ENS_6StrideILi0ELi0EEEEENS0_9assign_opISE_SE_EENS0_11Dense2DenseEvE3runERSB_RKSI_RKSK_"
 "_ZN5Eigen8internal10AssignmentINS_14TriangularViewINS_6MatrixIdLin1ELin1ELi0ELin1ELin1EEELj1EEENS_13CwiseBinaryOpINS0_18scalar_quotient_opIddEEKS4_KNS_14CwiseNullaryOpINS0_18scalar_constant_opIdEES9_EEEENS0_9assign_opIddEENS0_16Dense2TriangularEvE3runERS5_RKSF_RKSH_"
 "_ZN5Eigen8internal10AssignmentINS_3MapINS_6MatrixIPN4stan4math4variELin1ELi1ELi0ELin1ELi1EEELi0ENS_6StrideILi0ELi0EEEEENS_12CwiseUnaryOpINS_10MatrixBaseINS3_INS5_3varELin1ELi1ELi0ELin1ELi1EEEE5vi_OpEKSF_EENS0_9assign_opIS7_S7_EENS0_11Dense2DenseEvE3runERSB_RKSJ_RKSL_"
 "_ZN5Eigen8internal10AssignmentINS_3MapINS_6MatrixIPN4stan4math4variELin1ELin1ELi0ELin1ELin1EEELi0ENS_6StrideILi0ELi0EEEEENS_12CwiseUnaryOpINS_10MatrixBaseINS3_INS5_3varELin1ELi1ELi0ELin1ELi1EEEE5vi_OpEKSF_EENS0_9assign_opIS7_S7_EENS0_11Dense2DenseEvE3runERSB_RKSJ_RKSL_"
 "_ZN5Eigen8internal10AssignmentINS_3MapINS_6MatrixIPN4stan4math4variELin1ELin1ELi0ELin1ELin1EEELi0ENS_6StrideILi0ELi0EEEEENS_12CwiseUnaryOpIZNS5_17multiply_mat_variIdLin1ELin1ENS5_3varELi1EEC4ERKNS3_IdLin1ELin1ELi0ELin1ELin1EEERKNS3_ISE_Lin1ELi1ELi0ELin1ELi1EEEEUldE_KNS_7ProductINS2_ISG_Li0ESA_EESO_Li0EEEEENS0_9assign_opIS7_S7_EENS0_11Dense2DenseEvE3runERSB_RKSR_RKST_"
 "_ZN5Eigen8internal10AssignmentINS_3MapINS_6MatrixIdLi1ELin1ELi1ELi1ELin1EEELi0ENS_6StrideILi0ELi0EEEEES4_NS0_9assign_opIddEENS0_11Dense2DenseEvE3runERS7_RKS4_RKS9_"
 "_ZN5Eigen8internal10AssignmentINS_3MapINS_6MatrixIdLin1ELi1ELi0ELin1ELi1EEELi0ENS_6StrideILi0ELi0EEEEENS_12CwiseUnaryOpINS_10MatrixBaseINS3_IN4stan4math3varELin1ELi1ELi0ELin1ELi1EEEE6val_OpEKSD_EENS0_9assign_opIddEENS0_11Dense2DenseEvE3runERS7_RKSH_RKSJ_"
 "_ZN5Eigen8internal10AssignmentINS_3MapINS_6MatrixIdLin1ELi1ELi0ELin1ELi1EEELi0ENS_6StrideILi0ELi0EEEEENS_13CwiseBinaryOpINS0_13scalar_sum_opIddEEKNS8_INS0_17scalar_product_opIddEEKNS_14CwiseNullaryOpINS0_18scalar_constant_opIdEEKS4_EEKNS_5BlockIKNSJ_IS4_Lin1ELi1ELb0EEELin1ELi1ELb0EEEEEKNS8_ISC_SI_KNSJ_IKNSJ_INSJ_INS3_IdLin1ELin1ELi0ELin1ELin1EEELin1ELi1ELb1EEELin1ELi1ELb0EEELin1ELi1ELb0EEEEEEENS0_13add_assign_opIddEENS0_11Dense2DenseEvE3runERS7_RKSY_RKS10_"
 "_ZN5Eigen8internal10AssignmentINS_3MapINS_6MatrixIdLin1ELi1ELi0ELin1ELi1EEELi0ENS_6StrideILi0ELi0EEEEENS_14CwiseNullaryOpINS0_18scalar_constant_opIdEES4_EENS0_9assign_opIddEENS0_11Dense2DenseEvE3runERS7_RKSB_RKSD_"
 "_ZN5Eigen8internal10AssignmentINS_3MapINS_6MatrixIdLin1ELin1ELi0ELin1ELin1EEELi0ENS_6StrideILi0ELi0EEEEENS_12CwiseUnaryOpINS_10MatrixBaseINS3_IN4stan4math3varELin1ELi1ELi0ELin1ELi1EEEE6val_OpEKSD_EENS0_9assign_opIddEENS0_11Dense2DenseEvE3runERS7_RKSH_RKSJ_"
 "_ZN5Eigen8internal10AssignmentINS_3MapINS_6MatrixIdLin1ELin1ELi0ELin1ELin1EEELi0ENS_6StrideILi0ELi0EEEEES4_NS0_9assign_opIddEENS0_11Dense2DenseEvE3runERS7_RKS4_RKS9_"
 "_ZN5Eigen8internal10AssignmentINS_5BlockINS2_INS2_INS_6MatrixIdLin1ELin1ELi0ELin1ELin1EEELin1ELi1ELb1EEELin1ELi1ELb0EEELin1ELi1ELb0EEENS_13CwiseBinaryOpINS0_18scalar_quotient_opIddEEKNS2_IKS6_Lin1ELi1ELb0EEEKNS_14CwiseNullaryOpINS0_18scalar_constant_opIdEEKNS3_IdLin1ELi1ELi0ELin1ELi1EEEEEEENS0_9assign_opIddEENS0_11Dense2DenseEvE3runERS7_RKSL_RKSN_"
 "_ZN5Eigen8internal10AssignmentINS_5BlockINS2_INS2_INS_6MatrixIdLin1ELin1ELi0ELin1ELin1EEELin1ELi1ELb1EEELin1ELi1ELb0EEELin1ELi1ELb0EEENS_14CwiseNullaryOpINS0_18scalar_constant_opIdEENS3_IdLin1ELi1ELi0ELin1ELi1EEEEENS0_9assign_opIddEENS0_11Dense2DenseEvE3runERS7_RKSC_RKSE_"
 "_ZN5Eigen8internal10AssignmentINS_5BlockINS2_INS_6MatrixIdLin1ELin1ELi0ELin1ELin1EEELi1ELin1ELb0EEELi1ELin1ELb0EEES6_NS0_14swap_assign_opIdEENS0_11Dense2DenseEvE3runERS6_RKS6_RKS8_"
 "_ZN5Eigen8internal10AssignmentINS_5BlockINS2_INS_6MatrixIdLin1ELin1ELi0ELin1ELin1EEELin1ELi1ELb1EEELin1ELi1ELb0EEES6_NS0_14swap_assign_opIdEENS0_11Dense2DenseEvE3runERS6_RKS6_RKS8_"
 "_ZN5Eigen8internal10AssignmentINS_5BlockINS2_INS_6MatrixIdLin1ELin1ELi0ELin1ELin1EEELin1ELin1ELb0EEELin1ELi1ELb0EEENS_14CwiseNullaryOpINS0_18scalar_constant_opIdEENS3_IdLin1ELi1ELi0ELin1ELi1EEEEENS0_13div_assign_opIddEENS0_11Dense2DenseEvE3runERS6_RKSB_RKSD_"
 "_ZN5Eigen8internal10AssignmentINS_5BlockINS2_INS_6MatrixIdLin1ELin1ELi0ELin1ELin1EEELin1ELin1ELb0EEELin1ELi1ELb0EEENS_7ProductINS2_IS5_Lin1ELin1ELb0EEENS_9TransposeIKNS2_IS5_Li1ELin1ELb0EEEEELi0EEENS0_13sub_assign_opIddEENS0_11Dense2DenseEvE3runERS6_RKSD_RKSF_"
 "_ZN5Eigen8internal10AssignmentINS_5BlockINS_6MatrixIdLin1ELi1ELi0ELin1ELi1EEELin1ELi1ELb0EEENS_13CwiseBinaryOpINS0_17scalar_product_opIddEEKNS_14CwiseNullaryOpINS0_18scalar_constant_opIdEEKS4_EEKNS2_INS2_INS3_IdLin1ELin1ELi0ELin1ELin1EEELin1ELi1ELb1EEELin1ELi1ELb0EEEEENS0_13add_assign_opIddEENS0_11Dense2DenseEvE3runERS5_RKSJ_RKSL_"
 "_ZN5Eigen8internal10AssignmentINS_5BlockINS_6MatrixIdLin1ELi1ELi0ELin1ELi1EEELin1ELi1ELb0EEENS_7ProductINS_15DiagonalWrapperIKNS2_INS_8DiagonalINS3_IdLin1ELin1ELi0ELin1ELin1EEELi0EEELin1ELi1ELb0EEEEENS_9TransposeIKNS2_IS9_Li1ELin1ELb0EEEEELi1EEENS0_9assign_opIddEENS0_11Dense2DenseEvE3runERS5_RKSI_RKSK_"
 "_ZN5Eigen8internal10AssignmentINS_5BlockINS_6MatrixIdLin1ELi1ELi0ELin1ELi1EEELin1ELi1ELb0EEENS_7ProductINS_15SelfAdjointViewINS2_INS3_IdLin1ELin1ELi0ELin1ELin1EEELin1ELin1ELb0EEELj1EEENS_13CwiseBinaryOpINS0_17scalar_product_opIddEEKNS_14CwiseNullaryOpINS0_18scalar_constant_opIdEEKS4_EEKNS2_INS2_IS8_Lin1ELi1ELb1EEELin1ELi1ELb0EEEEELi0EEENS0_9assign_opIddEENS0_11Dense2DenseEvE3runERS5_RKSO_RKSQ_"
 "_ZN5Eigen8internal10AssignmentINS_5BlockINS_6MatrixIdLin1ELin1ELi0ELin1ELin1EEELin1ELi1ELb0EEENS_14CwiseNullaryOpINS0_18scalar_constant_opIdEENS3_IdLin1ELi1ELi0ELin1ELi1EEEEENS0_13div_assign_opIddEENS0_11Dense2DenseEvE3runERS5_RKSA_RKSC_"
 "_ZN5Eigen8internal10AssignmentINS_5BlockINS_6MatrixIdLin1ELin1ELi0ELin1ELin1EEELin1ELi1ELb0EEENS_7ProductINS2_IS4_Lin1ELin1ELb0EEENS2_INS3_IdLin1ELi1ELi0ELin1ELi1EEELin1ELi1ELb0EEELi0EEENS0_13sub_assign_opIddEENS0_11Dense2DenseEvE3runERS5_RKSA_RKSC_"
 "_ZN5Eigen8internal10AssignmentINS_5BlockINS_6MatrixIdLin1ELin1ELi0ELin1ELin1EEELin1ELi1ELb0EEENS_7ProductINS2_IS4_Lin1ELin1ELb0EEENS_9TransposeIKNS2_IS4_Li1ELin1ELb0EEEEELi0EEENS0_13sub_assign_opIddEENS0_11Dense2DenseEvE3runERS5_RKSC_RKSE_"
 "_ZN5Eigen8internal10AssignmentINS_5BlockINS_6MatrixIdLin1ELin1ELi0ELin1ELin1EEELin1ELi1ELb1EEES5_NS0_14swap_assign_opIdEENS0_11Dense2DenseEvE3runERS5_RKS5_RKS7_"
 "_ZN5Eigen8internal10AssignmentINS_6MatrixIN4stan4math3varELin1ELi1ELi0ELin1ELi1EEENS2_IdLin1ELi1ELi0ELin1ELi1EEENS0_9assign_opIS5_dEENS0_11Dense2DenseEvE3runERS6_RKS7_RKS9_"
 "_ZN5Eigen8internal10AssignmentINS_6MatrixIN4stan4math3varELin1ELi1ELi0ELin1ELi1EEENS_12CwiseUnaryOpIZNS4_18apply_scalar_unaryINS4_7exp_funES6_E5applyERKS6_EUlS5_E_SB_EENS0_9assign_opIS5_S5_EENS0_11Dense2DenseEvE3runERS6_RKSE_RKSG_"
 "_ZN5Eigen8internal10AssignmentINS_6MatrixIN4stan4math3varELin1ELi1ELi0ELin1ELi1EEENS_12CwiseUnaryOpIZNS4_18apply_scalar_unaryINS4_7log_funES6_E5applyERKS6_EUlS5_E_SB_EENS0_9assign_opIS5_S5_EENS0_11Dense2DenseEvE3runERS6_RKSE_RKSG_"
 "_ZN5Eigen8internal10AssignmentINS_6MatrixIN4stan4math3varELin1ELi1ELi0ELin1ELi1EEENS_13CwiseBinaryOpINS0_13scalar_sum_opIdS5_EEKNS_14CwiseNullaryOpINS0_18scalar_constant_opIdEEKNS_5ArrayIdLin1ELi1ELi0ELin1ELi1EEEEEKNS_12ArrayWrapperIKS6_EEEENS0_9assign_opIS5_S5_EENS0_11Dense2DenseEvE3runERS6_RKSM_RKSO_"
 "_ZN5Eigen8internal10AssignmentINS_6MatrixIN4stan4math3varELin1ELi1ELi0ELin1ELi1EEENS_13CwiseBinaryOpINS0_17scalar_product_opIS5_S5_EEKS6_SA_EENS0_9assign_opIS5_S5_EENS0_11Dense2DenseEvE3runERS6_RKSB_RKSD_"
 "_ZN5Eigen8internal10AssignmentINS_6MatrixIN4stan4math3varELin1ELi1ELi0ELin1ELi1EEENS_13CwiseBinaryOpINS0_18scalar_quotient_opIdS5_EEKNS_14CwiseNullaryOpINS0_18scalar_constant_opIdEEKNS_5ArrayIdLin1ELi1ELi0ELin1ELi1EEEEEKNS_12ArrayWrapperIKS6_EEEENS0_9assign_opIS5_S5_EENS0_11Dense2DenseEvE3runERS6_RKSM_RKSO_"
 "_ZN5Eigen8internal10AssignmentINS_6MatrixIN4stan4math3varELin1ELi1ELi0ELin1ELi1EEENS_13CwiseBinaryOpINS0_20scalar_difference_opIS5_S5_EEKNS_14CwiseNullaryOpINS0_18scalar_constant_opIS5_EEKNS_5ArrayIS5_Lin1ELi1ELi0ELin1ELi1EEEEEKNS_12ArrayWrapperIKS6_EEEENS0_9assign_opIS5_S5_EENS0_11Dense2DenseEvE3runERS6_RKSM_RKSO_"
 "_ZN5Eigen8internal10AssignmentINS_6MatrixIN4stan4math3varELin1ELi1ELi0ELin1ELi1EEENS_13CwiseBinaryOpINS0_20scalar_difference_opIS5_dEEKS6_KNS2_IdLin1ELi1ELi0ELin1ELi1EEEEENS0_9assign_opIS5_S5_EENS0_11Dense2DenseEvE3runERS6_RKSD_RKSF_"
 "_ZN5Eigen8internal10AssignmentINS_6MatrixIN4stan4math3varELin1ELi1ELi0ELin1ELi1EEENS_14CwiseNullaryOpINS0_18scalar_constant_opIS5_EES6_EENS0_9assign_opIS5_S5_EENS0_11Dense2DenseEvE3runERS6_RKSA_RKSC_"
 "_ZN5Eigen8internal10AssignmentINS_6MatrixIN4stan4math3varELin1ELi1ELi0ELin1ELi1EEENS_3MapIS6_Li0ENS_6StrideILi0ELi0EEEEENS0_9assign_opIS5_S5_EENS0_11Dense2DenseEvE3runERS6_RKSA_RKSC_"
 "_ZN5Eigen8internal10AssignmentINS_6MatrixIN4stan4math3varELin1ELi1ELi0ELin1ELi1EEES6_NS0_9assign_opIS5_S5_EENS0_11Dense2DenseEvE3runERS6_RKS6_RKS8_"
 "_ZN5Eigen8internal10AssignmentINS_6MatrixIdLi1ELin1ELi1ELi1ELin1EEENS_13CwiseBinaryOpINS0_17scalar_product_opIddEEKNS_14CwiseNullaryOpINS0_18scalar_constant_opIdEEKS3_EESA_EENS0_9assign_opIddEENS0_11Dense2DenseEvE3runERS3_RKSD_RKSF_"
 "_ZN5Eigen8internal10AssignmentINS_6MatrixIdLi4ELi4ELi0ELi4ELi4EEENS_14CwiseNullaryOpINS0_18scalar_constant_opIdEES3_EENS0_9assign_opIddEENS0_11Dense2DenseEvE3runERS3_RKS7_RKS9_"
 "_ZN5Eigen8internal10AssignmentINS_6MatrixIdLin1ELi1ELi0ELin1ELi1EEENS_12CwiseUnaryOpINS0_14scalar_sqrt_opIdEEKNS_12ArrayWrapperIKS3_EEEENS0_9assign_opIddEENS0_11Dense2DenseEvE3runERS3_RKSB_RKSD_"
 "_ZN5Eigen8internal10AssignmentINS_6MatrixIdLin1ELi1ELi0ELin1ELi1EEENS_12CwiseUnaryOpINS0_16scalar_square_opIdEEKNS_12ArrayWrapperIKS3_EEEENS0_9assign_opIddEENS0_11Dense2DenseEvE3runERS3_RKSB_RKSD_"
 "_ZN5Eigen8internal10AssignmentINS_6MatrixIdLin1ELi1ELi0ELin1ELi1EEENS_12CwiseUnaryOpINS0_18scalar_opposite_opIdEEKNS_7ProductINS2_IdLin1ELin1ELi0ELin1ELin1EEES3_Li0EEEEENS0_9assign_opIddEENS0_11Dense2DenseEvE3runERS3_RKSB_RKSD_"
 "_ZN5Eigen8internal10AssignmentINS_6MatrixIdLin1ELi1ELi0ELin1ELi1EEENS_12CwiseUnaryOpINS0_18scalar_opposite_opIdEEKS3_EENS0_9assign_opIddEENS0_11Dense2DenseEvE3runERS3_RKS8_RKSA_"
 "_ZN5Eigen8internal10AssignmentINS_6MatrixIdLin1ELi1ELi0ELin1ELi1EEENS_12CwiseUnaryOpIZN4stan4math18apply_scalar_unaryINS6_7exp_funES3_E5applyERKS3_EUldE_SA_EENS0_9assign_opIddEENS0_11Dense2DenseEvE3runERS3_RKSD_RKSF_"
 "_ZN5Eigen8internal10AssignmentINS_6MatrixIdLin1ELi1ELi0ELin1ELi1EEENS_12CwiseUnaryOpIZN4stan4math18apply_scalar_unaryINS6_7log_funES3_E5applyERKS3_EUldE_SA_EENS0_9assign_opIddEENS0_11Dense2DenseEvE3runERS3_RKSD_RKSF_"
 "_ZN5Eigen8internal10AssignmentINS_6MatrixIdLin1ELi1ELi0ELin1ELi1EEENS_13CwiseBinaryOpINS0_13scalar_sum_opIddEEKNS4_INS0_17scalar_product_opIddEEKNS_12ArrayWrapperIKS3_EEKNS_12CwiseUnaryOpINS0_13scalar_exp_opIdEESC_EEEESC_EENS0_9assign_opIddEENS0_11Dense2DenseEvE3runERS3_RKSK_RKSM_"
 "_ZN5Eigen8internal10AssignmentINS_6MatrixIdLin1ELi1ELi0ELin1ELi1EEENS_13CwiseBinaryOpINS0_13scalar_sum_opIddEEKNS4_INS0_17scalar_product_opIddEEKNS_14CwiseNullaryOpINS0_18scalar_constant_opIdEEKS3_EESC_EEKNS4_IS8_SE_KNS9_ISB_S3_EEEEEENS0_9assign_opIddEENS0_11Dense2DenseEvE3runERS3_RKSL_RKSN_"
 "_ZN5Eigen8internal10AssignmentINS_6MatrixIdLin1ELi1ELi0ELin1ELi1EEENS_13CwiseBinaryOpINS0_13scalar_sum_opIddEEKNS_14CwiseNullaryOpINS0_18scalar_constant_opIdEEKNS_5ArrayIdLin1ELi1ELi0ELin1ELi1EEEEEKNS_12ArrayWrapperIKS3_EEEENS0_9assign_opIddEENS0_11Dense2DenseEvE3runERS3_RKSJ_RKSL_"
 "_ZN5Eigen8internal10AssignmentINS_6MatrixIdLin1ELi1ELi0ELin1ELi1EEENS_13CwiseBinaryOpINS0_13scalar_sum_opIddEEKNS_7ProductINS2_IdLin1ELin1ELi0ELin1ELin1EEES3_Li0EEEKS3_EENS0_9assign_opIddEENS0_11Dense2DenseEvE3runERS3_RKSC_RKSE_"
 "_ZN5Eigen8internal10AssignmentINS_6MatrixIdLin1ELi1ELi0ELin1ELi1EEENS_13CwiseBinaryOpINS0_13scalar_sum_opIddEEKS3_KNS4_INS0_17scalar_product_opIddEEKNS_14CwiseNullaryOpINS0_18scalar_constant_opIdEES7_EES7_EEEENS0_9assign_opIddEENS0_11Dense2DenseEvE3runERS3_RKSH_RKSJ_"
 "_ZN5Eigen8internal10AssignmentINS_6MatrixIdLin1ELi1ELi0ELin1ELi1EEENS_13CwiseBinaryOpINS0_17scalar_product_opIddEEKNS_14CwiseNullaryOpINS0_18scalar_constant_opIdEEKS3_EESA_EENS0_13add_assign_opIddEENS0_11Dense2DenseEvE3runERS3_RKSD_RKSF_"
 "_ZN5Eigen8internal10AssignmentINS_6MatrixIdLin1ELi1ELi0ELin1ELi1EEENS_13CwiseBinaryOpINS0_17scalar_product_opIddEEKNS_14CwiseNullaryOpINS0_18scalar_constant_opIdEEKS3_EESA_EENS0_13sub_assign_opIddEENS0_11Dense2DenseEvE3runERS3_RKSD_RKSF_"
 "_ZN5Eigen8internal10AssignmentINS_6MatrixIdLin1ELi1ELi0ELin1ELi1EEENS_13CwiseBinaryOpINS0_17scalar_product_opIddEEKS3_KNS4_INS0_20scalar_difference_opIddEES7_S7_EEEENS0_13add_assign_opIddEENS0_11Dense2DenseEvE3runERS3_RKSC_RKSE_"
 "_ZN5Eigen8internal10AssignmentINS_6MatrixIdLin1ELi1ELi0ELin1ELi1EEENS_13CwiseBinaryOpINS0_17scalar_product_opIddEEKS3_S7_EENS0_9assign_opIddEENS0_11Dense2DenseEvE3runERS3_RKS8_RKSA_"
 "_ZN5Eigen8internal10AssignmentINS_6MatrixIdLin1ELi1ELi0ELin1ELi1EEENS_13CwiseBinaryOpINS0_18scalar_quotient_opIddEEKNS_14CwiseNullaryOpINS0_18scalar_constant_opIdEEKNS_5ArrayIdLin1ELi1ELi0ELin1ELi1EEEEEKNS_12ArrayWrapperIKS3_EEEENS0_9assign_opIddEENS0_11Dense2DenseEvE3runERS3_RKSJ_RKSL_"
 "_ZN5Eigen8internal10AssignmentINS_6MatrixIdLin1ELi1ELi0ELin1ELi1EEENS_13CwiseBinaryOpINS0_18scalar_quotient_opIddEEKS3_KNS_14CwiseNullaryOpINS0_18scalar_constant_opIdEES7_EEEENS0_13add_assign_opIddEENS0_11Dense2DenseEvE3runERS3_RKSD_RKSF_"
 "_ZN5Eigen8internal10AssignmentINS_6MatrixIdLin1ELi1ELi0ELin1ELi1EEENS_13CwiseBinaryOpINS0_18scalar_quotient_opIddEEKS3_KNS_14CwiseNullaryOpINS0_18scalar_constant_opIdEES7_EEEENS0_9assign_opIddEENS0_11Dense2DenseEvE3runERS3_RKSD_RKSF_"
 "_ZN5Eigen8internal10AssignmentINS_6MatrixIdLin1ELi1ELi0ELin1ELi1EEENS_13CwiseBinaryOpINS0_20scalar_difference_opIddEEKNS_14CwiseNullaryOpINS0_18scalar_constant_opIdEEKNS_5ArrayIdLin1ELi1ELi0ELin1ELi1EEEEEKNS_12ArrayWrapperIKS3_EEEENS0_9assign_opIddEENS0_11Dense2DenseEvE3runERS3_RKSJ_RKSL_"
 "_ZN5Eigen8internal10AssignmentINS_6MatrixIdLin1ELi1ELi0ELin1ELi1EEENS_13CwiseBinaryOpINS0_20scalar_difference_opIddEEKS3_S7_EENS0_9assign_opIddEENS0_11Dense2DenseEvE3runERS3_RKS8_RKSA_"
 "_ZN5Eigen8internal10AssignmentINS_6MatrixIdLin1ELi1ELi0ELin1ELi1EEENS_14CwiseNullaryOpINS0_18scalar_constant_opIdEES3_EENS0_13div_assign_opIddEENS0_11Dense2DenseEvE3runERS3_RKS7_RKS9_"
 "_ZN5Eigen8internal10AssignmentINS_6MatrixIdLin1ELi1ELi0ELin1ELi1EEENS_14CwiseNullaryOpINS0_18scalar_constant_opIdEES3_EENS0_13mul_assign_opIddEENS0_11Dense2DenseEvE3runERS3_RKS7_RKS9_"
 "_ZN5Eigen8internal10AssignmentINS_6MatrixIdLin1ELi1ELi0ELin1ELi1EEENS_14CwiseNullaryOpINS0_18scalar_constant_opIdEES3_EENS0_9assign_opIddEENS0_11Dense2DenseEvE3runERS3_RKS7_RKS9_"
 "_ZN5Eigen8internal10AssignmentINS_6MatrixIdLin1ELi1ELi0ELin1ELi1EEENS_14CwiseUnaryViewINS_10MatrixBaseINS2_IN4stan4math3varELin1ELi1ELi0ELin1ELi1EEEE6adj_OpES9_EENS0_9assign_opIddEENS0_11Dense2DenseEvE3runERS3_RKSC_RKSE_"
 "_ZN5Eigen8internal10AssignmentINS_6MatrixIdLin1ELi1ELi0ELin1ELi1EEENS_3MapIS3_Li0ENS_6StrideILi0ELi0EEEEENS0_9assign_opIddEENS0_11Dense2DenseEvE3runERS3_RKS7_RKS9_"
 "_ZN5Eigen8internal10AssignmentINS_6MatrixIdLin1ELi1ELi0ELin1ELi1EEENS_5SolveINS_14TriangularViewIKNS_9TransposeIKNS2_IdLin1ELin1ELi0ELin1ELin1EEEEELj2EEES3_EENS0_9assign_opIddEENS0_11Dense2DenseEvE3runERS3_RKSC_RKSE_"
 "_ZN5Eigen8internal10AssignmentINS_6MatrixIdLin1ELi1ELi0ELin1ELi1EEENS_7ProductINS2_IdLin1ELin1ELi0ELin1ELin1EEES3_Li0EEENS0_9assign_opIddEENS0_11Dense2DenseEvE3runERS3_RKS6_RKS8_"
 "_ZN5Eigen8internal10AssignmentINS_6MatrixIdLin1ELi1ELi0ELin1ELi1EEENS_7ProductINS_9TransposeINS2_IdLin1ELin1ELi0ELin1ELin1EEEEES3_Li0EEENS0_9assign_opIddEENS0_11Dense2DenseEvE3runERS3_RKS8_RKSA_"
 "_ZN5Eigen8internal10AssignmentINS_6MatrixIdLin1ELi1ELi0ELin1ELi1EEENS_8DiagonalINS2_IdLin1ELin1ELi0ELin1ELin1EEELi0EEENS0_9assign_opIddEENS0_11Dense2DenseEvE3runERS3_RKS6_RKS8_"
 "_ZN5Eigen8internal10AssignmentINS_6MatrixIdLin1ELi1ELi0ELin1ELi1EEENS_8DiagonalINS2_IdLin1ELin1ELi0ELin1ELin1EEELin1EEENS0_9assign_opIddEENS0_11Dense2DenseEvE3runERS3_RKS6_RKS8_"
 "_ZN5Eigen8internal10AssignmentINS_6MatrixIdLin1ELi1ELi0ELin1ELi1EEES3_NS0_13add_assign_opIddEENS0_11Dense2DenseEvE3runERS3_RKS3_RKS5_"
 "_ZN5Eigen8internal10AssignmentINS_6MatrixIdLin1ELi1ELi0ELin1ELi1EEES3_NS0_9assign_opIddEENS0_11Dense2DenseEvE3runERS3_RKS3_RKS5_"
 "_ZN5Eigen8internal10AssignmentINS_6MatrixIdLin1ELin1ELi0ELin1ELin1EEENS2_IdLin1ELin1ELi1ELin1ELin1EEENS0_9assign_opIddEENS0_11Dense2DenseEvE3runERS3_RKS4_RKS6_"
 "_ZN5Eigen8internal10AssignmentINS_6MatrixIdLin1ELin1ELi0ELin1ELin1EEENS_12CwiseUnaryOpINS0_14scalar_sqrt_opIdEEKNS_12ArrayWrapperIKS3_EEEENS0_9assign_opIddEENS0_11Dense2DenseEvE3runERS3_RKSB_RKSD_"
 "_ZN5Eigen8internal10AssignmentINS_6MatrixIdLin1ELin1ELi0ELin1ELin1EEENS_12CwiseUnaryOpINS0_16scalar_square_opIdEEKNS_12ArrayWrapperIKS3_EEEENS0_9assign_opIddEENS0_11Dense2DenseEvE3runERS3_RKSB_RKSD_"
 "_ZN5Eigen8internal10AssignmentINS_6MatrixIdLin1ELin1ELi0ELin1ELin1EEENS_13CwiseBinaryOpINS0_13scalar_sum_opIddEEKNS4_INS0_17scalar_product_opIddEEKNS_14CwiseNullaryOpINS0_18scalar_constant_opIdEEKS3_EESC_EEKNS4_IS8_SE_KNS9_INS0_18scalar_identity_opIdEES3_EEEEEENS0_9assign_opIddEENS0_11Dense2DenseEvE3runERS3_RKSN_RKSP_"
 "_ZN5Eigen8internal10AssignmentINS_6MatrixIdLin1ELin1ELi0ELin1ELin1EEENS_13CwiseBinaryOpINS0_17scalar_product_opIddEEKNS_14CwiseNullaryOpINS0_18scalar_constant_opIdEEKS3_EESA_EENS0_9assign_opIddEENS0_11Dense2DenseEvE3runERS3_RKSD_RKSF_"
 "_ZN5Eigen8internal10AssignmentINS_6MatrixIdLin1ELin1ELi0ELin1ELin1EEENS_13CwiseBinaryOpINS0_18scalar_quotient_opIddEEKS3_KNS_14CwiseNullaryOpINS0_18scalar_constant_opIdEES7_EEEENS0_9assign_opIddEENS0_11Dense2DenseEvE3runERS3_RKSD_RKSF_"
 "_ZN5Eigen8internal10AssignmentINS_6MatrixIdLin1ELin1ELi0ELin1ELin1EEENS_14CwiseNullaryOpINS0_18scalar_constant_opIdEES3_EENS0_13div_assign_opIddEENS0_11Dense2DenseEvE3runERS3_RKS7_RKS9_"
 "_ZN5Eigen8internal10AssignmentINS_6MatrixIdLin1ELin1ELi0ELin1ELin1EEENS_14CwiseNullaryOpINS0_18scalar_constant_opIdEES3_EENS0_13mul_assign_opIddEENS0_11Dense2DenseEvE3runERS3_RKS7_RKS9_"
 "_ZN5Eigen8internal10AssignmentINS_6MatrixIdLin1ELin1ELi0ELin1ELin1EEENS_14CwiseNullaryOpINS0_18scalar_constant_opIdEES3_EENS0_9assign_opIddEENS0_11Dense2DenseEvE3runERS3_RKS7_RKS9_"
 "_ZN5Eigen8internal10AssignmentINS_6MatrixIdLin1ELin1ELi0ELin1ELin1EEENS_14CwiseNullaryOpINS0_18scalar_identity_opIdEES3_EENS0_9assign_opIddEENS0_11Dense2DenseEvE3runERS3_RKS7_RKS9_"
 "_ZN5Eigen8internal10AssignmentINS_6MatrixIdLin1ELin1ELi0ELin1ELin1EEENS_14CwiseUnaryViewINS_10MatrixBaseINS_3MapINS2_IPN4stan4math4variELin1ELin1ELi0ELin1ELin1EEELi0ENS_6StrideILi0ELi0EEEEEE6adj_OpESE_EENS0_9assign_opIddEENS0_11Dense2DenseEvE3runERS3_RKSH_RKSJ_"
 "_ZN5Eigen8internal10AssignmentINS_6MatrixIdLin1ELin1ELi0ELin1ELin1EEENS_14TriangularViewIKS3_Lj1EEENS0_9assign_opIddEENS0_16Triangular2DenseEvE3runERS3_RKS6_RKS8_"
 "_ZN5Eigen8internal10AssignmentINS_6MatrixIdLin1ELin1ELi0ELin1ELin1EEENS_19HouseholderSequenceIS3_NS2_IdLin1ELi1ELi0ELin1ELi1EEELi1EEENS0_9assign_opIddEENS0_19EigenBase2EigenBaseEvE3runERS3_RKS6_RKS8_"
 "_ZN5Eigen8internal10AssignmentINS_6MatrixIdLin1ELin1ELi0ELin1ELin1EEENS_3MapIKS3_Li0ENS_6StrideILi0ELi0EEEEENS0_9assign_opIddEENS0_11Dense2DenseEvE3runERS3_RKS8_RKSA_"
 "_ZN5Eigen8internal10AssignmentINS_6MatrixIdLin1ELin1ELi0ELin1ELin1EEENS_3MapIS3_Li0ENS_6StrideILi0ELi0EEEEENS0_9assign_opIddEENS0_11Dense2DenseEvE3runERS3_RKS7_RKS9_"
 "_ZN5Eigen8internal10AssignmentINS_6MatrixIdLin1ELin1ELi0ELin1ELin1EEENS_7ProductINS_13CwiseBinaryOpINS0_17scalar_product_opIddEEKNS_14CwiseNullaryOpINS0_18scalar_constant_opIdEEKNS2_IdLin1ELi1ELi0ELin1ELi1EEEEESC_EENS_9TransposeISC_EELi0EEENS0_13add_assign_opIddEENS0_11Dense2DenseEvE3runERS3_RKSI_RKSK_"
 "_ZN5Eigen8internal10AssignmentINS_6MatrixIdLin1ELin1ELi0ELin1ELin1EEENS_7ProductINS_13CwiseBinaryOpINS0_17scalar_product_opIddEEKNS_14CwiseNullaryOpINS0_18scalar_constant_opIdEEKNS2_IdLin1ELi1ELi0ELin1ELi1EEEEESC_EENS_9TransposeISC_EELi0EEENS0_13sub_assign_opIddEENS0_11Dense2DenseEvE3runERS3_RKSI_RKSK_"
 "_ZN5Eigen8internal10AssignmentINS_6MatrixIdLin1ELin1ELi0ELin1ELin1EEENS_7ProductINS_13CwiseBinaryOpINS0_17scalar_product_opIddEEKNS_14CwiseNullaryOpINS0_18scalar_constant_opIdEEKS3_EESB_EENS_9TransposeIS3_EELi0EEENS0_9assign_opIddEENS0_11Dense2DenseEvE3runERS3_RKSH_RKSJ_"
 "_ZN5Eigen8internal10AssignmentINS_6MatrixIdLin1ELin1ELi0ELin1ELin1EEENS_7ProductINS_13CwiseBinaryOpINS0_17scalar_product_opIddEEKNS_14CwiseNullaryOpINS0_18scalar_constant_opIdEEKS3_EESB_EENS_9TransposeIS3_EELi1EEENS0_9assign_opIddEENS0_11Dense2DenseEvE3runERS3_RKSH_RKSJ_"
 "_ZN5Eigen8internal10AssignmentINS_6MatrixIdLin1ELin1ELi0ELin1ELin1EEENS_7ProductINS_13CwiseBinaryOpINS0_20scalar_difference_opIddEEKNS2_IdLin1ELi1ELi0ELin1ELi1EEES9_EENS_9TransposeIS8_EELi0EEENS0_9assign_opIddEENS0_11Dense2DenseEvE3runERS3_RKSD_RKSF_"
 "_ZN5Eigen8internal10AssignmentINS_6MatrixIdLin1ELin1ELi0ELin1ELin1EEENS_7ProductINS_9TransposeINS_3MapIS3_Li0ENS_6StrideILi0ELi0EEEEEEES3_Li0EEENS0_9assign_opIddEENS0_11Dense2DenseEvE3runERS3_RKSB_RKSD_"
 "_ZN5Eigen8internal10AssignmentINS_6MatrixIdLin1ELin1ELi0ELin1ELin1EEENS_7ProductIS3_S3_Li0EEENS0_9assign_opIddEENS0_11Dense2DenseEvE3runERS3_RKS5_RKS7_"
 "_ZN5Eigen8internal10AssignmentINS_6MatrixIdLin1ELin1ELi0ELin1ELin1EEES3_NS0_13add_assign_opIddEENS0_11Dense2DenseEvE3runERS3_RKS3_RKS5_"
 "_ZN5Eigen8internal10AssignmentINS_6MatrixIdLin1ELin1ELi0ELin1ELin1EEES3_NS0_9assign_opIddEENS0_11Dense2DenseEvE3runERS3_RKS3_RKS5_"
 "_ZN5Eigen8internal10AssignmentINS_6MatrixIdLin1ELin1ELi1ELin1ELin1EEENS_7ProductINS4_INS2_IdLin1ELin1ELi0ELin1ELin1EEES5_Li0EEENS_9TransposeIS5_EELi0EEENS0_9assign_opIddEENS0_11Dense2DenseEvE3runERS3_RKS9_RKSB_"
 "_ZN5Eigen8internal10AssignmentINS_9TransposeINS_6MatrixIdLin1ELi1ELi0ELin1ELi1EEEEENS_5BlockIKNS3_IdLin1ELin1ELi0ELin1ELin1EEELi1ELin1ELb0EEENS0_9assign_opIddEENS0_11Dense2DenseEvE3runERS5_RKS9_RKSB_"
 "_ZN5Eigen8internal10CacheSizesC1Ev"
 "_ZN5Eigen8internal10LLT_TraitsINS_6MatrixIdLin1ELin1ELi0ELin1ELin1EEELi1EE21inplace_decompositionERS3_"
 "_ZN5Eigen8internal10LLT_TraitsINS_6MatrixIdLin1ELin1ELi0ELin1ELin1EEELi1EE4getUERKS3_"
 "_ZN5Eigen8internal10get_factorIddE3runERKd"
 "_ZN5Eigen8internal10hypot_implIdE3runERKdS4_"
 "_ZN5Eigen8internal10predux_maxIDv2_dEENS0_15unpacket_traitsIT_E4typeERKS4_"
 "_ZN5Eigen8internal10ptransposeERNS0_11PacketBlockIDv2_dLi2EEE"
 "_ZN5Eigen8internal10redux_implINS0_13scalar_max_opIddEENS0_15redux_evaluatorINS_12CwiseUnaryOpINS0_13scalar_abs_opIdEEKNS_6MatrixIdLin1ELin1ELi0ELin1ELin1EEEEEEELi3ELi0EE3runERKSC_RKS3_"
 "_ZN5Eigen8internal10redux_implINS0_13scalar_sum_opIddEENS0_15redux_evaluatorINS_12CwiseUnaryOpINS0_13scalar_abs_opIdEEKNS_5BlockINS8_INS_6MatrixIdLin1ELin1ELi0ELin1ELin1EEELi1ELin1ELb0EEELi1ELin1ELb0EEEEEEELi0ELi0EE3runERKSF_RKS3_"
 "_ZN5Eigen8internal10redux_implINS0_13scalar_sum_opIddEENS0_15redux_evaluatorINS_12CwiseUnaryOpINS0_13scalar_abs_opIdEEKNS_5BlockINS8_INS_6MatrixIdLin1ELin1ELi0ELin1ELin1EEELin1ELi1ELb1EEELin1ELi1ELb0EEEEEEELi3ELi0EE3runERKSF_RKS3_"
 "_ZN5Eigen8internal10redux_implINS0_13scalar_sum_opIddEENS0_15redux_evaluatorINS_12CwiseUnaryOpINS0_14scalar_abs2_opIdEEKNS_5BlockIKNS8_INS8_INS_6MatrixIdLin1ELin1ELi0ELin1ELin1EEELin1ELi1ELb1EEELin1ELi1ELb0EEELin1ELi1ELb0EEEEEEELi3ELi0EE3runERKSH_RKS3_"
 "_ZN5Eigen8internal10redux_implINS0_13scalar_sum_opIddEENS0_15redux_evaluatorINS_12CwiseUnaryOpINS0_14scalar_abs2_opIdEEKNS_5BlockINS8_INS_6MatrixIdLin1ELin1ELi0ELin1ELin1EEELin1ELin1ELb0EEELi1ELin1ELb0EEEEEEELi0ELi0EE3runERKSF_RKS3_"
 "_ZN5Eigen8internal10redux_implINS0_13scalar_sum_opIddEENS0_15redux_evaluatorINS_12CwiseUnaryOpINS0_14scalar_abs2_opIdEEKNS_5BlockINS_6MatrixIdLin1ELin1ELi0ELin1ELin1EEELi1ELin1ELb0EEEEEEELi0ELi0EE3runERKSE_RKS3_"
 "_ZN5Eigen8internal10redux_implINS0_13scalar_sum_opIddEENS0_15redux_evaluatorINS_12CwiseUnaryOpINS0_14scalar_abs2_opIdEEKNS_6MatrixIdLin1ELi1ELi0ELin1ELi1EEEEEEELi3ELi0EE3runERKSC_RKS3_"
 "_ZN5Eigen8internal10redux_implINS0_13scalar_sum_opIddEENS0_15redux_evaluatorINS_13CwiseBinaryOpINS0_17scalar_product_opIddEEKNS_9TransposeIKNS_3MapINS_6MatrixIdLi1ELin1ELi1ELi1ELin1EEELi0ENS_6StrideILi0ELi0EEEEEEEKNS9_INSA_IdLin1ELi1ELi0ELin1ELi1EEELi0ESD_EEEEEELi3ELi0EE3runERKSM_RKS3_"
 "_ZN5Eigen8internal10redux_implINS0_13scalar_sum_opIddEENS0_15redux_evaluatorINS_13CwiseBinaryOpINS0_17scalar_product_opIddEEKNS_9TransposeIKNS_5BlockINS_6MatrixIdLin1ELin1ELi0ELin1ELin1EEELi1ELin1ELb0EEEEEKNS9_INSA_IdLin1ELi1ELi0ELin1ELi1EEELin1ELi1ELb0EEEEEEELi0ELi0EE3runERKSK_RKS3_"
 "_ZN5Eigen8internal10redux_implINS0_13scalar_sum_opIddEENS0_15redux_evaluatorINS_13CwiseBinaryOpINS0_22scalar_conj_product_opIddEEKNS_5BlockINS_6MatrixIdLin1ELi1ELi0ELin1ELi1EEELin1ELi1ELb0EEEKNS8_INS8_INS9_IdLin1ELin1ELi0ELin1ELin1EEELin1ELi1ELb1EEELin1ELi1ELb0EEEEEEELi3ELi0EE3runERKSI_RKS3_"
 "_ZN5Eigen8internal10redux_implINS0_13scalar_sum_opIddEENS0_15redux_evaluatorINS_13CwiseBinaryOpINS0_22scalar_conj_product_opIddEEKNS_6MatrixIdLin1ELi1ELi0ELin1ELi1EEESA_EEEELi3ELi0EE3runERKSC_RKS3_"
 "_ZN5Eigen8internal10redux_implINS0_13scalar_sum_opIddEENS0_15redux_evaluatorINS_13CwiseBinaryOpINS0_22scalar_conj_product_opIddEEKNS_9TransposeIKNS_6MatrixIdLi1ELin1ELi1ELi1ELin1EEEEEKNS9_IdLin1ELi1ELi0ELin1ELi1EEEEEEELi3ELi0EE3runERKSH_RKS3_"
 "_ZN5Eigen8internal10redux_implINS0_13scalar_sum_opIddEENS0_15redux_evaluatorINS_6MatrixIdLin1ELi1ELi0ELin1ELi1EEEEELi3ELi0EE3runERKS7_RKS3_"
 "_ZN5Eigen8internal10smart_copyIN4stan4math3varEEEvPKT_S7_PS5_"
 "_ZN5Eigen8internal10smart_copyIdEEvPKT_S4_PS2_"
 "_ZN5Eigen8internal11blas_traitsINS_13CwiseBinaryOpINS0_17scalar_product_opIddEEKNS_14CwiseNullaryOpINS0_18scalar_constant_opIdEEKNS_6MatrixIdLin1ELi1ELi0ELin1ELi1EEEEEKNS_5BlockINSD_INS8_IdLin1ELin1ELi0ELin1ELin1EEELin1ELi1ELb1EEELin1ELi1ELb0EEEEEE19extractScalarFactorERKSI_"
 "_ZN5Eigen8internal11blas_traitsINS_13CwiseBinaryOpINS0_17scalar_product_opIddEEKNS_14CwiseNullaryOpINS0_18scalar_constant_opIdEEKNS_6MatrixIdLin1ELi1ELi0ELin1ELi1EEEEEKNS_5BlockINSD_INS8_IdLin1ELin1ELi0ELin1ELin1EEELin1ELi1ELb1EEELin1ELi1ELb0EEEEEE7extractERKSI_"
 "_ZN5Eigen8internal11blas_traitsINS_13CwiseBinaryOpINS0_17scalar_product_opIddEEKNS_14CwiseNullaryOpINS0_18scalar_constant_opIdEEKNS_6MatrixIdLin1ELin1ELi0ELin1ELin1EEEEESA_EEE19extractScalarFactorERKSD_"
 "_ZN5Eigen8internal11blas_traitsINS_13CwiseBinaryOpINS0_17scalar_product_opIddEEKNS_14CwiseNullaryOpINS0_18scalar_constant_opIdEEKNS_6MatrixIdLin1ELin1ELi0ELin1ELin1EEEEESA_EEE7extractERKSD_"
 "_ZN5Eigen8internal11blas_traitsINS_3MapINS_6MatrixIdLin1ELin1ELi0ELin1ELin1EEELi0ENS_6StrideILi0ELi0EEEEEE19extractScalarFactorERKS7_"
 "_ZN5Eigen8internal11blas_traitsINS_3MapINS_6MatrixIdLin1ELin1ELi0ELin1ELin1EEELi0ENS_6StrideILi0ELi0EEEEEE7extractERKS7_"
 "_ZN5Eigen8internal11blas_traitsINS_5BlockINS2_INS_6MatrixIdLin1ELin1ELi0ELin1ELin1EEELin1ELi1ELb1EEELin1ELi1ELb0EEEE19extractScalarFactorERKS6_"
 "_ZN5Eigen8internal11blas_traitsINS_5BlockINS2_INS_6MatrixIdLin1ELin1ELi0ELin1ELin1EEELin1ELi1ELb1EEELin1ELi1ELb0EEEE7extractERKS6_"
 "_ZN5Eigen8internal11blas_traitsINS_5BlockINS2_INS_6MatrixIdLin1ELin1ELi0ELin1ELin1EEELin1ELin1ELb0EEELi1ELin1ELb0EEEE19extractScalarFactorERKS6_"
 "_ZN5Eigen8internal11blas_traitsINS_5BlockINS2_INS_6MatrixIdLin1ELin1ELi0ELin1ELin1EEELin1ELin1ELb0EEELi1ELin1ELb0EEEE7extractERKS6_"
 "_ZN5Eigen8internal11blas_traitsINS_5BlockINS2_INS_6MatrixIdLin1ELin1ELi0ELin1ELin1EEELin1ELin1ELb0EEELin1ELin1ELb0EEEE19extractScalarFactorERKS6_"
 "_ZN5Eigen8internal11blas_traitsINS_5BlockINS2_INS_6MatrixIdLin1ELin1ELi0ELin1ELin1EEELin1ELin1ELb0EEELin1ELin1ELb0EEEE7extractERKS6_"
 "_ZN5Eigen8internal11blas_traitsINS_5BlockINS_6MatrixIdLin1ELi1ELi0ELin1ELi1EEELin1ELi1ELb0EEEE19extractScalarFactorERKS5_"
 "_ZN5Eigen8internal11blas_traitsINS_5BlockINS_6MatrixIdLin1ELi1ELi0ELin1ELi1EEELin1ELi1ELb0EEEE7extractERKS5_"
 "_ZN5Eigen8internal11blas_traitsINS_5BlockINS_6MatrixIdLin1ELin1ELi0ELin1ELin1EEELi1ELin1ELb0EEEE19extractScalarFactorERKS5_"
 "_ZN5Eigen8internal11blas_traitsINS_5BlockINS_6MatrixIdLin1ELin1ELi0ELin1ELin1EEELi1ELin1ELb0EEEE7extractERKS5_"
 "_ZN5Eigen8internal11blas_traitsINS_5BlockINS_6MatrixIdLin1ELin1ELi0ELin1ELin1EEELin1ELin1ELb0EEEE19extractScalarFactorERKS5_"
 "_ZN5Eigen8internal11blas_traitsINS_5BlockINS_6MatrixIdLin1ELin1ELi0ELin1ELin1EEELin1ELin1ELb0EEEE7extractERKS5_"
 "_ZN5Eigen8internal11blas_traitsINS_6MatrixIdLin1ELi1ELi0ELin1ELi1EEEE19extractScalarFactorERKS3_"
 "_ZN5Eigen8internal11blas_traitsINS_6MatrixIdLin1ELi1ELi0ELin1ELi1EEEE7extractERKS3_"
 "_ZN5Eigen8internal11blas_traitsINS_6MatrixIdLin1ELin1ELi0ELin1ELin1EEEE19extractScalarFactorERKS3_"
 "_ZN5Eigen8internal11blas_traitsINS_6MatrixIdLin1ELin1ELi0ELin1ELin1EEEE7extractERKS3_"
 "_ZN5Eigen8internal11blas_traitsINS_9TransposeIKNS_5BlockINS3_INS_6MatrixIdLin1ELin1ELi0ELin1ELin1EEELin1ELin1ELb0EEELi1ELin1ELb0EEEEEE19extractScalarFactorERKS9_"
 "_ZN5Eigen8internal11blas_traitsINS_9TransposeIKNS_5BlockINS3_INS_6MatrixIdLin1ELin1ELi0ELin1ELin1EEELin1ELin1ELb0EEELi1ELin1ELb0EEEEEE7extractERKS9_"
 "_ZN5Eigen8internal11blas_traitsINS_9TransposeIKNS_5BlockINS_6MatrixIdLin1ELin1ELi0ELin1ELin1EEELi1ELin1ELb0EEEEEE19extractScalarFactorERKS8_"
 "_ZN5Eigen8internal11blas_traitsINS_9TransposeIKNS_5BlockINS_6MatrixIdLin1ELin1ELi0ELin1ELin1EEELi1ELin1ELb0EEEEEE7extractERKS8_"
 "_ZN5Eigen8internal11blas_traitsINS_9TransposeIKNS_5BlockINS_6MatrixIdLin1ELin1ELi0ELin1ELin1EEELin1ELin1ELb0EEEEEE7extractERKS8_"
 "_ZN5Eigen8internal11blas_traitsINS_9TransposeIKNS_6MatrixIdLin1ELin1ELi0ELin1ELin1EEEEEE19extractScalarFactorERKS6_"
 "_ZN5Eigen8internal11blas_traitsINS_9TransposeIKNS_6MatrixIdLin1ELin1ELi0ELin1ELin1EEEEEE7extractERKS6_"
 "_ZN5Eigen8internal11blas_traitsINS_9TransposeINS_3MapINS_6MatrixIdLin1ELin1ELi0ELin1ELin1EEELi0ENS_6StrideILi0ELi0EEEEEEEE19extractScalarFactorERKS9_"
 "_ZN5Eigen8internal11blas_traitsINS_9TransposeINS_3MapINS_6MatrixIdLin1ELin1ELi0ELin1ELin1EEELi0ENS_6StrideILi0ELi0EEEEEEEE7extractERKS9_"
 "_ZN5Eigen8internal11blas_traitsINS_9TransposeINS_6MatrixIdLin1ELin1ELi0ELin1ELin1EEEEEE19extractScalarFactorERKS5_"
 "_ZN5Eigen8internal11blas_traitsINS_9TransposeINS_6MatrixIdLin1ELin1ELi0ELin1ELin1EEEEEE7extractERKS5_"
 "_ZN5Eigen8internal11dot_nocheckINS_5BlockINS_6MatrixIdLin1ELi1ELi0ELin1ELi1EEELin1ELi1ELb0EEENS2_INS2_INS3_IdLin1ELin1ELi0ELin1ELin1EEELin1ELi1ELb1EEELin1ELi1ELb0EEELb0EE3runERKNS_10MatrixBaseIS5_EERKNSA_IS8_EE"
 "_ZN5Eigen8internal11dot_nocheckINS_6MatrixIdLi1ELin1ELi1ELi1ELin1EEENS2_IdLin1ELi1ELi0ELin1ELi1EEELb1EE3runERKNS_10MatrixBaseIS3_EERKNS6_IS4_EE"
 "_ZN5Eigen8internal11dot_nocheckINS_6MatrixIdLin1ELi1ELi0ELin1ELi1EEES3_Lb0EE3runERKNS_10MatrixBaseIS3_EES8_"
 "_ZN5Eigen8internal11gebp_kernelIddxNS0_16blas_data_mapperIdxLi0ELi0EEELi4ELi4ELb0ELb0EEclERKS3_PKdS8_xxxdxxxx"
 "_ZN5Eigen8internal11gebp_traitsIddLb0ELb0EE12broadcastRhsEPKdRDv2_dS6_S6_S6_"
 "_ZN5Eigen8internal11gebp_traitsIddLb0ELb0EE7initAccERDv2_d"
 "_ZN5Eigen8internal11llt_inplaceIdLi1EE7blockedINS_6MatrixIdLin1ELin1ELi0ELin1ELin1EEEEExRT_"
 "_ZN5Eigen8internal11llt_inplaceIdLi1EE9unblockedINS_5BlockINS_6MatrixIdLin1ELin1ELi0ELin1ELin1EEELin1ELin1ELb0EEEEExRT_"
 "_ZN5Eigen8internal11llt_inplaceIdLi1EE9unblockedINS_6MatrixIdLin1ELin1ELi0ELin1ELin1EEEEExRT_"
 "_ZN5Eigen8internal11noncopyableC2Ev"
 "_ZN5Eigen8internal11noncopyableD2Ev"
 "_ZN5Eigen8internal11palign_implILi1EDv2_dE3runERS2_RKS2_"
 "_ZN5Eigen8internal11palign_implILi2EDv2_dE3runERS2_RKS2_"
 "_ZN5Eigen8internal11palign_implILi3EDv2_dE3runERS2_RKS2_"
 "_ZN5Eigen8internal11pbroadcast4IDv2_dEEvPKNS0_15unpacket_traitsIT_E4typeERS4_S9_S9_S9_"
 "_ZN5Eigen8internal11plain_arrayIdLi16ELi0ELi16EEC1ENS0_42constructor_without_unaligned_array_assertE"
 "_ZN5Eigen8internal11plain_arrayIdLi1ELi0ELi0EEC1Ev"
 "_ZN5Eigen8internal12aligned_freeEPv"
 "_ZN5Eigen8internal12gemm_functorIdxNS0_29general_matrix_matrix_productIxdLi0ELb0EdLi0ELb0ELi0EEENS_6MatrixIdLin1ELin1ELi0ELin1ELin1EEES5_S5_NS0_19gemm_blocking_spaceILi0EddLin1ELin1ELin1ELi1ELb0EEEEC1ERKS5_SA_RS5_RKdRS7_"
 "_ZN5Eigen8internal12gemm_functorIdxNS0_29general_matrix_matrix_productIxdLi0ELb0EdLi1ELb0ELi0EEENS_6MatrixIdLin1ELin1ELi0ELin1ELin1EEENS_9TransposeIKS5_EES5_NS0_19gemm_blocking_spaceILi0EddLin1ELin1ELin1ELi1ELb0EEEEC1ERS7_RKS8_RS5_RKdRSA_"
 "_ZN5Eigen8internal12ldlt_inplaceILi1EE9unblockedINS_6MatrixIdLin1ELin1ELi0ELin1ELin1EEENS_14TranspositionsILin1ELin1EiEENS4_IdLin1ELi1ELi0ELin1ELi1EEEEEbRT_RT0_RT1_RNS0_10SignMatrixE"
 "_ZN5Eigen8internal12tribb_kernelIddxLi4ELi4ELb0ELb0ELi1EEclEPdxPKdS5_xxRS4_"
 "_ZN5Eigen8internal12visitor_implINS0_17max_coeff_visitorINS_12CwiseUnaryOpINS0_13scalar_abs_opIdEEKNS_5BlockINS_8DiagonalINS_6MatrixIdLin1ELin1ELi0ELin1ELin1EEELi0EEELin1ELi1ELb0EEEEEEENS0_17visitor_evaluatorISD_EELin1EE3runERKSG_RSE_"
 "_ZN5Eigen8internal12visitor_implINS0_17min_coeff_visitorINS_5BlockINS_6MatrixIdLin1ELi1ELi0ELin1ELi1EEELin1ELi1ELb0EEEEENS0_17visitor_evaluatorIS6_EELin1EE3runERKS9_RS7_"
 "_ZN5Eigen8internal13add_assign_opIddEC1Ev"
 "_ZN5Eigen8internal13coeff_visitorINS_12CwiseUnaryOpINS0_13scalar_abs_opIdEEKNS_5BlockINS_8DiagonalINS_6MatrixIdLin1ELin1ELi0ELin1ELin1EEELi0EEELin1ELi1ELb0EEEEEE4initERKdxx"
 "_ZN5Eigen8internal13coeff_visitorINS_5BlockINS_6MatrixIdLin1ELi1ELi0ELin1ELi1EEELin1ELi1ELb0EEEE4initERKdxx"
 "_ZN5Eigen8internal13div_assign_opIddEC1Ev"
 "_ZN5Eigen8internal13first_alignedILi16EdxEET1_PKT0_S2_"
 "_ZN5Eigen8internal13gemm_pack_lhsIdxNS0_16blas_data_mapperIdxLi0ELi0EEELi4ELi2ELi0ELb0ELb1EEclEPdRKS3_xxxx"
 "_ZN5Eigen8internal13gemm_pack_lhsIdxNS0_22const_blas_data_mapperIdxLi0EEELi4ELi2ELi0ELb0ELb0EEclEPdRKS3_xxxx"
 "_ZN5Eigen8internal13gemm_pack_lhsIdxNS0_22const_blas_data_mapperIdxLi1EEELi4ELi2ELi1ELb0ELb0EEclEPdRKS3_xxxx"
 "_ZN5Eigen8internal13gemm_pack_rhsIdxNS0_22const_blas_data_mapperIdxLi0EEELi4ELi0ELb0ELb0EEclEPdRKS3_xxxx"
 "_ZN5Eigen8internal13gemm_pack_rhsIdxNS0_22const_blas_data_mapperIdxLi1EEELi4ELi1ELb0ELb0EEclEPdRKS3_xxxx"
 "_ZN5Eigen8internal13gemm_pack_rhsIdxNS0_22const_blas_data_mapperIdxLi1EEELi4ELi1ELb0ELb1EEclEPdRKS3_xxxx"
 "_ZN5Eigen8internal13is_same_denseINS_6MatrixIdLin1ELin1ELi0ELin1ELin1EEES3_EEbRKT_RKT0_PNS0_9enable_ifIXaasrNS0_17has_direct_accessIS4_EE3retsrNSB_IS7_EE3retES4_E4typeE"
 "_ZN5Eigen8internal13mul_assign_opIddEC1Ev"
 "_ZN5Eigen8internal13scalar_abs_opIdEC1ERKS2_"
 "_ZN5Eigen8internal13scalar_abs_opIdEC1Ev"
 "_ZN5Eigen8internal13scalar_cmp_opIddLNS0_14ComparisonNameE0EEC1ERKS3_"
 "_ZN5Eigen8internal13scalar_cmp_opIddLNS0_14ComparisonNameE0EEC1Ev"
 "_ZN5Eigen8internal13scalar_cmp_opIddLNS0_14ComparisonNameE2EEC1ERKS3_"
 "_ZN5Eigen8internal13scalar_cmp_opIddLNS0_14ComparisonNameE2EEC1Ev"
 "_ZN5Eigen8internal13scalar_exp_opIdEC1ERKS2_"
 "_ZN5Eigen8internal13scalar_exp_opIdEC1Ev"
 "_ZN5Eigen8internal13scalar_max_opIddEC1Ev"
 "_ZN5Eigen8internal13scalar_sum_opIdN4stan4math3varEEC1ERKS5_"
 "_ZN5Eigen8internal13scalar_sum_opIdN4stan4math3varEEC1Ev"
 "_ZN5Eigen8internal13scalar_sum_opIddEC1ERKS2_"
 "_ZN5Eigen8internal13scalar_sum_opIddEC1Ev"
 "_ZN5Eigen8internal13sub_assign_opIddEC1Ev"
 "_ZN5Eigen8internal14aligned_deleteIdEEvPT_y"
 "_ZN5Eigen8internal14aligned_mallocEy"
 "_ZN5Eigen8internal14evaluator_baseINS_12ArrayWrapperIKNS_13CwiseBinaryOpINS0_20scalar_difference_opIddEEKNS_6MatrixIdLin1ELi1ELi0ELin1ELi1EEES8_EEEEEC2Ev"
 "_ZN5Eigen8internal14evaluator_baseINS_12ArrayWrapperIKNS_13CwiseBinaryOpINS0_20scalar_difference_opIddEEKNS_6MatrixIdLin1ELi1ELi0ELin1ELi1EEES8_EEEEED2Ev"
 "_ZN5Eigen8internal14evaluator_baseINS_12ArrayWrapperIKNS_6MatrixIN4stan4math3varELin1ELi1ELi0ELin1ELi1EEEEEED2Ev"
 "_ZN5Eigen8internal14evaluator_baseINS_12ArrayWrapperIKNS_6MatrixIdLin1ELi1ELi0ELin1ELi1EEEEEEC2Ev"
 "_ZN5Eigen8internal14evaluator_baseINS_12ArrayWrapperIKNS_6MatrixIdLin1ELi1ELi0ELin1ELi1EEEEEED2Ev"
 "_ZN5Eigen8internal14evaluator_baseINS_12ArrayWrapperIKNS_6MatrixIdLin1ELin1ELi0ELin1ELin1EEEEEEC2Ev"
 "_ZN5Eigen8internal14evaluator_baseINS_12ArrayWrapperIKNS_6MatrixIdLin1ELin1ELi0ELin1ELin1EEEEEED2Ev"
 "_ZN5Eigen8internal14evaluator_baseINS_12ArrayWrapperIKNS_8DiagonalIKNS_6MatrixIdLin1ELin1ELi0ELin1ELin1EEELi0EEEEEEC2Ev"
 "_ZN5Eigen8internal14evaluator_baseINS_12ArrayWrapperIKNS_8DiagonalIKNS_6MatrixIdLin1ELin1ELi0ELin1ELin1EEELi0EEEEEED2Ev"
 "_ZN5Eigen8internal14evaluator_baseINS_12ArrayWrapperINS_5BlockINS3_INS_6MatrixIdLin1ELin1ELi0ELin1ELin1EEELin1ELi1ELb1EEELin1ELi1ELb0EEEEEEC2Ev"
 "_ZN5Eigen8internal14evaluator_baseINS_12ArrayWrapperINS_5BlockINS3_INS_6MatrixIdLin1ELin1ELi0ELin1ELin1EEELin1ELi1ELb1EEELin1ELi1ELb0EEEEEED2Ev"
 "_ZN5Eigen8internal14evaluator_baseINS_12ArrayWrapperINS_5BlockINS_6MatrixIdLin1ELin1ELi0ELin1ELin1EEELin1ELi1ELb0EEEEEEC2Ev"
 "_ZN5Eigen8internal14evaluator_baseINS_12ArrayWrapperINS_5BlockINS_6MatrixIdLin1ELin1ELi0ELin1ELin1EEELin1ELi1ELb0EEEEEED2Ev"
 "_ZN5Eigen8internal14evaluator_baseINS_12ArrayWrapperINS_6MatrixIdLin1ELi1ELi0ELin1ELi1EEEEEEC2Ev"
 "_ZN5Eigen8internal14evaluator_baseINS_12ArrayWrapperINS_6MatrixIdLin1ELi1ELi0ELin1ELi1EEEEEED2Ev"
 "_ZN5Eigen8internal14evaluator_baseINS_12ArrayWrapperINS_6MatrixIdLin1ELin1ELi0ELin1ELin1EEEEEEC2Ev"
 "_ZN5Eigen8internal14evaluator_baseINS_12ArrayWrapperINS_6MatrixIdLin1ELin1ELi0ELin1ELin1EEEEEED2Ev"
 "_ZN5Eigen8internal14evaluator_baseINS_12ArrayWrapperINS_8DiagonalIKNS_6MatrixIdLin1ELin1ELi0ELin1ELin1EEELi0EEEEEEC2Ev"
 "_ZN5Eigen8internal14evaluator_baseINS_12ArrayWrapperINS_8DiagonalIKNS_6MatrixIdLin1ELin1ELi0ELin1ELin1EEELi0EEEEEED2Ev"
 "_ZN5Eigen8internal14evaluator_baseINS_12ArrayWrapperINS_8DiagonalINS_6MatrixIdLin1ELin1ELi0ELin1ELin1EEELi0EEEEEED2Ev"
 "_ZN5Eigen8internal14evaluator_baseINS_12CwiseUnaryOpINS0_13scalar_abs_opIdEEKNS_5BlockINS5_INS_6MatrixIdLin1ELin1ELi0ELin1ELin1EEELi1ELin1ELb0EEELi1ELin1ELb0EEEEEEC2Ev"
 "_ZN5Eigen8internal14evaluator_baseINS_12CwiseUnaryOpINS0_13scalar_abs_opIdEEKNS_5BlockINS5_INS_6MatrixIdLin1ELin1ELi0ELin1ELin1EEELi1ELin1ELb0EEELi1ELin1ELb0EEEEEED2Ev"
 "_ZN5Eigen8internal14evaluator_baseINS_12CwiseUnaryOpINS0_13scalar_abs_opIdEEKNS_5BlockINS5_INS_6MatrixIdLin1ELin1ELi0ELin1ELin1EEELin1ELi1ELb1EEELin1ELi1ELb0EEEEEEC2Ev"
 "_ZN5Eigen8internal14evaluator_baseINS_12CwiseUnaryOpINS0_13scalar_abs_opIdEEKNS_5BlockINS5_INS_6MatrixIdLin1ELin1ELi0ELin1ELin1EEELin1ELi1ELb1EEELin1ELi1ELb0EEEEEED2Ev"
 "_ZN5Eigen8internal14evaluator_baseINS_12CwiseUnaryOpINS0_13scalar_abs_opIdEEKNS_5BlockINS_8DiagonalINS_6MatrixIdLin1ELin1ELi0ELin1ELin1EEELi0EEELin1ELi1ELb0EEEEEEC2Ev"
 "_ZN5Eigen8internal14evaluator_baseINS_12CwiseUnaryOpINS0_13scalar_abs_opIdEEKNS_5BlockINS_8DiagonalINS_6MatrixIdLin1ELin1ELi0ELin1ELin1EEELi0EEELin1ELi1ELb0EEEEEED2Ev"
 "_ZN5Eigen8internal14evaluator_baseINS_12CwiseUnaryOpINS0_13scalar_abs_opIdEEKNS_6MatrixIdLin1ELin1ELi0ELin1ELin1EEEEEEC2Ev"
 "_ZN5Eigen8internal14evaluator_baseINS_12CwiseUnaryOpINS0_13scalar_abs_opIdEEKNS_6MatrixIdLin1ELin1ELi0ELin1ELin1EEEEEED2Ev"
 "_ZN5Eigen8internal14evaluator_baseINS_12CwiseUnaryOpINS0_13scalar_exp_opIdEEKNS_12ArrayWrapperIKNS_6MatrixIdLin1ELi1ELi0ELin1ELi1EEEEEEEEC2Ev"
 "_ZN5Eigen8internal14evaluator_baseINS_12CwiseUnaryOpINS0_13scalar_exp_opIdEEKNS_12ArrayWrapperIKNS_6MatrixIdLin1ELi1ELi0ELin1ELi1EEEEEEEED2Ev"
 "_ZN5Eigen8internal14evaluator_baseINS_12CwiseUnaryOpINS0_14scalar_abs2_opIdEEKNS_5BlockIKNS5_INS5_INS_6MatrixIdLin1ELin1ELi0ELin1ELin1EEELin1ELi1ELb1EEELin1ELi1ELb0EEELin1ELi1ELb0EEEEEEC2Ev"
 "_ZN5Eigen8internal14evaluator_baseINS_12CwiseUnaryOpINS0_14scalar_abs2_opIdEEKNS_5BlockIKNS5_INS5_INS_6MatrixIdLin1ELin1ELi0ELin1ELin1EEELin1ELi1ELb1EEELin1ELi1ELb0EEELin1ELi1ELb0EEEEEED2Ev"
 "_ZN5Eigen8internal14evaluator_baseINS_12CwiseUnaryOpINS0_14scalar_abs2_opIdEEKNS_5BlockINS5_INS_6MatrixIdLin1ELin1ELi0ELin1ELin1EEELin1ELin1ELb0EEELi1ELin1ELb0EEEEEEC2Ev"
 "_ZN5Eigen8internal14evaluator_baseINS_12CwiseUnaryOpINS0_14scalar_abs2_opIdEEKNS_5BlockINS5_INS_6MatrixIdLin1ELin1ELi0ELin1ELin1EEELin1ELin1ELb0EEELi1ELin1ELb0EEEEEED2Ev"
 "_ZN5Eigen8internal14evaluator_baseINS_12CwiseUnaryOpINS0_14scalar_abs2_opIdEEKNS_5BlockINS_6MatrixIdLin1ELin1ELi0ELin1ELin1EEELi1ELin1ELb0EEEEEEC2Ev"
 "_ZN5Eigen8internal14evaluator_baseINS_12CwiseUnaryOpINS0_14scalar_abs2_opIdEEKNS_5BlockINS_6MatrixIdLin1ELin1ELi0ELin1ELin1EEELi1ELin1ELb0EEEEEED2Ev"
 "_ZN5Eigen8internal14evaluator_baseINS_12CwiseUnaryOpINS0_14scalar_abs2_opIdEEKNS_6MatrixIdLin1ELi1ELi0ELin1ELi1EEEEEEC2Ev"
 "_ZN5Eigen8internal14evaluator_baseINS_12CwiseUnaryOpINS0_14scalar_abs2_opIdEEKNS_6MatrixIdLin1ELi1ELi0ELin1ELi1EEEEEED2Ev"
 "_ZN5Eigen8internal14evaluator_baseINS_12CwiseUnaryOpINS0_14scalar_sqrt_opIdEEKNS_12ArrayWrapperIKNS_6MatrixIdLin1ELi1ELi0ELin1ELi1EEEEEEEEC2Ev"
 "_ZN5Eigen8internal14evaluator_baseINS_12CwiseUnaryOpINS0_14scalar_sqrt_opIdEEKNS_12ArrayWrapperIKNS_6MatrixIdLin1ELi1ELi0ELin1ELi1EEEEEEEED2Ev"
 "_ZN5Eigen8internal14evaluator_baseINS_12CwiseUnaryOpINS0_14scalar_sqrt_opIdEEKNS_12ArrayWrapperIKNS_6MatrixIdLin1ELin1ELi0ELin1ELin1EEEEEEEEC2Ev"
 "_ZN5Eigen8internal14evaluator_baseINS_12CwiseUnaryOpINS0_14scalar_sqrt_opIdEEKNS_12ArrayWrapperIKNS_6MatrixIdLin1ELin1ELi0ELin1ELin1EEEEEEEED2Ev"
 "_ZN5Eigen8internal14evaluator_baseINS_12CwiseUnaryOpINS0_16scalar_square_opIdEEKNS_12ArrayWrapperIKNS_6MatrixIdLin1ELi1ELi0ELin1ELi1EEEEEEEEC2Ev"
 "_ZN5Eigen8internal14evaluator_baseINS_12CwiseUnaryOpINS0_16scalar_square_opIdEEKNS_12ArrayWrapperIKNS_6MatrixIdLin1ELi1ELi0ELin1ELi1EEEEEEEED2Ev"
 "_ZN5Eigen8internal14evaluator_baseINS_12CwiseUnaryOpINS0_16scalar_square_opIdEEKNS_12ArrayWrapperIKNS_6MatrixIdLin1ELin1ELi0ELin1ELin1EEEEEEEEC2Ev"
 "_ZN5Eigen8internal14evaluator_baseINS_12CwiseUnaryOpINS0_16scalar_square_opIdEEKNS_12ArrayWrapperIKNS_6MatrixIdLin1ELin1ELi0ELin1ELin1EEEEEEEED2Ev"
 "_ZN5Eigen8internal14evaluator_baseINS_12CwiseUnaryOpINS0_17scalar_inverse_opIdEEKNS_12ArrayWrapperIKNS_8DiagonalIKNS_6MatrixIdLin1ELin1ELi0ELin1ELin1EEELi0EEEEEEEED2Ev"
 "_ZN5Eigen8internal14evaluator_baseINS_12CwiseUnaryOpINS0_18scalar_opposite_opIdEEKNS_6MatrixIdLin1ELi1ELi0ELin1ELi1EEEEEEC2Ev"
 "_ZN5Eigen8internal14evaluator_baseINS_12CwiseUnaryOpINS0_18scalar_opposite_opIdEEKNS_6MatrixIdLin1ELi1ELi0ELin1ELi1EEEEEED2Ev"
 "_ZN5Eigen8internal14evaluator_baseINS_12CwiseUnaryOpINS0_18scalar_opposite_opIdEEKNS_7ProductINS_6MatrixIdLin1ELin1ELi0ELin1ELin1EEENS6_IdLin1ELi1ELi0ELin1ELi1EEELi0EEEEEEC2Ev"
 "_ZN5Eigen8internal14evaluator_baseINS_12CwiseUnaryOpINS0_18scalar_opposite_opIdEEKNS_7ProductINS_6MatrixIdLin1ELin1ELi0ELin1ELin1EEENS6_IdLin1ELi1ELi0ELin1ELi1EEELi0EEEEEED2Ev"
 "_ZN5Eigen8internal14evaluator_baseINS_12CwiseUnaryOpINS_10MatrixBaseINS_6MatrixIN4stan4math3varELin1ELi1ELi0ELin1ELi1EEEE5vi_OpEKS8_EEEC2Ev"
 "_ZN5Eigen8internal14evaluator_baseINS_12CwiseUnaryOpINS_10MatrixBaseINS_6MatrixIN4stan4math3varELin1ELi1ELi0ELin1ELi1EEEE5vi_OpEKS8_EEED2Ev"
 "_ZN5Eigen8internal14evaluator_baseINS_12CwiseUnaryOpINS_10MatrixBaseINS_6MatrixIN4stan4math3varELin1ELi1ELi0ELin1ELi1EEEE6val_OpEKS8_EEEC2Ev"
 "_ZN5Eigen8internal14evaluator_baseINS_12CwiseUnaryOpINS_10MatrixBaseINS_6MatrixIN4stan4math3varELin1ELi1ELi0ELin1ELi1EEEE6val_OpEKS8_EEED2Ev"
 "_ZN5Eigen8internal14evaluator_baseINS_12CwiseUnaryOpIZN4stan4math17multiply_mat_variIdLin1ELin1ENS4_3varELi1EEC4ERKNS_6MatrixIdLin1ELin1ELi0ELin1ELin1EEERKNS8_IS6_Lin1ELi1ELi0ELin1ELi1EEEEUldE_KNS_7ProductINS_3MapIS9_Li0ENS_6StrideILi0ELi0EEEEESK_Li0EEEEEEC2Ev"
 "_ZN5Eigen8internal14evaluator_baseINS_12CwiseUnaryOpIZN4stan4math17multiply_mat_variIdLin1ELin1ENS4_3varELi1EEC4ERKNS_6MatrixIdLin1ELin1ELi0ELin1ELin1EEERKNS8_IS6_Lin1ELi1ELi0ELin1ELi1EEEEUldE_KNS_7ProductINS_3MapIS9_Li0ENS_6StrideILi0ELi0EEEEESK_Li0EEEEEED2Ev"
 "_ZN5Eigen8internal14evaluator_baseINS_12CwiseUnaryOpIZN4stan4math18apply_scalar_unaryINS4_7exp_funENS_6MatrixINS4_3varELin1ELi1ELi0ELin1ELi1EEEE5applyERKS9_EUlS8_E_SB_EEEC2Ev"
 "_ZN5Eigen8internal14evaluator_baseINS_12CwiseUnaryOpIZN4stan4math18apply_scalar_unaryINS4_7exp_funENS_6MatrixINS4_3varELin1ELi1ELi0ELin1ELi1EEEE5applyERKS9_EUlS8_E_SB_EEED2Ev"
 "_ZN5Eigen8internal14evaluator_baseINS_12CwiseUnaryOpIZN4stan4math18apply_scalar_unaryINS4_7exp_funENS_6MatrixIdLin1ELi1ELi0ELin1ELi1EEEE5applyERKS8_EUldE_SA_EEEC2Ev"
 "_ZN5Eigen8internal14evaluator_baseINS_12CwiseUnaryOpIZN4stan4math18apply_scalar_unaryINS4_7exp_funENS_6MatrixIdLin1ELi1ELi0ELin1ELi1EEEE5applyERKS8_EUldE_SA_EEED2Ev"
 "_ZN5Eigen8internal14evaluator_baseINS_12CwiseUnaryOpIZN4stan4math18apply_scalar_unaryINS4_7log_funENS_6MatrixINS4_3varELin1ELi1ELi0ELin1ELi1EEEE5applyERKS9_EUlS8_E_SB_EEEC2Ev"
 "_ZN5Eigen8internal14evaluator_baseINS_12CwiseUnaryOpIZN4stan4math18apply_scalar_unaryINS4_7log_funENS_6MatrixINS4_3varELin1ELi1ELi0ELin1ELi1EEEE5applyERKS9_EUlS8_E_SB_EEED2Ev"
 "_ZN5Eigen8internal14evaluator_baseINS_12CwiseUnaryOpIZN4stan4math18apply_scalar_unaryINS4_7log_funENS_6MatrixIdLin1ELi1ELi0ELin1ELi1EEEE5applyERKS8_EUldE_SA_EEEC2Ev"
 "_ZN5Eigen8internal14evaluator_baseINS_12CwiseUnaryOpIZN4stan4math18apply_scalar_unaryINS4_7log_funENS_6MatrixIdLin1ELi1ELi0ELin1ELi1EEEE5applyERKS8_EUldE_SA_EEED2Ev"
 "_ZN5Eigen8internal14evaluator_baseINS_13CwiseBinaryOpINS0_13scalar_cmp_opIddLNS0_14ComparisonNameE0EEEKNS_12ArrayWrapperIKNS2_INS0_20scalar_difference_opIddEEKNS_6MatrixIdLin1ELi1ELi0ELin1ELi1EEESB_EEEESF_EEEC2Ev"
 "_ZN5Eigen8internal14evaluator_baseINS_13CwiseBinaryOpINS0_13scalar_cmp_opIddLNS0_14ComparisonNameE0EEEKNS_12ArrayWrapperIKNS2_INS0_20scalar_difference_opIddEEKNS_6MatrixIdLin1ELi1ELi0ELin1ELi1EEESB_EEEESF_EEED2Ev"
 "_ZN5Eigen8internal14evaluator_baseINS_13CwiseBinaryOpINS0_13scalar_cmp_opIddLNS0_14ComparisonNameE0EEEKNS_12ArrayWrapperINS_5BlockINS7_INS_6MatrixIdLin1ELin1ELi0ELin1ELin1EEELin1ELi1ELb1EEELin1ELi1ELb0EEEEEKNS_14CwiseNullaryOpINS0_18scalar_constant_opIdEENS_5ArrayIdLin1ELi1ELi0ELin1ELi1EEEEEEEEC2Ev"
 "_ZN5Eigen8internal14evaluator_baseINS_13CwiseBinaryOpINS0_13scalar_cmp_opIddLNS0_14ComparisonNameE0EEEKNS_12ArrayWrapperINS_5BlockINS7_INS_6MatrixIdLin1ELin1ELi0ELin1ELin1EEELin1ELi1ELb1EEELin1ELi1ELb0EEEEEKNS_14CwiseNullaryOpINS0_18scalar_constant_opIdEENS_5ArrayIdLin1ELi1ELi0ELin1ELi1EEEEEEEED2Ev"
 "_ZN5Eigen8internal14evaluator_baseINS_13CwiseBinaryOpINS0_13scalar_cmp_opIddLNS0_14ComparisonNameE0EEEKNS_12ArrayWrapperINS_5BlockINS_6MatrixIdLin1ELin1ELi0ELin1ELin1EEELin1ELi1ELb0EEEEEKNS_14CwiseNullaryOpINS0_18scalar_constant_opIdEENS_5ArrayIdLin1ELi1ELi0ELin1ELi1EEEEEEEEC2Ev"
 "_ZN5Eigen8internal14evaluator_baseINS_13CwiseBinaryOpINS0_13scalar_cmp_opIddLNS0_14ComparisonNameE0EEEKNS_12ArrayWrapperINS_5BlockINS_6MatrixIdLin1ELin1ELi0ELin1ELin1EEELin1ELi1ELb0EEEEEKNS_14CwiseNullaryOpINS0_18scalar_constant_opIdEENS_5ArrayIdLin1ELi1ELi0ELin1ELi1EEEEEEEED2Ev"
 "_ZN5Eigen8internal14evaluator_baseINS_13CwiseBinaryOpINS0_13scalar_cmp_opIddLNS0_14ComparisonNameE2EEEKNS_12ArrayWrapperINS_8DiagonalIKNS_6MatrixIdLin1ELin1ELi0ELin1ELin1EEELi0EEEEEKNS_14CwiseNullaryOpINS0_18scalar_constant_opIdEENS_5ArrayIdLin1ELi1ELi0ELin1ELi1EEEEEEEEC2Ev"
 "_ZN5Eigen8internal14evaluator_baseINS_13CwiseBinaryOpINS0_13scalar_cmp_opIddLNS0_14ComparisonNameE2EEEKNS_12ArrayWrapperINS_8DiagonalIKNS_6MatrixIdLin1ELin1ELi0ELin1ELin1EEELi0EEEEEKNS_14CwiseNullaryOpINS0_18scalar_constant_opIdEENS_5ArrayIdLin1ELi1ELi0ELin1ELi1EEEEEEEED2Ev"
 "_ZN5Eigen8internal14evaluator_baseINS_13CwiseBinaryOpINS0_13scalar_sum_opIdN4stan4math3varEEEKNS_14CwiseNullaryOpINS0_18scalar_constant_opIdEEKNS_5ArrayIdLin1ELi1ELi0ELin1ELi1EEEEEKNS_12ArrayWrapperIKNS_6MatrixIS6_Lin1ELi1ELi0ELin1ELi1EEEEEEEEC2Ev"
 "_ZN5Eigen8internal14evaluator_baseINS_13CwiseBinaryOpINS0_13scalar_sum_opIdN4stan4math3varEEEKNS_14CwiseNullaryOpINS0_18scalar_constant_opIdEEKNS_5ArrayIdLin1ELi1ELi0ELin1ELi1EEEEEKNS_12ArrayWrapperIKNS_6MatrixIS6_Lin1ELi1ELi0ELin1ELi1EEEEEEEED2Ev"
 "_ZN5Eigen8internal14evaluator_baseINS_13CwiseBinaryOpINS0_13scalar_sum_opIddEEKNS2_INS0_17scalar_product_opIddEEKNS_12ArrayWrapperIKNS_6MatrixIdLin1ELi1ELi0ELin1ELi1EEEEEKNS_12CwiseUnaryOpINS0_13scalar_exp_opIdEESC_EEEESC_EEEC2Ev"
 "_ZN5Eigen8internal14evaluator_baseINS_13CwiseBinaryOpINS0_13scalar_sum_opIddEEKNS2_INS0_17scalar_product_opIddEEKNS_12ArrayWrapperIKNS_6MatrixIdLin1ELi1ELi0ELin1ELi1EEEEEKNS_12CwiseUnaryOpINS0_13scalar_exp_opIdEESC_EEEESC_EEED2Ev"
 "_ZN5Eigen8internal14evaluator_baseINS_13CwiseBinaryOpINS0_13scalar_sum_opIddEEKNS2_INS0_17scalar_product_opIddEEKNS_14CwiseNullaryOpINS0_18scalar_constant_opIdEEKNS_6MatrixIdLin1ELi1ELi0ELin1ELi1EEEEEKNS_5BlockIKNSF_ISB_Lin1ELi1ELb0EEELin1ELi1ELb0EEEEEKNS2_IS6_SE_KNSF_IKNSF_INSF_INSA_IdLin1ELin1ELi0ELin1ELin1EEELin1ELi1ELb1EEELin1ELi1ELb0EEELin1ELi1ELb0EEEEEEEEC2Ev"
 "_ZN5Eigen8internal14evaluator_baseINS_13CwiseBinaryOpINS0_13scalar_sum_opIddEEKNS2_INS0_17scalar_product_opIddEEKNS_14CwiseNullaryOpINS0_18scalar_constant_opIdEEKNS_6MatrixIdLin1ELi1ELi0ELin1ELi1EEEEEKNS_5BlockIKNSF_ISB_Lin1ELi1ELb0EEELin1ELi1ELb0EEEEEKNS2_IS6_SE_KNSF_IKNSF_INSF_INSA_IdLin1ELin1ELi0ELin1ELin1EEELin1ELi1ELb1EEELin1ELi1ELb0EEELin1ELi1ELb0EEEEEEEED2Ev"
 "_ZN5Eigen8internal14evaluator_baseINS_13CwiseBinaryOpINS0_13scalar_sum_opIddEEKNS2_INS0_17scalar_product_opIddEEKNS_14CwiseNullaryOpINS0_18scalar_constant_opIdEEKNS_6MatrixIdLin1ELi1ELi0ELin1ELi1EEEEESC_EEKNS2_IS6_SE_KNS7_IS9_SB_EEEEEEEC2Ev"
 "_ZN5Eigen8internal14evaluator_baseINS_13CwiseBinaryOpINS0_13scalar_sum_opIddEEKNS2_INS0_17scalar_product_opIddEEKNS_14CwiseNullaryOpINS0_18scalar_constant_opIdEEKNS_6MatrixIdLin1ELi1ELi0ELin1ELi1EEEEESC_EEKNS2_IS6_SE_KNS7_IS9_SB_EEEEEEED2Ev"
 "_ZN5Eigen8internal14evaluator_baseINS_13CwiseBinaryOpINS0_13scalar_sum_opIddEEKNS2_INS0_17scalar_product_opIddEEKNS_14CwiseNullaryOpINS0_18scalar_constant_opIdEEKNS_6MatrixIdLin1ELin1ELi0ELin1ELin1EEEEESC_EEKNS2_IS6_SE_KNS7_INS0_18scalar_identity_opIdEESB_EEEEEEEC2Ev"
 "_ZN5Eigen8internal14evaluator_baseINS_13CwiseBinaryOpINS0_13scalar_sum_opIddEEKNS2_INS0_17scalar_product_opIddEEKNS_14CwiseNullaryOpINS0_18scalar_constant_opIdEEKNS_6MatrixIdLin1ELin1ELi0ELin1ELin1EEEEESC_EEKNS2_IS6_SE_KNS7_INS0_18scalar_identity_opIdEESB_EEEEEEED2Ev"
 "_ZN5Eigen8internal14evaluator_baseINS_13CwiseBinaryOpINS0_13scalar_sum_opIddEEKNS_14CwiseNullaryOpINS0_18scalar_constant_opIdEEKNS_5ArrayIdLin1ELi1ELi0ELin1ELi1EEEEEKNS_12ArrayWrapperIKNS_6MatrixIdLin1ELi1ELi0ELin1ELi1EEEEEEEEC2Ev"
 "_ZN5Eigen8internal14evaluator_baseINS_13CwiseBinaryOpINS0_13scalar_sum_opIddEEKNS_14CwiseNullaryOpINS0_18scalar_constant_opIdEEKNS_5ArrayIdLin1ELi1ELi0ELin1ELi1EEEEEKNS_12ArrayWrapperIKNS_6MatrixIdLin1ELi1ELi0ELin1ELi1EEEEEEEED2Ev"
 "_ZN5Eigen8internal14evaluator_baseINS_13CwiseBinaryOpINS0_13scalar_sum_opIddEEKNS_6MatrixIdLin1ELi1ELi0ELin1ELi1EEEKNS2_INS0_17scalar_product_opIddEEKNS_14CwiseNullaryOpINS0_18scalar_constant_opIdEES7_EES7_EEEEEC2Ev"
 "_ZN5Eigen8internal14evaluator_baseINS_13CwiseBinaryOpINS0_13scalar_sum_opIddEEKNS_6MatrixIdLin1ELi1ELi0ELin1ELi1EEEKNS2_INS0_17scalar_product_opIddEEKNS_14CwiseNullaryOpINS0_18scalar_constant_opIdEES7_EES7_EEEEED2Ev"
 "_ZN5Eigen8internal14evaluator_baseINS_13CwiseBinaryOpINS0_13scalar_sum_opIddEEKNS_7ProductINS_6MatrixIdLin1ELin1ELi0ELin1ELin1EEENS6_IdLin1ELi1ELi0ELin1ELi1EEELi0EEEKS8_EEEC2Ev"
 "_ZN5Eigen8internal14evaluator_baseINS_13CwiseBinaryOpINS0_13scalar_sum_opIddEEKNS_7ProductINS_6MatrixIdLin1ELin1ELi0ELin1ELin1EEENS6_IdLin1ELi1ELi0ELin1ELi1EEELi0EEEKS8_EEED2Ev"
 "_ZN5Eigen8internal14evaluator_baseINS_13CwiseBinaryOpINS0_17scalar_product_opIN4stan4math3varES6_EEKNS_6MatrixIS6_Lin1ELi1ELi0ELin1ELi1EEESA_EEEC2Ev"
 "_ZN5Eigen8internal14evaluator_baseINS_13CwiseBinaryOpINS0_17scalar_product_opIN4stan4math3varES6_EEKNS_6MatrixIS6_Lin1ELi1ELi0ELin1ELi1EEESA_EEED2Ev"
 "_ZN5Eigen8internal14evaluator_baseINS_13CwiseBinaryOpINS0_17scalar_product_opIddEEKNS_12ArrayWrapperIKNS_6MatrixIdLin1ELi1ELi0ELin1ELi1EEEEEKNS_12CwiseUnaryOpINS0_13scalar_exp_opIdEESA_EEEEEC2Ev"
 "_ZN5Eigen8internal14evaluator_baseINS_13CwiseBinaryOpINS0_17scalar_product_opIddEEKNS_12ArrayWrapperIKNS_6MatrixIdLin1ELi1ELi0ELin1ELi1EEEEEKNS_12CwiseUnaryOpINS0_13scalar_exp_opIdEESA_EEEEED2Ev"
 "_ZN5Eigen8internal14evaluator_baseINS_13CwiseBinaryOpINS0_17scalar_product_opIddEEKNS_12ArrayWrapperINS_6MatrixIdLin1ELi1ELi0ELin1ELi1EEEEEKNS_12CwiseUnaryOpINS0_13scalar_exp_opIdEEKNS5_IKS7_EEEEEEED2Ev"
 "_ZN5Eigen8internal14evaluator_baseINS_13CwiseBinaryOpINS0_17scalar_product_opIddEEKNS_12ArrayWrapperINS_6MatrixIdLin1ELi1ELi0ELin1ELi1EEEEES9_EEED2Ev"
 "_ZN5Eigen8internal14evaluator_baseINS_13CwiseBinaryOpINS0_17scalar_product_opIddEEKNS_14CwiseNullaryOpINS0_18scalar_constant_opIdEEKNS_6MatrixIdLi1ELin1ELi1ELi1ELin1EEEEESA_EEEC2Ev"
 "_ZN5Eigen8internal14evaluator_baseINS_13CwiseBinaryOpINS0_17scalar_product_opIddEEKNS_14CwiseNullaryOpINS0_18scalar_constant_opIdEEKNS_6MatrixIdLi1ELin1ELi1ELi1ELin1EEEEESA_EEED2Ev"
 "_ZN5Eigen8internal14evaluator_baseINS_13CwiseBinaryOpINS0_17scalar_product_opIddEEKNS_14CwiseNullaryOpINS0_18scalar_constant_opIdEEKNS_6MatrixIdLin1ELi1ELi0ELin1ELi1EEEEEKNS5_IS7_S9_EEEEEC2Ev"
 "_ZN5Eigen8internal14evaluator_baseINS_13CwiseBinaryOpINS0_17scalar_product_opIddEEKNS_14CwiseNullaryOpINS0_18scalar_constant_opIdEEKNS_6MatrixIdLin1ELi1ELi0ELin1ELi1EEEEEKNS5_IS7_S9_EEEEED2Ev"
 "_ZN5Eigen8internal14evaluator_baseINS_13CwiseBinaryOpINS0_17scalar_product_opIddEEKNS_14CwiseNullaryOpINS0_18scalar_constant_opIdEEKNS_6MatrixIdLin1ELi1ELi0ELin1ELi1EEEEEKNS_5BlockIKNSD_INSD_INS8_IdLin1ELin1ELi0ELin1ELin1EEELin1ELi1ELb1EEELin1ELi1ELb0EEELin1ELi1ELb0EEEEEED2Ev"
 "_ZN5Eigen8internal14evaluator_baseINS_13CwiseBinaryOpINS0_17scalar_product_opIddEEKNS_14CwiseNullaryOpINS0_18scalar_constant_opIdEEKNS_6MatrixIdLin1ELi1ELi0ELin1ELi1EEEEEKNS_5BlockIKNSD_IS9_Lin1ELi1ELb0EEELin1ELi1ELb0EEEEEED2Ev"
 "_ZN5Eigen8internal14evaluator_baseINS_13CwiseBinaryOpINS0_17scalar_product_opIddEEKNS_14CwiseNullaryOpINS0_18scalar_constant_opIdEEKNS_6MatrixIdLin1ELi1ELi0ELin1ELi1EEEEEKNS_5BlockINSD_INS8_IdLin1ELin1ELi0ELin1ELin1EEELin1ELi1ELb1EEELin1ELi1ELb0EEEEEEC2Ev"
 "_ZN5Eigen8internal14evaluator_baseINS_13CwiseBinaryOpINS0_17scalar_product_opIddEEKNS_14CwiseNullaryOpINS0_18scalar_constant_opIdEEKNS_6MatrixIdLin1ELi1ELi0ELin1ELi1EEEEEKNS_5BlockINSD_INS8_IdLin1ELin1ELi0ELin1ELin1EEELin1ELi1ELb1EEELin1ELi1ELb0EEEEEED2Ev"
 "_ZN5Eigen8internal14evaluator_baseINS_13CwiseBinaryOpINS0_17scalar_product_opIddEEKNS_14CwiseNullaryOpINS0_18scalar_constant_opIdEEKNS_6MatrixIdLin1ELi1ELi0ELin1ELi1EEEEESA_EEEC2Ev"
 "_ZN5Eigen8internal14evaluator_baseINS_13CwiseBinaryOpINS0_17scalar_product_opIddEEKNS_14CwiseNullaryOpINS0_18scalar_constant_opIdEEKNS_6MatrixIdLin1ELi1ELi0ELin1ELi1EEEEESA_EEED2Ev"
 "_ZN5Eigen8internal14evaluator_baseINS_13CwiseBinaryOpINS0_17scalar_product_opIddEEKNS_14CwiseNullaryOpINS0_18scalar_constant_opIdEEKNS_6MatrixIdLin1ELin1ELi0ELin1ELin1EEEEEKNS5_INS0_18scalar_identity_opIdEES9_EEEEEC2Ev"
 "_ZN5Eigen8internal14evaluator_baseINS_13CwiseBinaryOpINS0_17scalar_product_opIddEEKNS_14CwiseNullaryOpINS0_18scalar_constant_opIdEEKNS_6MatrixIdLin1ELin1ELi0ELin1ELin1EEEEEKNS5_INS0_18scalar_identity_opIdEES9_EEEEED2Ev"
 "_ZN5Eigen8internal14evaluator_baseINS_13CwiseBinaryOpINS0_17scalar_product_opIddEEKNS_14CwiseNullaryOpINS0_18scalar_constant_opIdEEKNS_6MatrixIdLin1ELin1ELi0ELin1ELin1EEEEESA_EEEC2Ev"
 "_ZN5Eigen8internal14evaluator_baseINS_13CwiseBinaryOpINS0_17scalar_product_opIddEEKNS_14CwiseNullaryOpINS0_18scalar_constant_opIdEEKNS_6MatrixIdLin1ELin1ELi0ELin1ELin1EEEEESA_EEED2Ev"
 "_ZN5Eigen8internal14evaluator_baseINS_13CwiseBinaryOpINS0_17scalar_product_opIddEEKNS_6MatrixIdLin1ELi1ELi0ELin1ELi1EEEKNS2_INS0_20scalar_difference_opIddEES7_S7_EEEEEC2Ev"
 "_ZN5Eigen8internal14evaluator_baseINS_13CwiseBinaryOpINS0_17scalar_product_opIddEEKNS_6MatrixIdLin1ELi1ELi0ELin1ELi1EEEKNS2_INS0_20scalar_difference_opIddEES7_S7_EEEEED2Ev"
 "_ZN5Eigen8internal14evaluator_baseINS_13CwiseBinaryOpINS0_17scalar_product_opIddEEKNS_6MatrixIdLin1ELi1ELi0ELin1ELi1EEES7_EEEC2Ev"
 "_ZN5Eigen8internal14evaluator_baseINS_13CwiseBinaryOpINS0_17scalar_product_opIddEEKNS_6MatrixIdLin1ELi1ELi0ELin1ELi1EEES7_EEED2Ev"
 "_ZN5Eigen8internal14evaluator_baseINS_13CwiseBinaryOpINS0_17scalar_product_opIddEEKNS_9TransposeIKNS_3MapINS_6MatrixIdLi1ELin1ELi1ELi1ELin1EEELi0ENS_6StrideILi0ELi0EEEEEEEKNS6_INS7_IdLin1ELi1ELi0ELin1ELi1EEELi0ESA_EEEEED2Ev"
 "_ZN5Eigen8internal14evaluator_baseINS_13CwiseBinaryOpINS0_17scalar_product_opIddEEKNS_9TransposeIKNS_5BlockINS_6MatrixIdLin1ELin1ELi0ELin1ELin1EEELi1ELin1ELb0EEEEEKNS6_INS7_IdLin1ELi1ELi0ELin1ELi1EEELin1ELi1ELb0EEEEEED2Ev"
 "_ZN5Eigen8internal14evaluator_baseINS_13CwiseBinaryOpINS0_18scalar_quotient_opIdN4stan4math3varEEEKNS_14CwiseNullaryOpINS0_18scalar_constant_opIdEEKNS_5ArrayIdLin1ELi1ELi0ELin1ELi1EEEEEKNS_12ArrayWrapperIKNS_6MatrixIS6_Lin1ELi1ELi0ELin1ELi1EEEEEEEEC2Ev"
 "_ZN5Eigen8internal14evaluator_baseINS_13CwiseBinaryOpINS0_18scalar_quotient_opIdN4stan4math3varEEEKNS_14CwiseNullaryOpINS0_18scalar_constant_opIdEEKNS_5ArrayIdLin1ELi1ELi0ELin1ELi1EEEEEKNS_12ArrayWrapperIKNS_6MatrixIS6_Lin1ELi1ELi0ELin1ELi1EEEEEEEED2Ev"
 "_ZN5Eigen8internal14evaluator_baseINS_13CwiseBinaryOpINS0_18scalar_quotient_opIddEEKNS_14CwiseNullaryOpINS0_18scalar_constant_opIdEEKNS_5ArrayIdLin1ELi1ELi0ELin1ELi1EEEEEKNS_12ArrayWrapperIKNS_6MatrixIdLin1ELi1ELi0ELin1ELi1EEEEEEEEC2Ev"
 "_ZN5Eigen8internal14evaluator_baseINS_13CwiseBinaryOpINS0_18scalar_quotient_opIddEEKNS_14CwiseNullaryOpINS0_18scalar_constant_opIdEEKNS_5ArrayIdLin1ELi1ELi0ELin1ELi1EEEEEKNS_12ArrayWrapperIKNS_6MatrixIdLin1ELi1ELi0ELin1ELi1EEEEEEEED2Ev"
 "_ZN5Eigen8internal14evaluator_baseINS_13CwiseBinaryOpINS0_18scalar_quotient_opIddEEKNS_5BlockIKNS5_INS5_INS_6MatrixIdLin1ELin1ELi0ELin1ELin1EEELin1ELi1ELb1EEELin1ELi1ELb0EEELin1ELi1ELb0EEEKNS_14CwiseNullaryOpINS0_18scalar_constant_opIdEEKNS6_IdLin1ELi1ELi0ELin1ELi1EEEEEEEED2Ev"
 "_ZN5Eigen8internal14evaluator_baseINS_13CwiseBinaryOpINS0_18scalar_quotient_opIddEEKNS_6MatrixIdLin1ELi1ELi0ELin1ELi1EEEKNS_14CwiseNullaryOpINS0_18scalar_constant_opIdEES7_EEEEEC2Ev"
 "_ZN5Eigen8internal14evaluator_baseINS_13CwiseBinaryOpINS0_18scalar_quotient_opIddEEKNS_6MatrixIdLin1ELi1ELi0ELin1ELi1EEEKNS_14CwiseNullaryOpINS0_18scalar_constant_opIdEES7_EEEEED2Ev"
 "_ZN5Eigen8internal14evaluator_baseINS_13CwiseBinaryOpINS0_18scalar_quotient_opIddEEKNS_6MatrixIdLin1ELin1ELi0ELin1ELin1EEEKNS_14CwiseNullaryOpINS0_18scalar_constant_opIdEES7_EEEEEC2Ev"
 "_ZN5Eigen8internal14evaluator_baseINS_13CwiseBinaryOpINS0_18scalar_quotient_opIddEEKNS_6MatrixIdLin1ELin1ELi0ELin1ELin1EEEKNS_14CwiseNullaryOpINS0_18scalar_constant_opIdEES7_EEEEED2Ev"
 "_ZN5Eigen8internal14evaluator_baseINS_13CwiseBinaryOpINS0_20scalar_difference_opIN4stan4math3varES6_EEKNS_14CwiseNullaryOpINS0_18scalar_constant_opIS6_EEKNS_5ArrayIS6_Lin1ELi1ELi0ELin1ELi1EEEEEKNS_12ArrayWrapperIKNS_6MatrixIS6_Lin1ELi1ELi0ELin1ELi1EEEEEEEEC2Ev"
 "_ZN5Eigen8internal14evaluator_baseINS_13CwiseBinaryOpINS0_20scalar_difference_opIN4stan4math3varES6_EEKNS_14CwiseNullaryOpINS0_18scalar_constant_opIS6_EEKNS_5ArrayIS6_Lin1ELi1ELi0ELin1ELi1EEEEEKNS_12ArrayWrapperIKNS_6MatrixIS6_Lin1ELi1ELi0ELin1ELi1EEEEEEEED2Ev"
 "_ZN5Eigen8internal14evaluator_baseINS_13CwiseBinaryOpINS0_20scalar_difference_opIN4stan4math3varEdEEKNS_6MatrixIS6_Lin1ELi1ELi0ELin1ELi1EEEKNS8_IdLin1ELi1ELi0ELin1ELi1EEEEEEC2Ev"
 "_ZN5Eigen8internal14evaluator_baseINS_13CwiseBinaryOpINS0_20scalar_difference_opIN4stan4math3varEdEEKNS_6MatrixIS6_Lin1ELi1ELi0ELin1ELi1EEEKNS8_IdLin1ELi1ELi0ELin1ELi1EEEEEED2Ev"
 "_ZN5Eigen8internal14evaluator_baseINS_13CwiseBinaryOpINS0_20scalar_difference_opIddEEKNS_14CwiseNullaryOpINS0_18scalar_constant_opIdEEKNS_5ArrayIdLin1ELi1ELi0ELin1ELi1EEEEEKNS_12ArrayWrapperIKNS_6MatrixIdLin1ELi1ELi0ELin1ELi1EEEEEEEEC2Ev"
 "_ZN5Eigen8internal14evaluator_baseINS_13CwiseBinaryOpINS0_20scalar_difference_opIddEEKNS_14CwiseNullaryOpINS0_18scalar_constant_opIdEEKNS_5ArrayIdLin1ELi1ELi0ELin1ELi1EEEEEKNS_12ArrayWrapperIKNS_6MatrixIdLin1ELi1ELi0ELin1ELi1EEEEEEEED2Ev"
 "_ZN5Eigen8internal14evaluator_baseINS_13CwiseBinaryOpINS0_20scalar_difference_opIddEEKNS_6MatrixIdLin1ELi1ELi0ELin1ELi1EEES7_EEEC2Ev"
 "_ZN5Eigen8internal14evaluator_baseINS_13CwiseBinaryOpINS0_20scalar_difference_opIddEEKNS_6MatrixIdLin1ELi1ELi0ELin1ELi1EEES7_EEED2Ev"
 "_ZN5Eigen8internal14evaluator_baseINS_13CwiseBinaryOpINS0_22scalar_conj_product_opIddEEKNS_5BlockINS_6MatrixIdLin1ELi1ELi0ELin1ELi1EEELin1ELi1ELb0EEEKNS5_INS5_INS6_IdLin1ELin1ELi0ELin1ELin1EEELin1ELi1ELb1EEELin1ELi1ELb0EEEEEEC2Ev"
 "_ZN5Eigen8internal14evaluator_baseINS_13CwiseBinaryOpINS0_22scalar_conj_product_opIddEEKNS_5BlockINS_6MatrixIdLin1ELi1ELi0ELin1ELi1EEELin1ELi1ELb0EEEKNS5_INS5_INS6_IdLin1ELin1ELi0ELin1ELin1EEELin1ELi1ELb1EEELin1ELi1ELb0EEEEEED2Ev"
 "_ZN5Eigen8internal14evaluator_baseINS_13CwiseBinaryOpINS0_22scalar_conj_product_opIddEEKNS_6MatrixIdLin1ELi1ELi0ELin1ELi1EEES7_EEEC2Ev"
 "_ZN5Eigen8internal14evaluator_baseINS_13CwiseBinaryOpINS0_22scalar_conj_product_opIddEEKNS_6MatrixIdLin1ELi1ELi0ELin1ELi1EEES7_EEED2Ev"
 "_ZN5Eigen8internal14evaluator_baseINS_13CwiseBinaryOpINS0_22scalar_conj_product_opIddEEKNS_9TransposeIKNS_6MatrixIdLi1ELin1ELi1ELi1ELin1EEEEEKNS6_IdLin1ELi1ELi0ELin1ELi1EEEEEEC2Ev"
 "_ZN5Eigen8internal14evaluator_baseINS_13CwiseBinaryOpINS0_22scalar_conj_product_opIddEEKNS_9TransposeIKNS_6MatrixIdLi1ELin1ELi1ELi1ELin1EEEEEKNS6_IdLin1ELi1ELi0ELin1ELi1EEEEEED2Ev"
 "_ZN5Eigen8internal14evaluator_baseINS_14CwiseNullaryOpINS0_18scalar_constant_opIN4stan4math3varEEEKNS_5ArrayIS6_Lin1ELi1ELi0ELin1ELi1EEEEEED2Ev"
 "_ZN5Eigen8internal14evaluator_baseINS_14CwiseNullaryOpINS0_18scalar_constant_opIN4stan4math3varEEENS_6MatrixIS6_Lin1ELi1ELi0ELin1ELi1EEEEEED2Ev"
 "_ZN5Eigen8internal14evaluator_baseINS_14CwiseNullaryOpINS0_18scalar_constant_opIdEEKNS_5ArrayIdLin1ELi1ELi0ELin1ELi1EEEEEEC2Ev"
 "_ZN5Eigen8internal14evaluator_baseINS_14CwiseNullaryOpINS0_18scalar_constant_opIdEEKNS_5ArrayIdLin1ELi1ELi0ELin1ELi1EEEEEED2Ev"
 "_ZN5Eigen8internal14evaluator_baseINS_14CwiseNullaryOpINS0_18scalar_constant_opIdEEKNS_6MatrixIdLi1ELin1ELi1ELi1ELin1EEEEEED2Ev"
 "_ZN5Eigen8internal14evaluator_baseINS_14CwiseNullaryOpINS0_18scalar_constant_opIdEEKNS_6MatrixIdLin1ELi1ELi0ELin1ELi1EEEEEEC2Ev"
 "_ZN5Eigen8internal14evaluator_baseINS_14CwiseNullaryOpINS0_18scalar_constant_opIdEEKNS_6MatrixIdLin1ELi1ELi0ELin1ELi1EEEEEED2Ev"
 "_ZN5Eigen8internal14evaluator_baseINS_14CwiseNullaryOpINS0_18scalar_constant_opIdEEKNS_6MatrixIdLin1ELin1ELi0ELin1ELin1EEEEEEC2Ev"
 "_ZN5Eigen8internal14evaluator_baseINS_14CwiseNullaryOpINS0_18scalar_constant_opIdEEKNS_6MatrixIdLin1ELin1ELi0ELin1ELin1EEEEEED2Ev"
 "_ZN5Eigen8internal14evaluator_baseINS_14CwiseNullaryOpINS0_18scalar_constant_opIdEENS_5ArrayIdLin1ELi1ELi0ELin1ELi1EEEEEEC2Ev"
 "_ZN5Eigen8internal14evaluator_baseINS_14CwiseNullaryOpINS0_18scalar_constant_opIdEENS_5ArrayIdLin1ELi1ELi0ELin1ELi1EEEEEED2Ev"
 "_ZN5Eigen8internal14evaluator_baseINS_14CwiseNullaryOpINS0_18scalar_constant_opIdEENS_5ArrayIdLin1ELin1ELi0ELin1ELin1EEEEEEC2Ev"
 "_ZN5Eigen8internal14evaluator_baseINS_14CwiseNullaryOpINS0_18scalar_constant_opIdEENS_5ArrayIdLin1ELin1ELi0ELin1ELin1EEEEEED2Ev"
 "_ZN5Eigen8internal14evaluator_baseINS_14CwiseNullaryOpINS0_18scalar_constant_opIdEENS_6MatrixIdLi4ELi4ELi0ELi4ELi4EEEEEEC2Ev"
 "_ZN5Eigen8internal14evaluator_baseINS_14CwiseNullaryOpINS0_18scalar_constant_opIdEENS_6MatrixIdLi4ELi4ELi0ELi4ELi4EEEEEED2Ev"
 "_ZN5Eigen8internal14evaluator_baseINS_14CwiseNullaryOpINS0_18scalar_constant_opIdEENS_6MatrixIdLin1ELi1ELi0ELin1ELi1EEEEEEC2Ev"
 "_ZN5Eigen8internal14evaluator_baseINS_14CwiseNullaryOpINS0_18scalar_constant_opIdEENS_6MatrixIdLin1ELi1ELi0ELin1ELi1EEEEEED2Ev"
 "_ZN5Eigen8internal14evaluator_baseINS_14CwiseNullaryOpINS0_18scalar_constant_opIdEENS_6MatrixIdLin1ELin1ELi0ELin1ELin1EEEEEEC2Ev"
 "_ZN5Eigen8internal14evaluator_baseINS_14CwiseNullaryOpINS0_18scalar_constant_opIdEENS_6MatrixIdLin1ELin1ELi0ELin1ELin1EEEEEED2Ev"
 "_ZN5Eigen8internal14evaluator_baseINS_14CwiseNullaryOpINS0_18scalar_identity_opIdEENS_6MatrixIdLin1ELin1ELi0ELin1ELin1EEEEEEC2Ev"
 "_ZN5Eigen8internal14evaluator_baseINS_14CwiseNullaryOpINS0_18scalar_identity_opIdEENS_6MatrixIdLin1ELin1ELi0ELin1ELin1EEEEEED2Ev"
 "_ZN5Eigen8internal14evaluator_baseINS_14CwiseUnaryViewINS_10MatrixBaseINS_3MapINS_6MatrixIPN4stan4math4variELin1ELi1ELi0ELin1ELi1EEELi0ENS_6StrideILi0ELi0EEEEEE6adj_OpESD_EEEC2Ev"
 "_ZN5Eigen8internal14evaluator_baseINS_14CwiseUnaryViewINS_10MatrixBaseINS_3MapINS_6MatrixIPN4stan4math4variELin1ELi1ELi0ELin1ELi1EEELi0ENS_6StrideILi0ELi0EEEEEE6adj_OpESD_EEED2Ev"
 "_ZN5Eigen8internal14evaluator_baseINS_14CwiseUnaryViewINS_10MatrixBaseINS_3MapINS_6MatrixIPN4stan4math4variELin1ELin1ELi0ELin1ELin1EEELi0ENS_6StrideILi0ELi0EEEEEE6adj_OpESD_EEEC2Ev"
 "_ZN5Eigen8internal14evaluator_baseINS_14CwiseUnaryViewINS_10MatrixBaseINS_3MapINS_6MatrixIPN4stan4math4variELin1ELin1ELi0ELin1ELin1EEELi0ENS_6StrideILi0ELi0EEEEEE6adj_OpESD_EEED2Ev"
 "_ZN5Eigen8internal14evaluator_baseINS_14CwiseUnaryViewINS_10MatrixBaseINS_6MatrixIN4stan4math3varELin1ELi1ELi0ELin1ELi1EEEE5vi_OpES8_EEEC2Ev"
 "_ZN5Eigen8internal14evaluator_baseINS_14CwiseUnaryViewINS_10MatrixBaseINS_6MatrixIN4stan4math3varELin1ELi1ELi0ELin1ELi1EEEE5vi_OpES8_EEED2Ev"
 "_ZN5Eigen8internal14evaluator_baseINS_14CwiseUnaryViewINS_10MatrixBaseINS_6MatrixIN4stan4math3varELin1ELi1ELi0ELin1ELi1EEEE6adj_OpES8_EEEC2Ev"
 "_ZN5Eigen8internal14evaluator_baseINS_14CwiseUnaryViewINS_10MatrixBaseINS_6MatrixIN4stan4math3varELin1ELi1ELi0ELin1ELi1EEEE6adj_OpES8_EEED2Ev"
 "_ZN5Eigen8internal14evaluator_baseINS_3MapIKNS_6MatrixIdLin1ELin1ELi0ELin1ELin1EEELi0ENS_6StrideILi0ELi0EEEEEEC2Ev"
 "_ZN5Eigen8internal14evaluator_baseINS_3MapIKNS_6MatrixIdLin1ELin1ELi0ELin1ELin1EEELi0ENS_6StrideILi0ELi0EEEEEED2Ev"
 "_ZN5Eigen8internal14evaluator_baseINS_3MapINS_6MatrixIN4stan4math3varELin1ELi1ELi0ELin1ELi1EEELi0ENS_6StrideILi0ELi0EEEEEEC2Ev"
 "_ZN5Eigen8internal14evaluator_baseINS_3MapINS_6MatrixIN4stan4math3varELin1ELi1ELi0ELin1ELi1EEELi0ENS_6StrideILi0ELi0EEEEEED2Ev"
 "_ZN5Eigen8internal14evaluator_baseINS_3MapINS_6MatrixIPN4stan4math4variELin1ELi1ELi0ELin1ELi1EEELi0ENS_6StrideILi0ELi0EEEEEEC2Ev"
 "_ZN5Eigen8internal14evaluator_baseINS_3MapINS_6MatrixIPN4stan4math4variELin1ELi1ELi0ELin1ELi1EEELi0ENS_6StrideILi0ELi0EEEEEED2Ev"
 "_ZN5Eigen8internal14evaluator_baseINS_3MapINS_6MatrixIPN4stan4math4variELin1ELin1ELi0ELin1ELin1EEELi0ENS_6StrideILi0ELi0EEEEEEC2Ev"
 "_ZN5Eigen8internal14evaluator_baseINS_3MapINS_6MatrixIPN4stan4math4variELin1ELin1ELi0ELin1ELin1EEELi0ENS_6StrideILi0ELi0EEEEEED2Ev"
 "_ZN5Eigen8internal14evaluator_baseINS_3MapINS_6MatrixIdLi1ELin1ELi1ELi1ELin1EEELi0ENS_6StrideILi0ELi0EEEEEEC2Ev"
 "_ZN5Eigen8internal14evaluator_baseINS_3MapINS_6MatrixIdLi1ELin1ELi1ELi1ELin1EEELi0ENS_6StrideILi0ELi0EEEEEED2Ev"
 "_ZN5Eigen8internal14evaluator_baseINS_3MapINS_6MatrixIdLin1ELi1ELi0ELin1ELi1EEELi0ENS_6StrideILi0ELi0EEEEEEC2Ev"
 "_ZN5Eigen8internal14evaluator_baseINS_3MapINS_6MatrixIdLin1ELi1ELi0ELin1ELi1EEELi0ENS_6StrideILi0ELi0EEEEEED2Ev"
 "_ZN5Eigen8internal14evaluator_baseINS_3MapINS_6MatrixIdLin1ELin1ELi0ELin1ELin1EEELi0ENS_6StrideILi0ELi0EEEEEEC2Ev"
 "_ZN5Eigen8internal14evaluator_baseINS_3MapINS_6MatrixIdLin1ELin1ELi0ELin1ELin1EEELi0ENS_6StrideILi0ELi0EEEEEED2Ev"
 "_ZN5Eigen8internal14evaluator_baseINS_5BlockIKNS2_INS2_INS_6MatrixIdLin1ELin1ELi0ELin1ELin1EEELin1ELi1ELb1EEELin1ELi1ELb0EEELin1ELi1ELb0EEEED2Ev"
 "_ZN5Eigen8internal14evaluator_baseINS_5BlockIKNS2_INS_6MatrixIdLin1ELi1ELi0ELin1ELi1EEELin1ELi1ELb0EEELin1ELi1ELb0EEEED2Ev"
 "_ZN5Eigen8internal14evaluator_baseINS_5BlockIKNS_6MatrixIdLin1ELin1ELi0ELin1ELin1EEELi1ELin1ELb0EEEEC2Ev"
 "_ZN5Eigen8internal14evaluator_baseINS_5BlockIKNS_6MatrixIdLin1ELin1ELi0ELin1ELin1EEELi1ELin1ELb0EEEED2Ev"
 "_ZN5Eigen8internal14evaluator_baseINS_5BlockIKNS_6MatrixIdLin1ELin1ELi0ELin1ELin1EEELin1ELi1ELb1EEEEC2Ev"
 "_ZN5Eigen8internal14evaluator_baseINS_5BlockIKNS_6MatrixIdLin1ELin1ELi0ELin1ELin1EEELin1ELi1ELb1EEEED2Ev"
 "_ZN5Eigen8internal14evaluator_baseINS_5BlockINS2_INS2_INS_6MatrixIdLin1ELin1ELi0ELin1ELin1EEELin1ELi1ELb1EEELin1ELi1ELb0EEELin1ELi1ELb0EEEED2Ev"
 "_ZN5Eigen8internal14evaluator_baseINS_5BlockINS2_INS_6MatrixIdLin1ELin1ELi0ELin1ELin1EEELi1ELin1ELb0EEELi1ELin1ELb0EEEEC2Ev"
 "_ZN5Eigen8internal14evaluator_baseINS_5BlockINS2_INS_6MatrixIdLin1ELin1ELi0ELin1ELin1EEELi1ELin1ELb0EEELi1ELin1ELb0EEEED2Ev"
 "_ZN5Eigen8internal14evaluator_baseINS_5BlockINS2_INS_6MatrixIdLin1ELin1ELi0ELin1ELin1EEELin1ELi1ELb1EEELin1ELi1ELb0EEEEC2Ev"
 "_ZN5Eigen8internal14evaluator_baseINS_5BlockINS2_INS_6MatrixIdLin1ELin1ELi0ELin1ELin1EEELin1ELi1ELb1EEELin1ELi1ELb0EEEED2Ev"
 "_ZN5Eigen8internal14evaluator_baseINS_5BlockINS2_INS_6MatrixIdLin1ELin1ELi0ELin1ELin1EEELin1ELin1ELb0EEELi1ELin1ELb0EEEEC2Ev"
 "_ZN5Eigen8internal14evaluator_baseINS_5BlockINS2_INS_6MatrixIdLin1ELin1ELi0ELin1ELin1EEELin1ELin1ELb0EEELi1ELin1ELb0EEEED2Ev"
 "_ZN5Eigen8internal14evaluator_baseINS_5BlockINS2_INS_6MatrixIdLin1ELin1ELi0ELin1ELin1EEELin1ELin1ELb0EEELin1ELi1ELb0EEEEC2Ev"
 "_ZN5Eigen8internal14evaluator_baseINS_5BlockINS2_INS_6MatrixIdLin1ELin1ELi0ELin1ELin1EEELin1ELin1ELb0EEELin1ELi1ELb0EEEED2Ev"
 "_ZN5Eigen8internal14evaluator_baseINS_5BlockINS_6MatrixIdLin1ELi1ELi0ELin1ELi1EEELin1ELi1ELb0EEEEC2Ev"
 "_ZN5Eigen8internal14evaluator_baseINS_5BlockINS_6MatrixIdLin1ELi1ELi0ELin1ELi1EEELin1ELi1ELb0EEEED2Ev"
 "_ZN5Eigen8internal14evaluator_baseINS_5BlockINS_6MatrixIdLin1ELin1ELi0ELin1ELin1EEELi1ELin1ELb0EEEEC2Ev"
 "_ZN5Eigen8internal14evaluator_baseINS_5BlockINS_6MatrixIdLin1ELin1ELi0ELin1ELin1EEELi1ELin1ELb0EEEED2Ev"
 "_ZN5Eigen8internal14evaluator_baseINS_5BlockINS_6MatrixIdLin1ELin1ELi0ELin1ELin1EEELin1ELi1ELb0EEEEC2Ev"
 "_ZN5Eigen8internal14evaluator_baseINS_5BlockINS_6MatrixIdLin1ELin1ELi0ELin1ELin1EEELin1ELi1ELb0EEEED2Ev"
 "_ZN5Eigen8internal14evaluator_baseINS_5BlockINS_6MatrixIdLin1ELin1ELi0ELin1ELin1EEELin1ELi1ELb1EEEEC2Ev"
 "_ZN5Eigen8internal14evaluator_baseINS_5BlockINS_6MatrixIdLin1ELin1ELi0ELin1ELin1EEELin1ELi1ELb1EEEED2Ev"
 "_ZN5Eigen8internal14evaluator_baseINS_5BlockINS_6MatrixIdLin1ELin1ELi0ELin1ELin1EEELin1ELin1ELb0EEEEC2Ev"
 "_ZN5Eigen8internal14evaluator_baseINS_5BlockINS_6MatrixIdLin1ELin1ELi0ELin1ELin1EEELin1ELin1ELb0EEEED2Ev"
 "_ZN5Eigen8internal14evaluator_baseINS_5BlockINS_8DiagonalINS_6MatrixIdLin1ELin1ELi0ELin1ELin1EEELi0EEELin1ELi1ELb0EEEEC2Ev"
 "_ZN5Eigen8internal14evaluator_baseINS_5BlockINS_8DiagonalINS_6MatrixIdLin1ELin1ELi0ELin1ELin1EEELi0EEELin1ELi1ELb0EEEED2Ev"
 "_ZN5Eigen8internal14evaluator_baseINS_6MatrixIN4stan4math3varELin1ELi1ELi0ELin1ELi1EEEEC2Ev"
 "_ZN5Eigen8internal14evaluator_baseINS_6MatrixIN4stan4math3varELin1ELi1ELi0ELin1ELi1EEEED2Ev"
 "_ZN5Eigen8internal14evaluator_baseINS_6MatrixIdLi1ELi1ELi0ELi1ELi1EEEEC2Ev"
 "_ZN5Eigen8internal14evaluator_baseINS_6MatrixIdLi1ELi1ELi0ELi1ELi1EEEED2Ev"
 "_ZN5Eigen8internal14evaluator_baseINS_6MatrixIdLi1ELin1ELi1ELi1ELin1EEEEC2Ev"
 "_ZN5Eigen8internal14evaluator_baseINS_6MatrixIdLi1ELin1ELi1ELi1ELin1EEEED2Ev"
 "_ZN5Eigen8internal14evaluator_baseINS_6MatrixIdLi4ELi4ELi0ELi4ELi4EEEEC2Ev"
 "_ZN5Eigen8internal14evaluator_baseINS_6MatrixIdLi4ELi4ELi0ELi4ELi4EEEED2Ev"
 "_ZN5Eigen8internal14evaluator_baseINS_6MatrixIdLin1ELi1ELi0ELin1ELi1EEEEC2Ev"
 "_ZN5Eigen8internal14evaluator_baseINS_6MatrixIdLin1ELi1ELi0ELin1ELi1EEEED2Ev"
 "_ZN5Eigen8internal14evaluator_baseINS_6MatrixIdLin1ELin1ELi0ELin1ELin1EEEEC2Ev"
 "_ZN5Eigen8internal14evaluator_baseINS_6MatrixIdLin1ELin1ELi0ELin1ELin1EEEED2Ev"
 "_ZN5Eigen8internal14evaluator_baseINS_6MatrixIdLin1ELin1ELi1ELin1ELin1EEEEC2Ev"
 "_ZN5Eigen8internal14evaluator_baseINS_6MatrixIdLin1ELin1ELi1ELin1ELin1EEEED2Ev"
 "_ZN5Eigen8internal14evaluator_baseINS_7ProductINS_13CwiseBinaryOpINS0_17scalar_product_opIddEEKNS_14CwiseNullaryOpINS0_18scalar_constant_opIdEEKNS_6MatrixIdLin1ELin1ELi0ELin1ELin1EEEEESB_EENS_9TransposeISA_EELi1EEEED2Ev"
 "_ZN5Eigen8internal14evaluator_baseINS_7ProductINS_15DiagonalWrapperIKNS_5BlockINS_8DiagonalINS_6MatrixIdLin1ELin1ELi0ELin1ELin1EEELi0EEELin1ELi1ELb0EEEEENS_9TransposeIKNS4_IS7_Li1ELin1ELb0EEEEELi1EEEEC2Ev"
 "_ZN5Eigen8internal14evaluator_baseINS_7ProductINS_15DiagonalWrapperIKNS_5BlockINS_8DiagonalINS_6MatrixIdLin1ELin1ELi0ELin1ELin1EEELi0EEELin1ELi1ELb0EEEEENS_9TransposeIKNS4_IS7_Li1ELin1ELb0EEEEELi1EEEED2Ev"
 "_ZN5Eigen8internal14evaluator_baseINS_8DiagonalIKNS_6MatrixIdLin1ELin1ELi0ELin1ELin1EEELi0EEEEC2Ev"
 "_ZN5Eigen8internal14evaluator_baseINS_8DiagonalIKNS_6MatrixIdLin1ELin1ELi0ELin1ELin1EEELi0EEEED2Ev"
 "_ZN5Eigen8internal14evaluator_baseINS_8DiagonalINS_6MatrixIdLin1ELin1ELi0ELin1ELin1EEELi0EEEEC2Ev"
 "_ZN5Eigen8internal14evaluator_baseINS_8DiagonalINS_6MatrixIdLin1ELin1ELi0ELin1ELin1EEELi0EEEED2Ev"
 "_ZN5Eigen8internal14evaluator_baseINS_8DiagonalINS_6MatrixIdLin1ELin1ELi0ELin1ELin1EEELin1EEEEC2Ev"
 "_ZN5Eigen8internal14evaluator_baseINS_8DiagonalINS_6MatrixIdLin1ELin1ELi0ELin1ELin1EEELin1EEEED2Ev"
 "_ZN5Eigen8internal14evaluator_baseINS_9TransposeIKNS_3MapINS_6MatrixIdLi1ELin1ELi1ELi1ELin1EEELi0ENS_6StrideILi0ELi0EEEEEEEED2Ev"
 "_ZN5Eigen8internal14evaluator_baseINS_9TransposeIKNS_5BlockINS_6MatrixIdLin1ELin1ELi0ELin1ELin1EEELi1ELin1ELb0EEEEEED2Ev"
 "_ZN5Eigen8internal14evaluator_baseINS_9TransposeIKNS_6MatrixIdLi1ELin1ELi1ELi1ELin1EEEEEED2Ev"
 "_ZN5Eigen8internal14evaluator_baseINS_9TransposeIKNS_6MatrixIdLin1ELi1ELi0ELin1ELi1EEEEEEC2Ev"
 "_ZN5Eigen8internal14evaluator_baseINS_9TransposeIKNS_6MatrixIdLin1ELi1ELi0ELin1ELi1EEEEEED2Ev"
 "_ZN5Eigen8internal14evaluator_baseINS_9TransposeINS_3MapINS_6MatrixIdLin1ELin1ELi0ELin1ELin1EEELi0ENS_6StrideILi0ELi0EEEEEEEEC2Ev"
 "_ZN5Eigen8internal14evaluator_baseINS_9TransposeINS_3MapINS_6MatrixIdLin1ELin1ELi0ELin1ELin1EEELi0ENS_6StrideILi0ELi0EEEEEEEED2Ev"
 "_ZN5Eigen8internal14evaluator_baseINS_9TransposeINS_6MatrixIdLin1ELi1ELi0ELin1ELi1EEEEEEC2Ev"
 "_ZN5Eigen8internal14evaluator_baseINS_9TransposeINS_6MatrixIdLin1ELi1ELi0ELin1ELi1EEEEEED2Ev"
 "_ZN5Eigen8internal14evaluator_baseINS_9TransposeINS_6MatrixIdLin1ELin1ELi0ELin1ELin1EEEEEED2Ev"
 "_ZN5Eigen8internal14scalar_abs2_opIdEC1ERKS2_"
 "_ZN5Eigen8internal14scalar_abs2_opIdEC1Ev"
 "_ZN5Eigen8internal14scalar_sqrt_opIdEC1ERKS2_"
 "_ZN5Eigen8internal14scalar_sqrt_opIdEC1Ev"
 "_ZN5Eigen8internal14swap_assign_opIdEC1Ev"
 "_ZN5Eigen8internal15BlockImpl_denseIKNS_5BlockINS2_INS_6MatrixIdLin1ELin1ELi0ELin1ELin1EEELin1ELi1ELb1EEELin1ELi1ELb0EEELin1ELi1ELb0ELb1EE4initEv"
 "_ZN5Eigen8internal15BlockImpl_denseIKNS_5BlockINS2_INS_6MatrixIdLin1ELin1ELi0ELin1ELin1EEELin1ELi1ELb1EEELin1ELi1ELb0EEELin1ELi1ELb0ELb1EEC2ERKS8_"
 "_ZN5Eigen8internal15BlockImpl_denseIKNS_5BlockINS2_INS_6MatrixIdLin1ELin1ELi0ELin1ELin1EEELin1ELi1ELb1EEELin1ELi1ELb0EEELin1ELi1ELb0ELb1EEC2ERS7_xxxx"
 "_ZN5Eigen8internal15BlockImpl_denseIKNS_5BlockINS_6MatrixIdLin1ELi1ELi0ELin1ELi1EEELin1ELi1ELb0EEELin1ELi1ELb0ELb1EE4initEv"
 "_ZN5Eigen8internal15BlockImpl_denseIKNS_5BlockINS_6MatrixIdLin1ELi1ELi0ELin1ELi1EEELin1ELi1ELb0EEELin1ELi1ELb0ELb1EEC2ERKS7_"
 "_ZN5Eigen8internal15BlockImpl_denseIKNS_5BlockINS_6MatrixIdLin1ELi1ELi0ELin1ELi1EEELin1ELi1ELb0EEELin1ELi1ELb0ELb1EEC2ERS6_xxxx"
 "_ZN5Eigen8internal15BlockImpl_denseIKNS_6MatrixIdLin1ELin1ELi0ELin1ELin1EEELi1ELin1ELb0ELb1EE4initEv"
 "_ZN5Eigen8internal15BlockImpl_denseIKNS_6MatrixIdLin1ELin1ELi0ELin1ELin1EEELi1ELin1ELb0ELb1EEC2ERKS5_"
 "_ZN5Eigen8internal15BlockImpl_denseIKNS_6MatrixIdLin1ELin1ELi0ELin1ELin1EEELi1ELin1ELb0ELb1EEC2ERS4_x"
 "_ZN5Eigen8internal15BlockImpl_denseIKNS_6MatrixIdLin1ELin1ELi0ELin1ELin1EEELin1ELi1ELb0ELb1EEC2ERKS5_"
 "_ZN5Eigen8internal15BlockImpl_denseIKNS_6MatrixIdLin1ELin1ELi0ELin1ELin1EEELin1ELi1ELb1ELb1EE4initEv"
 "_ZN5Eigen8internal15BlockImpl_denseIKNS_6MatrixIdLin1ELin1ELi0ELin1ELin1EEELin1ELi1ELb1ELb1EEC2ERKS5_"
 "_ZN5Eigen8internal15BlockImpl_denseIKNS_6MatrixIdLin1ELin1ELi0ELin1ELin1EEELin1ELi1ELb1ELb1EEC2ERS4_x"
 "_ZN5Eigen8internal15BlockImpl_denseINS_3MapINS_6MatrixIdLin1ELin1ELi0ELin1ELin1EEELi0ENS_6StrideILi0ELi0EEEEELin1ELi1ELb1ELb1EE4initEv"
 "_ZN5Eigen8internal15BlockImpl_denseINS_3MapINS_6MatrixIdLin1ELin1ELi0ELin1ELin1EEELi0ENS_6StrideILi0ELi0EEEEELin1ELi1ELb1ELb1EEC2ERS7_x"
 "_ZN5Eigen8internal15BlockImpl_denseINS_5BlockINS2_INS_6MatrixIdLin1ELin1ELi0ELin1ELin1EEELin1ELi1ELb1EEELin1ELi1ELb0EEELin1ELi1ELb0ELb1EE4initEv"
 "_ZN5Eigen8internal15BlockImpl_denseINS_5BlockINS2_INS_6MatrixIdLin1ELin1ELi0ELin1ELin1EEELin1ELi1ELb1EEELin1ELi1ELb0EEELin1ELi1ELb0ELb1EEC2ERS6_xxxx"
 "_ZN5Eigen8internal15BlockImpl_denseINS_5BlockINS_6MatrixIdLin1ELin1ELi0ELin1ELin1EEELi1ELin1ELb0EEELi1ELin1ELb0ELb1EE4initEv"
 "_ZN5Eigen8internal15BlockImpl_denseINS_5BlockINS_6MatrixIdLin1ELin1ELi0ELin1ELin1EEELi1ELin1ELb0EEELi1ELin1ELb0ELb1EEC2ERKS6_"
 "_ZN5Eigen8internal15BlockImpl_denseINS_5BlockINS_6MatrixIdLin1ELin1ELi0ELin1ELin1EEELi1ELin1ELb0EEELi1ELin1ELb0ELb1EEC2ERS5_xxxx"
 "_ZN5Eigen8internal15BlockImpl_denseINS_5BlockINS_6MatrixIdLin1ELin1ELi0ELin1ELin1EEELin1ELi1ELb1EEELin1ELi1ELb0ELb1EE4initEv"
 "_ZN5Eigen8internal15BlockImpl_denseINS_5BlockINS_6MatrixIdLin1ELin1ELi0ELin1ELin1EEELin1ELi1ELb1EEELin1ELi1ELb0ELb1EEC2ERKS6_"
 "_ZN5Eigen8internal15BlockImpl_denseINS_5BlockINS_6MatrixIdLin1ELin1ELi0ELin1ELin1EEELin1ELi1ELb1EEELin1ELi1ELb0ELb1EEC2ERS5_xxxx"
 "_ZN5Eigen8internal15BlockImpl_denseINS_5BlockINS_6MatrixIdLin1ELin1ELi0ELin1ELin1EEELin1ELin1ELb0EEELi1ELin1ELb0ELb1EE4initEv"
 "_ZN5Eigen8internal15BlockImpl_denseINS_5BlockINS_6MatrixIdLin1ELin1ELi0ELin1ELin1EEELin1ELin1ELb0EEELi1ELin1ELb0ELb1EEC2ERKS6_"
 "_ZN5Eigen8internal15BlockImpl_denseINS_5BlockINS_6MatrixIdLin1ELin1ELi0ELin1ELin1EEELin1ELin1ELb0EEELi1ELin1ELb0ELb1EEC2ERS5_xxxx"
 "_ZN5Eigen8internal15BlockImpl_denseINS_5BlockINS_6MatrixIdLin1ELin1ELi0ELin1ELin1EEELin1ELin1ELb0EEELin1ELi1ELb0ELb1EE4initEv"
 "_ZN5Eigen8internal15BlockImpl_denseINS_5BlockINS_6MatrixIdLin1ELin1ELi0ELin1ELin1EEELin1ELin1ELb0EEELin1ELi1ELb0ELb1EEC2ERS5_xxxx"
 "_ZN5Eigen8internal15BlockImpl_denseINS_5BlockINS_6MatrixIdLin1ELin1ELi0ELin1ELin1EEELin1ELin1ELb0EEELin1ELin1ELb0ELb1EE4initEv"
 "_ZN5Eigen8internal15BlockImpl_denseINS_5BlockINS_6MatrixIdLin1ELin1ELi0ELin1ELin1EEELin1ELin1ELb0EEELin1ELin1ELb0ELb1EEC2ERS5_xxxx"
 "_ZN5Eigen8internal15BlockImpl_denseINS_6MatrixIdLin1ELi1ELi0ELin1ELi1EEELin1ELi1ELb0ELb1EE4initEv"
 "_ZN5Eigen8internal15BlockImpl_denseINS_6MatrixIdLin1ELi1ELi0ELin1ELi1EEELin1ELi1ELb0ELb1EEC2ERKS4_"
 "_ZN5Eigen8internal15BlockImpl_denseINS_6MatrixIdLin1ELi1ELi0ELin1ELi1EEELin1ELi1ELb0ELb1EEC2ERS3_xxxx"
 "_ZN5Eigen8internal15BlockImpl_denseINS_6MatrixIdLin1ELi1ELi0ELin1ELi1EEELin1ELi1ELb1ELb1EE4initEv"
 "_ZN5Eigen8internal15BlockImpl_denseINS_6MatrixIdLin1ELi1ELi0ELin1ELi1EEELin1ELi1ELb1ELb1EEC2ERS3_x"
 "_ZN5Eigen8internal15BlockImpl_denseINS_6MatrixIdLin1ELin1ELi0ELin1ELin1EEELi1ELin1ELb0ELb1EE4initEv"
 "_ZN5Eigen8internal15BlockImpl_denseINS_6MatrixIdLin1ELin1ELi0ELin1ELin1EEELi1ELin1ELb0ELb1EEC2ERKS4_"
 "_ZN5Eigen8internal15BlockImpl_denseINS_6MatrixIdLin1ELin1ELi0ELin1ELin1EEELi1ELin1ELb0ELb1EEC2ERS3_x"
 "_ZN5Eigen8internal15BlockImpl_denseINS_6MatrixIdLin1ELin1ELi0ELin1ELin1EEELi1ELin1ELb0ELb1EEC2ERS3_xxxx"
 "_ZN5Eigen8internal15BlockImpl_denseINS_6MatrixIdLin1ELin1ELi0ELin1ELin1EEELin1ELi1ELb0ELb1EE4initEv"
 "_ZN5Eigen8internal15BlockImpl_denseINS_6MatrixIdLin1ELin1ELi0ELin1ELin1EEELin1ELi1ELb0ELb1EEC2ERKS4_"
 "_ZN5Eigen8internal15BlockImpl_denseINS_6MatrixIdLin1ELin1ELi0ELin1ELin1EEELin1ELi1ELb0ELb1EEC2ERS3_xxxx"
 "_ZN5Eigen8internal15BlockImpl_denseINS_6MatrixIdLin1ELin1ELi0ELin1ELin1EEELin1ELi1ELb1ELb1EE4initEv"
 "_ZN5Eigen8internal15BlockImpl_denseINS_6MatrixIdLin1ELin1ELi0ELin1ELin1EEELin1ELi1ELb1ELb1EEC2ERKS4_"
 "_ZN5Eigen8internal15BlockImpl_denseINS_6MatrixIdLin1ELin1ELi0ELin1ELin1EEELin1ELi1ELb1ELb1EEC2ERS3_x"
 "_ZN5Eigen8internal15BlockImpl_denseINS_6MatrixIdLin1ELin1ELi0ELin1ELin1EEELin1ELin1ELb0ELb1EE4initEv"
 "_ZN5Eigen8internal15BlockImpl_denseINS_6MatrixIdLin1ELin1ELi0ELin1ELin1EEELin1ELin1ELb0ELb1EEC2ERS3_xxxx"
 "_ZN5Eigen8internal15BlockImpl_denseINS_8DiagonalINS_6MatrixIdLin1ELin1ELi0ELin1ELin1EEELi0EEELin1ELi1ELb0ELb1EE4initEv"
 "_ZN5Eigen8internal15BlockImpl_denseINS_8DiagonalINS_6MatrixIdLin1ELin1ELi0ELin1ELin1EEELi0EEELin1ELi1ELb0ELb1EEC2ERKS6_"
 "_ZN5Eigen8internal15BlockImpl_denseINS_8DiagonalINS_6MatrixIdLin1ELin1ELi0ELin1ELin1EEELi0EEELin1ELi1ELb0ELb1EEC2ERS5_xxxx"
 "_ZN5Eigen8internal15block_evaluatorIKNS_5BlockINS2_INS_6MatrixIdLin1ELin1ELi0ELin1ELin1EEELin1ELi1ELb1EEELin1ELi1ELb0EEELin1ELi1ELb0ELb1EED2Ev"
 "_ZN5Eigen8internal15block_evaluatorIKNS_5BlockINS_6MatrixIdLin1ELi1ELi0ELin1ELi1EEELin1ELi1ELb0EEELin1ELi1ELb0ELb1EED2Ev"
 "_ZN5Eigen8internal15block_evaluatorIKNS_6MatrixIdLin1ELin1ELi0ELin1ELin1EEELi1ELin1ELb0ELb1EEC2ERKNS_5BlockIS4_Li1ELin1ELb0EEE"
 "_ZN5Eigen8internal15block_evaluatorIKNS_6MatrixIdLin1ELin1ELi0ELin1ELin1EEELi1ELin1ELb0ELb1EED2Ev"
 "_ZN5Eigen8internal15block_evaluatorIKNS_6MatrixIdLin1ELin1ELi0ELin1ELin1EEELin1ELi1ELb1ELb1EEC2ERKNS_5BlockIS4_Lin1ELi1ELb1EEE"
 "_ZN5Eigen8internal15block_evaluatorIKNS_6MatrixIdLin1ELin1ELi0ELin1ELin1EEELin1ELi1ELb1ELb1EED2Ev"
 "_ZN5Eigen8internal15block_evaluatorINS_5BlockINS2_INS_6MatrixIdLin1ELin1ELi0ELin1ELin1EEELin1ELi1ELb1EEELin1ELi1ELb0EEELin1ELi1ELb0ELb1EED2Ev"
 "_ZN5Eigen8internal15block_evaluatorINS_5BlockINS_6MatrixIdLin1ELin1ELi0ELin1ELin1EEELi1ELin1ELb0EEELi1ELin1ELb0ELb1EEC2ERKNS2_IS5_Li1ELin1ELb0EEE"
 "_ZN5Eigen8internal15block_evaluatorINS_5BlockINS_6MatrixIdLin1ELin1ELi0ELin1ELin1EEELi1ELin1ELb0EEELi1ELin1ELb0ELb1EED2Ev"
 "_ZN5Eigen8internal15block_evaluatorINS_5BlockINS_6MatrixIdLin1ELin1ELi0ELin1ELin1EEELin1ELi1ELb1EEELin1ELi1ELb0ELb1EEC2ERKNS2_IS5_Lin1ELi1ELb0EEE"
 "_ZN5Eigen8internal15block_evaluatorINS_5BlockINS_6MatrixIdLin1ELin1ELi0ELin1ELin1EEELin1ELi1ELb1EEELin1ELi1ELb0ELb1EED2Ev"
 "_ZN5Eigen8internal15block_evaluatorINS_5BlockINS_6MatrixIdLin1ELin1ELi0ELin1ELin1EEELin1ELin1ELb0EEELi1ELin1ELb0ELb1EEC2ERKNS2_IS5_Li1ELin1ELb0EEE"
 "_ZN5Eigen8internal15block_evaluatorINS_5BlockINS_6MatrixIdLin1ELin1ELi0ELin1ELin1EEELin1ELin1ELb0EEELi1ELin1ELb0ELb1EED2Ev"
 "_ZN5Eigen8internal15block_evaluatorINS_5BlockINS_6MatrixIdLin1ELin1ELi0ELin1ELin1EEELin1ELin1ELb0EEELin1ELi1ELb0ELb1EEC2ERKNS2_IS5_Lin1ELi1ELb0EEE"
 "_ZN5Eigen8internal15block_evaluatorINS_5BlockINS_6MatrixIdLin1ELin1ELi0ELin1ELin1EEELin1ELin1ELb0EEELin1ELi1ELb0ELb1EED2Ev"
 "_ZN5Eigen8internal15block_evaluatorINS_6MatrixIdLin1ELi1ELi0ELin1ELi1EEELin1ELi1ELb0ELb1EEC2ERKNS_5BlockIS3_Lin1ELi1ELb0EEE"
 "_ZN5Eigen8internal15block_evaluatorINS_6MatrixIdLin1ELi1ELi0ELin1ELi1EEELin1ELi1ELb0ELb1EED2Ev"
 "_ZN5Eigen8internal15block_evaluatorINS_6MatrixIdLin1ELin1ELi0ELin1ELin1EEELi1ELin1ELb0ELb1EEC2ERKNS_5BlockIS3_Li1ELin1ELb0EEE"
 "_ZN5Eigen8internal15block_evaluatorINS_6MatrixIdLin1ELin1ELi0ELin1ELin1EEELi1ELin1ELb0ELb1EED2Ev"
 "_ZN5Eigen8internal15block_evaluatorINS_6MatrixIdLin1ELin1ELi0ELin1ELin1EEELin1ELi1ELb0ELb1EEC2ERKNS_5BlockIS3_Lin1ELi1ELb0EEE"
 "_ZN5Eigen8internal15block_evaluatorINS_6MatrixIdLin1ELin1ELi0ELin1ELin1EEELin1ELi1ELb0ELb1EED2Ev"
 "_ZN5Eigen8internal15block_evaluatorINS_6MatrixIdLin1ELin1ELi0ELin1ELin1EEELin1ELi1ELb1ELb1EEC2ERKNS_5BlockIS3_Lin1ELi1ELb1EEE"
 "_ZN5Eigen8internal15block_evaluatorINS_6MatrixIdLin1ELin1ELi0ELin1ELin1EEELin1ELi1ELb1ELb1EED2Ev"
 "_ZN5Eigen8internal15block_evaluatorINS_6MatrixIdLin1ELin1ELi0ELin1ELin1EEELin1ELin1ELb0ELb1EEC2ERKNS_5BlockIS3_Lin1ELin1ELb0EEE"
 "_ZN5Eigen8internal15block_evaluatorINS_6MatrixIdLin1ELin1ELi0ELin1ELin1EEELin1ELin1ELb0ELb1EED2Ev"
 "_ZN5Eigen8internal15block_evaluatorINS_8DiagonalINS_6MatrixIdLin1ELin1ELi0ELin1ELin1EEELi0EEELin1ELi1ELb0ELb1EEC2ERKNS_5BlockIS5_Lin1ELi1ELb0EEE"
 "_ZN5Eigen8internal15block_evaluatorINS_8DiagonalINS_6MatrixIdLin1ELin1ELi0ELin1ELin1EEELi0EEELin1ELi1ELb0ELb1EED2Ev"
 "_ZN5Eigen8internal15call_assignmentINS_12ArrayWrapperINS_6MatrixIdLin1ELi1ELi0ELin1ELi1EEEEENS2_IKS4_EENS0_13div_assign_opIddEEEEvRT_RKT0_RKT1_NS0_9enable_ifIXntsrNS0_25evaluator_assume_aliasingISC_NS0_16evaluator_traitsISC_E5ShapeEEE5valueEPvE4typeE"
 "_ZN5Eigen8internal15call_assignmentINS_12ArrayWrapperINS_6MatrixIdLin1ELi1ELi0ELin1ELi1EEEEENS_13CwiseBinaryOpINS0_17scalar_product_opIddEEKS5_KNS_12CwiseUnaryOpINS0_13scalar_exp_opIdEEKNS2_IKS4_EEEEEEEEvRT_RKT0_"
 "_ZN5Eigen8internal15call_assignmentINS_12ArrayWrapperINS_6MatrixIdLin1ELi1ELi0ELin1ELi1EEEEENS_13CwiseBinaryOpINS0_17scalar_product_opIddEEKS5_KNS_12CwiseUnaryOpINS0_13scalar_exp_opIdEEKNS2_IKS4_EEEEEENS0_9assign_opIddEEEEvRT_RKT0_RKT1_NS0_9enable_ifIXntsrNS0_25evaluator_assume_aliasingISN_NS0_16evaluator_traitsISN_E5ShapeEEE5valueEPvE4typeE"
 "_ZN5Eigen8internal15call_assignmentINS_12ArrayWrapperINS_6MatrixIdLin1ELi1ELi0ELin1ELi1EEEEENS_13CwiseBinaryOpINS0_17scalar_product_opIddEEKS5_S9_EENS0_13add_assign_opIddEEEEvRT_RKT0_RKT1_NS0_9enable_ifIXntsrNS0_25evaluator_assume_aliasingISF_NS0_16evaluator_traitsISF_E5ShapeEEE5valueEPvE4typeE"
 "_ZN5Eigen8internal15call_assignmentINS_12ArrayWrapperINS_6MatrixIdLin1ELi1ELi0ELin1ELi1EEEEENS_14CwiseNullaryOpINS0_18scalar_constant_opIdEENS_5ArrayIdLin1ELi1ELi0ELin1ELi1EEEEENS0_13add_assign_opIddEEEEvRT_RKT0_RKT1_NS0_9enable_ifIXntsrNS0_25evaluator_assume_aliasingISG_NS0_16evaluator_traitsISG_E5ShapeEEE5valueEPvE4typeE"
 "_ZN5Eigen8internal15call_assignmentINS_12ArrayWrapperINS_6MatrixIdLin1ELin1ELi0ELin1ELin1EEEEENS2_IKS4_EENS0_13div_assign_opIddEEEEvRT_RKT0_RKT1_NS0_9enable_ifIXntsrNS0_25evaluator_assume_aliasingISC_NS0_16evaluator_traitsISC_E5ShapeEEE5valueEPvE4typeE"
 "_ZN5Eigen8internal15call_assignmentINS_12ArrayWrapperINS_6MatrixIdLin1ELin1ELi0ELin1ELin1EEEEENS_14CwiseNullaryOpINS0_18scalar_constant_opIdEENS_5ArrayIdLin1ELin1ELi0ELin1ELin1EEEEENS0_13add_assign_opIddEEEEvRT_RKT0_RKT1_NS0_9enable_ifIXntsrNS0_25evaluator_assume_aliasingISG_NS0_16evaluator_traitsISG_E5ShapeEEE5valueEPvE4typeE"
 "_ZN5Eigen8internal15call_assignmentINS_12ArrayWrapperINS_8DiagonalINS_6MatrixIdLin1ELin1ELi0ELin1ELin1EEELi0EEEEENS_12CwiseUnaryOpINS0_17scalar_inverse_opIdEEKNS2_IKNS3_IKS5_Li0EEEEEEENS0_13add_assign_opIddEEEEvRT_RKT0_RKT1_NS0_9enable_ifIXntsrNS0_25evaluator_assume_aliasingISL_NS0_16evaluator_traitsISL_E5ShapeEEE5valueEPvE4typeE"
 "_ZN5Eigen8internal15call_assignmentINS_14CwiseUnaryViewINS_10MatrixBaseINS_6MatrixIN4stan4math3varELin1ELi1ELi0ELin1ELi1EEEE5vi_OpES8_EENS_3MapINS4_IPNS6_4variELin1ELin1ELi0ELin1ELin1EEELi0ENS_6StrideILi0ELi0EEEEEEEvRT_RKT0_"
 "_ZN5Eigen8internal15call_assignmentINS_14CwiseUnaryViewINS_10MatrixBaseINS_6MatrixIN4stan4math3varELin1ELi1ELi0ELin1ELi1EEEE5vi_OpES8_EENS_3MapINS4_IPNS6_4variELin1ELin1ELi0ELin1ELin1EEELi0ENS_6StrideILi0ELi0EEEEENS0_9assign_opISE_SE_EEEEvRT_RKT0_RKT1_NS0_9enable_ifIXntsrNS0_25evaluator_assume_aliasingISN_NS0_16evaluator_traitsISN_E5ShapeEEE5valueEPvE4typeE"
 "_ZN5Eigen8internal15call_assignmentINS_3MapINS_6MatrixIPN4stan4math4variELin1ELi1ELi0ELin1ELi1EEELi0ENS_6StrideILi0ELi0EEEEENS_12CwiseUnaryOpINS_10MatrixBaseINS3_INS5_3varELin1ELi1ELi0ELin1ELi1EEEE5vi_OpEKSF_EEEEvRT_RKT0_"
 "_ZN5Eigen8internal15call_assignmentINS_3MapINS_6MatrixIPN4stan4math4variELin1ELi1ELi0ELin1ELi1EEELi0ENS_6StrideILi0ELi0EEEEENS_12CwiseUnaryOpINS_10MatrixBaseINS3_INS5_3varELin1ELi1ELi0ELin1ELi1EEEE5vi_OpEKSF_EENS0_9assign_opIS7_S7_EEEEvRT_RKT0_RKT1_NS0_9enable_ifIXntsrNS0_25evaluator_assume_aliasingISO_NS0_16evaluator_traitsISO_E5ShapeEEE5valueEPvE4typeE"
 "_ZN5Eigen8internal15call_assignmentINS_3MapINS_6MatrixIPN4stan4math4variELin1ELin1ELi0ELin1ELin1EEELi0ENS_6StrideILi0ELi0EEEEENS_12CwiseUnaryOpINS_10MatrixBaseINS3_INS5_3varELin1ELi1ELi0ELin1ELi1EEEE5vi_OpEKSF_EEEEvRT_RKT0_"
 "_ZN5Eigen8internal15call_assignmentINS_3MapINS_6MatrixIPN4stan4math4variELin1ELin1ELi0ELin1ELin1EEELi0ENS_6StrideILi0ELi0EEEEENS_12CwiseUnaryOpINS_10MatrixBaseINS3_INS5_3varELin1ELi1ELi0ELin1ELi1EEEE5vi_OpEKSF_EENS0_9assign_opIS7_S7_EEEEvRT_RKT0_RKT1_NS0_9enable_ifIXntsrNS0_25evaluator_assume_aliasingISO_NS0_16evaluator_traitsISO_E5ShapeEEE5valueEPvE4typeE"
 "_ZN5Eigen8internal15call_assignmentINS_3MapINS_6MatrixIPN4stan4math4variELin1ELin1ELi0ELin1ELin1EEELi0ENS_6StrideILi0ELi0EEEEENS_12CwiseUnaryOpIZNS5_17multiply_mat_variIdLin1ELin1ENS5_3varELi1EEC4ERKNS3_IdLin1ELin1ELi0ELin1ELin1EEERKNS3_ISE_Lin1ELi1ELi0ELin1ELi1EEEEUldE_KNS_7ProductINS2_ISG_Li0ESA_EESO_Li0EEEEEEEvRT_RKT0_"
 "_ZN5Eigen8internal15call_assignmentINS_3MapINS_6MatrixIPN4stan4math4variELin1ELin1ELi0ELin1ELin1EEELi0ENS_6StrideILi0ELi0EEEEENS_12CwiseUnaryOpIZNS5_17multiply_mat_variIdLin1ELin1ENS5_3varELi1EEC4ERKNS3_IdLin1ELin1ELi0ELin1ELin1EEERKNS3_ISE_Lin1ELi1ELi0ELin1ELi1EEEEUldE_KNS_7ProductINS2_ISG_Li0ESA_EESO_Li0EEEEENS0_9assign_opIS7_S7_EEEEvRT_RKT0_RKT1_NS0_9enable_ifIXntsrNS0_25evaluator_assume_aliasingISW_NS0_16evaluator_traitsISW_E5ShapeEEE5valueEPvE4typeE"
 "_ZN5Eigen8internal15call_assignmentINS_3MapINS_6MatrixIdLi1ELin1ELi1ELi1ELin1EEELi0ENS_6StrideILi0ELi0EEEEES4_EEvRT_RKT0_"
 "_ZN5Eigen8internal15call_assignmentINS_3MapINS_6MatrixIdLi1ELin1ELi1ELi1ELin1EEELi0ENS_6StrideILi0ELi0EEEEES4_NS0_9assign_opIddEEEEvRT_RKT0_RKT1_NS0_9enable_ifIXntsrNS0_25evaluator_assume_aliasingISC_NS0_16evaluator_traitsISC_E5ShapeEEE5valueEPvE4typeE"
 "_ZN5Eigen8internal15call_assignmentINS_3MapINS_6MatrixIdLin1ELi1ELi0ELin1ELi1EEELi0ENS_6StrideILi0ELi0EEEEENS_12CwiseUnaryOpINS_10MatrixBaseINS3_IN4stan4math3varELin1ELi1ELi0ELin1ELi1EEEE6val_OpEKSD_EEEEvRT_RKT0_"
 "_ZN5Eigen8internal15call_assignmentINS_3MapINS_6MatrixIdLin1ELi1ELi0ELin1ELi1EEELi0ENS_6StrideILi0ELi0EEEEENS_12CwiseUnaryOpINS_10MatrixBaseINS3_IN4stan4math3varELin1ELi1ELi0ELin1ELi1EEEE6val_OpEKSD_EENS0_9assign_opIddEEEEvRT_RKT0_RKT1_NS0_9enable_ifIXntsrNS0_25evaluator_assume_aliasingISM_NS0_16evaluator_traitsISM_E5ShapeEEE5valueEPvE4typeE"
 "_ZN5Eigen8internal15call_assignmentINS_3MapINS_6MatrixIdLin1ELi1ELi0ELin1ELi1EEELi0ENS_6StrideILi0ELi0EEEEENS_13CwiseBinaryOpINS0_13scalar_sum_opIddEEKNS8_INS0_17scalar_product_opIddEEKNS_14CwiseNullaryOpINS0_18scalar_constant_opIdEEKS4_EEKNS_5BlockIKNSJ_IS4_Lin1ELi1ELb0EEELin1ELi1ELb0EEEEEKNS8_ISC_SI_KNSJ_IKNSJ_INSJ_INS3_IdLin1ELin1ELi0ELin1ELin1EEELin1ELi1ELb1EEELin1ELi1ELb0EEELin1ELi1ELb0EEEEEEENS0_13add_assign_opIddEEEEvRT_RKT0_RKT1_NS0_9enable_ifIXntsrNS0_25evaluator_assume_aliasingIS13_NS0_16evaluator_traitsIS13_E5ShapeEEE5valueEPvE4typeE"
 "_ZN5Eigen8internal15call_assignmentINS_3MapINS_6MatrixIdLin1ELi1ELi0ELin1ELi1EEELi0ENS_6StrideILi0ELi0EEEEENS_14CwiseNullaryOpINS0_18scalar_constant_opIdEES4_EEEEvRT_RKT0_"
 "_ZN5Eigen8internal15call_assignmentINS_3MapINS_6MatrixIdLin1ELi1ELi0ELin1ELi1EEELi0ENS_6StrideILi0ELi0EEEEENS_14CwiseNullaryOpINS0_18scalar_constant_opIdEES4_EENS0_9assign_opIddEEEEvRT_RKT0_RKT1_NS0_9enable_ifIXntsrNS0_25evaluator_assume_aliasingISG_NS0_16evaluator_traitsISG_E5ShapeEEE5valueEPvE4typeE"
 "_ZN5Eigen8internal15call_assignmentINS_3MapINS_6MatrixIdLin1ELin1ELi0ELin1ELin1EEELi0ENS_6StrideILi0ELi0EEEEENS_12CwiseUnaryOpINS_10MatrixBaseINS3_IN4stan4math3varELin1ELi1ELi0ELin1ELi1EEEE6val_OpEKSD_EEEEvRT_RKT0_"
 "_ZN5Eigen8internal15call_assignmentINS_3MapINS_6MatrixIdLin1ELin1ELi0ELin1ELin1EEELi0ENS_6StrideILi0ELi0EEEEENS_12CwiseUnaryOpINS_10MatrixBaseINS3_IN4stan4math3varELin1ELi1ELi0ELin1ELi1EEEE6val_OpEKSD_EENS0_9assign_opIddEEEEvRT_RKT0_RKT1_NS0_9enable_ifIXntsrNS0_25evaluator_assume_aliasingISM_NS0_16evaluator_traitsISM_E5ShapeEEE5valueEPvE4typeE"
 "_ZN5Eigen8internal15call_assignmentINS_3MapINS_6MatrixIdLin1ELin1ELi0ELin1ELin1EEELi0ENS_6StrideILi0ELi0EEEEES4_EEvRT_RKT0_"
 "_ZN5Eigen8internal15call_assignmentINS_3MapINS_6MatrixIdLin1ELin1ELi0ELin1ELin1EEELi0ENS_6StrideILi0ELi0EEEEES4_NS0_9assign_opIddEEEEvRT_RKT0_RKT1_NS0_9enable_ifIXntsrNS0_25evaluator_assume_aliasingISC_NS0_16evaluator_traitsISC_E5ShapeEEE5valueEPvE4typeE"
 "_ZN5Eigen8internal15call_assignmentINS_5BlockINS2_INS2_INS_6MatrixIdLin1ELin1ELi0ELin1ELin1EEELin1ELi1ELb1EEELin1ELi1ELb0EEELin1ELi1ELb0EEENS_13CwiseBinaryOpINS0_18scalar_quotient_opIddEEKNS2_IKS6_Lin1ELi1ELb0EEEKNS_14CwiseNullaryOpINS0_18scalar_constant_opIdEEKNS3_IdLin1ELi1ELi0ELin1ELi1EEEEEEEEEvRT_RKT0_"
 "_ZN5Eigen8internal15call_assignmentINS_5BlockINS2_INS2_INS_6MatrixIdLin1ELin1ELi0ELin1ELin1EEELin1ELi1ELb1EEELin1ELi1ELb0EEELin1ELi1ELb0EEENS_13CwiseBinaryOpINS0_18scalar_quotient_opIddEEKNS2_IKS6_Lin1ELi1ELb0EEEKNS_14CwiseNullaryOpINS0_18scalar_constant_opIdEEKNS3_IdLin1ELi1ELi0ELin1ELi1EEEEEEENS0_9assign_opIddEEEEvRT_RKT0_RKT1_NS0_9enable_ifIXntsrNS0_25evaluator_assume_aliasingISQ_NS0_16evaluator_traitsISQ_E5ShapeEEE5valueEPvE4typeE"
 "_ZN5Eigen8internal15call_assignmentINS_5BlockINS2_INS2_INS_6MatrixIdLin1ELin1ELi0ELin1ELin1EEELin1ELi1ELb1EEELin1ELi1ELb0EEELin1ELi1ELb0EEENS_14CwiseNullaryOpINS0_18scalar_constant_opIdEENS3_IdLin1ELi1ELi0ELin1ELi1EEEEEEEvRT_RKT0_"
 "_ZN5Eigen8internal15call_assignmentINS_5BlockINS2_INS2_INS_6MatrixIdLin1ELin1ELi0ELin1ELin1EEELin1ELi1ELb1EEELin1ELi1ELb0EEELin1ELi1ELb0EEENS_14CwiseNullaryOpINS0_18scalar_constant_opIdEENS3_IdLin1ELi1ELi0ELin1ELi1EEEEENS0_9assign_opIddEEEEvRT_RKT0_RKT1_NS0_9enable_ifIXntsrNS0_25evaluator_assume_aliasingISH_NS0_16evaluator_traitsISH_E5ShapeEEE5valueEPvE4typeE"
 "_ZN5Eigen8internal15call_assignmentINS_5BlockINS2_INS_6MatrixIdLin1ELin1ELi0ELin1ELin1EEELi1ELin1ELb0EEELi1ELin1ELb0EEES6_NS0_14swap_assign_opIdEEEEvRT_RKT0_RKT1_NS0_9enable_ifIXntsrNS0_25evaluator_assume_aliasingISB_NS0_16evaluator_traitsISB_E5ShapeEEE5valueEPvE4typeE"
 "_ZN5Eigen8internal15call_assignmentINS_5BlockINS2_INS_6MatrixIdLin1ELin1ELi0ELin1ELin1EEELin1ELi1ELb1EEELin1ELi1ELb0EEES6_NS0_14swap_assign_opIdEEEEvRT_RKT0_RKT1_NS0_9enable_ifIXntsrNS0_25evaluator_assume_aliasingISB_NS0_16evaluator_traitsISB_E5ShapeEEE5valueEPvE4typeE"
 "_ZN5Eigen8internal15call_assignmentINS_5BlockINS2_INS_6MatrixIdLin1ELin1ELi0ELin1ELin1EEELin1ELin1ELb0EEELin1ELi1ELb0EEENS_14CwiseNullaryOpINS0_18scalar_constant_opIdEENS3_IdLin1ELi1ELi0ELin1ELi1EEEEENS0_13div_assign_opIddEEEEvRT_RKT0_RKT1_NS0_9enable_ifIXntsrNS0_25evaluator_assume_aliasingISG_NS0_16evaluator_traitsISG_E5ShapeEEE5valueEPvE4typeE"
 "_ZN5Eigen8internal15call_assignmentINS_5BlockINS_6MatrixIdLin1ELi1ELi0ELin1ELi1EEELin1ELi1ELb0EEENS_13CwiseBinaryOpINS0_17scalar_product_opIddEEKNS_14CwiseNullaryOpINS0_18scalar_constant_opIdEEKS4_EEKNS2_INS2_INS3_IdLin1ELin1ELi0ELin1ELin1EEELin1ELi1ELb1EEELin1ELi1ELb0EEEEENS0_13add_assign_opIddEEEEvRT_RKT0_RKT1_NS0_9enable_ifIXntsrNS0_25evaluator_assume_aliasingISO_NS0_16evaluator_traitsISO_E5ShapeEEE5valueEPvE4typeE"
 "_ZN5Eigen8internal15call_assignmentINS_5BlockINS_6MatrixIdLin1ELi1ELi0ELin1ELi1EEELin1ELi1ELb0EEENS_14CwiseNullaryOpINS0_18scalar_constant_opIdEES4_EEEEvRT_RKT0_"
 "_ZN5Eigen8internal15call_assignmentINS_5BlockINS_6MatrixIdLin1ELi1ELi0ELin1ELi1EEELin1ELi1ELb0EEENS_14CwiseNullaryOpINS0_18scalar_constant_opIdEES4_EENS0_9assign_opIddEEEEvRT_RKT0_RKT1_NS0_9enable_ifIXntsrNS0_25evaluator_assume_aliasingISE_NS0_16evaluator_traitsISE_E5ShapeEEE5valueEPvE4typeE"
 "_ZN5Eigen8internal15call_assignmentINS_5BlockINS_6MatrixIdLin1ELi1ELi0ELin1ELi1EEELin1ELi1ELb0EEENS_7ProductINS_15DiagonalWrapperIKNS2_INS_8DiagonalINS3_IdLin1ELin1ELi0ELin1ELin1EEELi0EEELin1ELi1ELb0EEEEENS_9TransposeIKNS2_IS9_Li1ELin1ELb0EEEEELi1EEEEEvRT_RKT0_"
 "_ZN5Eigen8internal15call_assignmentINS_5BlockINS_6MatrixIdLin1ELi1ELi0ELin1ELi1EEELin1ELi1ELb0EEENS_7ProductINS_15DiagonalWrapperIKNS2_INS_8DiagonalINS3_IdLin1ELin1ELi0ELin1ELin1EEELi0EEELin1ELi1ELb0EEEEENS_9TransposeIKNS2_IS9_Li1ELin1ELb0EEEEELi1EEENS0_9assign_opIddEEEEvRT_RKT0_RKT1_NS0_9enable_ifIXntsrNS0_25evaluator_assume_aliasingISN_NS0_16evaluator_traitsISN_E5ShapeEEE5valueEPvE4typeE"
 "_ZN5Eigen8internal15call_assignmentINS_5BlockINS_6MatrixIdLin1ELin1ELi0ELin1ELin1EEELin1ELi1ELb0EEENS_14CwiseNullaryOpINS0_18scalar_constant_opIdEENS3_IdLin1ELi1ELi0ELin1ELi1EEEEENS0_13div_assign_opIddEEEEvRT_RKT0_RKT1_NS0_9enable_ifIXntsrNS0_25evaluator_assume_aliasingISF_NS0_16evaluator_traitsISF_E5ShapeEEE5valueEPvE4typeE"
 "_ZN5Eigen8internal15call_assignmentINS_5BlockINS_6MatrixIdLin1ELin1ELi0ELin1ELin1EEELin1ELi1ELb1EEENS_13CwiseBinaryOpINS0_17scalar_product_opIddEEKNS_14CwiseNullaryOpINS0_18scalar_constant_opIdEEKNS3_IdLin1ELi1ELi0ELin1ELi1EEEEESD_EEEEvRT_RKT0_"
 "_ZN5Eigen8internal15call_assignmentINS_5BlockINS_6MatrixIdLin1ELin1ELi0ELin1ELin1EEELin1ELi1ELb1EEENS_13CwiseBinaryOpINS0_17scalar_product_opIddEEKNS_14CwiseNullaryOpINS0_18scalar_constant_opIdEEKNS3_IdLin1ELi1ELi0ELin1ELi1EEEEESD_EENS0_13add_assign_opIddEEEEvRT_RKT0_RKT1_NS0_9enable_ifIXntsrNS0_25evaluator_assume_aliasingISL_NS0_16evaluator_traitsISL_E5ShapeEEE5valueEPvE4typeE"
 "_ZN5Eigen8internal15call_assignmentINS_5BlockINS_6MatrixIdLin1ELin1ELi0ELin1ELin1EEELin1ELi1ELb1EEENS_13CwiseBinaryOpINS0_17scalar_product_opIddEEKNS_14CwiseNullaryOpINS0_18scalar_constant_opIdEEKNS3_IdLin1ELi1ELi0ELin1ELi1EEEEESD_EENS0_9assign_opIddEEEEvRT_RKT0_RKT1_NS0_9enable_ifIXntsrNS0_25evaluator_assume_aliasingISL_NS0_16evaluator_traitsISL_E5ShapeEEE5valueEPvE4typeE"
 "_ZN5Eigen8internal15call_assignmentINS_5BlockINS_6MatrixIdLin1ELin1ELi0ELin1ELin1EEELin1ELi1ELb1EEES5_NS0_14swap_assign_opIdEEEEvRT_RKT0_RKT1_NS0_9enable_ifIXntsrNS0_25evaluator_assume_aliasingISA_NS0_16evaluator_traitsISA_E5ShapeEEE5valueEPvE4typeE"
 "_ZN5Eigen8internal15call_assignmentINS_6MatrixIN4stan4math3varELin1ELi1ELi0ELin1ELi1EEENS_14CwiseNullaryOpINS0_18scalar_constant_opIS5_EES6_EEEEvRT_RKT0_"
 "_ZN5Eigen8internal15call_assignmentINS_6MatrixIN4stan4math3varELin1ELi1ELi0ELin1ELi1EEENS_14CwiseNullaryOpINS0_18scalar_constant_opIS5_EES6_EENS0_9assign_opIS5_S5_EEEEvRT_RKT0_RKT1_NS0_9enable_ifIXntsrNS0_25evaluator_assume_aliasingISF_NS0_16evaluator_traitsISF_E5ShapeEEE5valueEPvE4typeE"
 "_ZN5Eigen8internal15call_assignmentINS_6MatrixIN4stan4math3varELin1ELi1ELi0ELin1ELi1EEES6_EEvRT_RKT0_"
 "_ZN5Eigen8internal15call_assignmentINS_6MatrixIN4stan4math3varELin1ELi1ELi0ELin1ELi1EEES6_NS0_9assign_opIS5_S5_EEEEvRT_RKT0_RKT1_NS0_9enable_ifIXntsrNS0_25evaluator_assume_aliasingISB_NS0_16evaluator_traitsISB_E5ShapeEEE5valueEPvE4typeE"
 "_ZN5Eigen8internal15call_assignmentINS_6MatrixIdLi4ELi4ELi0ELi4ELi4EEENS_14CwiseNullaryOpINS0_18scalar_constant_opIdEES3_EEEEvRT_RKT0_"
 "_ZN5Eigen8internal15call_assignmentINS_6MatrixIdLi4ELi4ELi0ELi4ELi4EEENS_14CwiseNullaryOpINS0_18scalar_constant_opIdEES3_EENS0_9assign_opIddEEEEvRT_RKT0_RKT1_NS0_9enable_ifIXntsrNS0_25evaluator_assume_aliasingISC_NS0_16evaluator_traitsISC_E5ShapeEEE5valueEPvE4typeE"
 "_ZN5Eigen8internal15call_assignmentINS_6MatrixIdLin1ELi1ELi0ELin1ELi1EEENS_12CwiseUnaryOpINS0_18scalar_opposite_opIdEEKS3_EEEEvRT_RKT0_"
 "_ZN5Eigen8internal15call_assignmentINS_6MatrixIdLin1ELi1ELi0ELin1ELi1EEENS_12CwiseUnaryOpINS0_18scalar_opposite_opIdEEKS3_EENS0_9assign_opIddEEEEvRT_RKT0_RKT1_NS0_9enable_ifIXntsrNS0_25evaluator_assume_aliasingISD_NS0_16evaluator_traitsISD_E5ShapeEEE5valueEPvE4typeE"
 "_ZN5Eigen8internal15call_assignmentINS_6MatrixIdLin1ELi1ELi0ELin1ELi1EEENS_13CwiseBinaryOpINS0_13scalar_sum_opIddEEKNS4_INS0_17scalar_product_opIddEEKNS_14CwiseNullaryOpINS0_18scalar_constant_opIdEEKS3_EESC_EEKNS4_IS8_SE_KNS9_ISB_S3_EEEEEEEEvRT_RKT0_"
 "_ZN5Eigen8internal15call_assignmentINS_6MatrixIdLin1ELi1ELi0ELin1ELi1EEENS_13CwiseBinaryOpINS0_13scalar_sum_opIddEEKNS4_INS0_17scalar_product_opIddEEKNS_14CwiseNullaryOpINS0_18scalar_constant_opIdEEKS3_EESC_EEKNS4_IS8_SE_KNS9_ISB_S3_EEEEEENS0_9assign_opIddEEEEvRT_RKT0_RKT1_NS0_9enable_ifIXntsrNS0_25evaluator_assume_aliasingISQ_NS0_16evaluator_traitsISQ_E5ShapeEEE5valueEPvE4typeE"
 "_ZN5Eigen8internal15call_assignmentINS_6MatrixIdLin1ELi1ELi0ELin1ELi1EEENS_13CwiseBinaryOpINS0_13scalar_sum_opIddEEKS3_KNS4_INS0_17scalar_product_opIddEEKNS_14CwiseNullaryOpINS0_18scalar_constant_opIdEES7_EES7_EEEEEEvRT_RKT0_"
 "_ZN5Eigen8internal15call_assignmentINS_6MatrixIdLin1ELi1ELi0ELin1ELi1EEENS_13CwiseBinaryOpINS0_13scalar_sum_opIddEEKS3_KNS4_INS0_17scalar_product_opIddEEKNS_14CwiseNullaryOpINS0_18scalar_constant_opIdEES7_EES7_EEEENS0_9assign_opIddEEEEvRT_RKT0_RKT1_NS0_9enable_ifIXntsrNS0_25evaluator_assume_aliasingISM_NS0_16evaluator_traitsISM_E5ShapeEEE5valueEPvE4typeE"
 "_ZN5Eigen8internal15call_assignmentINS_6MatrixIdLin1ELi1ELi0ELin1ELi1EEENS_13CwiseBinaryOpINS0_17scalar_product_opIddEEKNS_14CwiseNullaryOpINS0_18scalar_constant_opIdEEKS3_EESA_EENS0_13add_assign_opIddEEEEvRT_RKT0_RKT1_NS0_9enable_ifIXntsrNS0_25evaluator_assume_aliasingISI_NS0_16evaluator_traitsISI_E5ShapeEEE5valueEPvE4typeE"
 "_ZN5Eigen8internal15call_assignmentINS_6MatrixIdLin1ELi1ELi0ELin1ELi1EEENS_13CwiseBinaryOpINS0_17scalar_product_opIddEEKNS_14CwiseNullaryOpINS0_18scalar_constant_opIdEEKS3_EESA_EENS0_13sub_assign_opIddEEEEvRT_RKT0_RKT1_NS0_9enable_ifIXntsrNS0_25evaluator_assume_aliasingISI_NS0_16evaluator_traitsISI_E5ShapeEEE5valueEPvE4typeE"
 "_ZN5Eigen8internal15call_assignmentINS_6MatrixIdLin1ELi1ELi0ELin1ELi1EEENS_13CwiseBinaryOpINS0_17scalar_product_opIddEEKS3_KNS4_INS0_20scalar_difference_opIddEES7_S7_EEEENS0_13add_assign_opIddEEEEvRT_RKT0_RKT1_NS0_9enable_ifIXntsrNS0_25evaluator_assume_aliasingISH_NS0_16evaluator_traitsISH_E5ShapeEEE5valueEPvE4typeE"
 "_ZN5Eigen8internal15call_assignmentINS_6MatrixIdLin1ELi1ELi0ELin1ELi1EEENS_13CwiseBinaryOpINS0_18scalar_quotient_opIddEEKS3_KNS_14CwiseNullaryOpINS0_18scalar_constant_opIdEES7_EEEEEEvRT_RKT0_"
 "_ZN5Eigen8internal15call_assignmentINS_6MatrixIdLin1ELi1ELi0ELin1ELi1EEENS_13CwiseBinaryOpINS0_18scalar_quotient_opIddEEKS3_KNS_14CwiseNullaryOpINS0_18scalar_constant_opIdEES7_EEEENS0_13add_assign_opIddEEEEvRT_RKT0_RKT1_NS0_9enable_ifIXntsrNS0_25evaluator_assume_aliasingISI_NS0_16evaluator_traitsISI_E5ShapeEEE5valueEPvE4typeE"
 "_ZN5Eigen8internal15call_assignmentINS_6MatrixIdLin1ELi1ELi0ELin1ELi1EEENS_13CwiseBinaryOpINS0_18scalar_quotient_opIddEEKS3_KNS_14CwiseNullaryOpINS0_18scalar_constant_opIdEES7_EEEENS0_9assign_opIddEEEEvRT_RKT0_RKT1_NS0_9enable_ifIXntsrNS0_25evaluator_assume_aliasingISI_NS0_16evaluator_traitsISI_E5ShapeEEE5valueEPvE4typeE"
 "_ZN5Eigen8internal15call_assignmentINS_6MatrixIdLin1ELi1ELi0ELin1ELi1EEENS_14CwiseNullaryOpINS0_18scalar_constant_opIdEES3_EEEEvRT_RKT0_"
 "_ZN5Eigen8internal15call_assignmentINS_6MatrixIdLin1ELi1ELi0ELin1ELi1EEENS_14CwiseNullaryOpINS0_18scalar_constant_opIdEES3_EENS0_13div_assign_opIddEEEEvRT_RKT0_RKT1_NS0_9enable_ifIXntsrNS0_25evaluator_assume_aliasingISC_NS0_16evaluator_traitsISC_E5ShapeEEE5valueEPvE4typeE"
 "_ZN5Eigen8internal15call_assignmentINS_6MatrixIdLin1ELi1ELi0ELin1ELi1EEENS_14CwiseNullaryOpINS0_18scalar_constant_opIdEES3_EENS0_13mul_assign_opIddEEEEvRT_RKT0_RKT1_NS0_9enable_ifIXntsrNS0_25evaluator_assume_aliasingISC_NS0_16evaluator_traitsISC_E5ShapeEEE5valueEPvE4typeE"
 "_ZN5Eigen8internal15call_assignmentINS_6MatrixIdLin1ELi1ELi0ELin1ELi1EEENS_14CwiseNullaryOpINS0_18scalar_constant_opIdEES3_EENS0_9assign_opIddEEEEvRT_RKT0_RKT1_NS0_9enable_ifIXntsrNS0_25evaluator_assume_aliasingISC_NS0_16evaluator_traitsISC_E5ShapeEEE5valueEPvE4typeE"
 "_ZN5Eigen8internal15call_assignmentINS_6MatrixIdLin1ELi1ELi0ELin1ELi1EEENS_14CwiseUnaryViewINS_10MatrixBaseINS2_IN4stan4math3varELin1ELi1ELi0ELin1ELi1EEEE6adj_OpES9_EEEEvRT_RKT0_"
 "_ZN5Eigen8internal15call_assignmentINS_6MatrixIdLin1ELi1ELi0ELin1ELi1EEENS_14CwiseUnaryViewINS_10MatrixBaseINS2_IN4stan4math3varELin1ELi1ELi0ELin1ELi1EEEE6adj_OpES9_EENS0_9assign_opIddEEEEvRT_RKT0_RKT1_NS0_9enable_ifIXntsrNS0_25evaluator_assume_aliasingISH_NS0_16evaluator_traitsISH_E5ShapeEEE5valueEPvE4typeE"
 "_ZN5Eigen8internal15call_assignmentINS_6MatrixIdLin1ELi1ELi0ELin1ELi1EEENS_3MapIS3_Li0ENS_6StrideILi0ELi0EEEEEEEvRT_RKT0_"
 "_ZN5Eigen8internal15call_assignmentINS_6MatrixIdLin1ELi1ELi0ELin1ELi1EEENS_3MapIS3_Li0ENS_6StrideILi0ELi0EEEEENS0_9assign_opIddEEEEvRT_RKT0_RKT1_NS0_9enable_ifIXntsrNS0_25evaluator_assume_aliasingISC_NS0_16evaluator_traitsISC_E5ShapeEEE5valueEPvE4typeE"
 "_ZN5Eigen8internal15call_assignmentINS_6MatrixIdLin1ELi1ELi0ELin1ELi1EEENS_5SolveINS_14TriangularViewIKNS_9TransposeIKNS2_IdLin1ELin1ELi0ELin1ELin1EEEEELj2EEES3_EEEEvRT_RKT0_"
 "_ZN5Eigen8internal15call_assignmentINS_6MatrixIdLin1ELi1ELi0ELin1ELi1EEENS_5SolveINS_14TriangularViewIKNS_9TransposeIKNS2_IdLin1ELin1ELi0ELin1ELin1EEEEELj2EEES3_EENS0_9assign_opIddEEEEvRT_RKT0_RKT1_NS0_9enable_ifIXntsrNS0_25evaluator_assume_aliasingISH_NS0_16evaluator_traitsISH_E5ShapeEEE5valueEPvE4typeE"
 "_ZN5Eigen8internal15call_assignmentINS_6MatrixIdLin1ELi1ELi0ELin1ELi1EEENS_7ProductINS2_IdLin1ELin1ELi0ELin1ELin1EEES3_Li0EEEEEvRT_RKT0_"
 "_ZN5Eigen8internal15call_assignmentINS_6MatrixIdLin1ELi1ELi0ELin1ELi1EEENS_7ProductINS2_IdLin1ELin1ELi0ELin1ELin1EEES3_Li0EEENS0_9assign_opIddEEEEvRT_RKT0_RKT1_NS0_9enable_ifIXsrNS0_25evaluator_assume_aliasingISB_NS0_16evaluator_traitsISB_E5ShapeEEE5valueEPvE4typeE"
 "_ZN5Eigen8internal15call_assignmentINS_6MatrixIdLin1ELi1ELi0ELin1ELi1EEENS_8DiagonalINS2_IdLin1ELin1ELi0ELin1ELin1EEELi0EEEEEvRT_RKT0_"
 "_ZN5Eigen8internal15call_assignmentINS_6MatrixIdLin1ELi1ELi0ELin1ELi1EEENS_8DiagonalINS2_IdLin1ELin1ELi0ELin1ELin1EEELi0EEENS0_9assign_opIddEEEEvRT_RKT0_RKT1_NS0_9enable_ifIXntsrNS0_25evaluator_assume_aliasingISB_NS0_16evaluator_traitsISB_E5ShapeEEE5valueEPvE4typeE"
 "_ZN5Eigen8internal15call_assignmentINS_6MatrixIdLin1ELi1ELi0ELin1ELi1EEENS_8DiagonalINS2_IdLin1ELin1ELi0ELin1ELin1EEELin1EEEEEvRT_RKT0_"
 "_ZN5Eigen8internal15call_assignmentINS_6MatrixIdLin1ELi1ELi0ELin1ELi1EEENS_8DiagonalINS2_IdLin1ELin1ELi0ELin1ELin1EEELin1EEENS0_9assign_opIddEEEEvRT_RKT0_RKT1_NS0_9enable_ifIXntsrNS0_25evaluator_assume_aliasingISB_NS0_16evaluator_traitsISB_E5ShapeEEE5valueEPvE4typeE"
 "_ZN5Eigen8internal15call_assignmentINS_6MatrixIdLin1ELi1ELi0ELin1ELi1EEES3_EEvRT_RKT0_"
 "_ZN5Eigen8internal15call_assignmentINS_6MatrixIdLin1ELi1ELi0ELin1ELi1EEES3_NS0_13add_assign_opIddEEEEvRT_RKT0_RKT1_NS0_9enable_ifIXntsrNS0_25evaluator_assume_aliasingIS8_NS0_16evaluator_traitsIS8_E5ShapeEEE5valueEPvE4typeE"
 "_ZN5Eigen8internal15call_assignmentINS_6MatrixIdLin1ELi1ELi0ELin1ELi1EEES3_NS0_9assign_opIddEEEEvRT_RKT0_RKT1_NS0_9enable_ifIXntsrNS0_25evaluator_assume_aliasingIS8_NS0_16evaluator_traitsIS8_E5ShapeEEE5valueEPvE4typeE"
 "_ZN5Eigen8internal15call_assignmentINS_6MatrixIdLin1ELin1ELi0ELin1ELin1EEENS_13CwiseBinaryOpINS0_13scalar_sum_opIddEEKNS4_INS0_17scalar_product_opIddEEKNS_14CwiseNullaryOpINS0_18scalar_constant_opIdEEKS3_EESC_EEKNS4_IS8_SE_KNS9_INS0_18scalar_identity_opIdEES3_EEEEEEEEvRT_RKT0_"
 "_ZN5Eigen8internal15call_assignmentINS_6MatrixIdLin1ELin1ELi0ELin1ELin1EEENS_13CwiseBinaryOpINS0_13scalar_sum_opIddEEKNS4_INS0_17scalar_product_opIddEEKNS_14CwiseNullaryOpINS0_18scalar_constant_opIdEEKS3_EESC_EEKNS4_IS8_SE_KNS9_INS0_18scalar_identity_opIdEES3_EEEEEENS0_9assign_opIddEEEEvRT_RKT0_RKT1_NS0_9enable_ifIXntsrNS0_25evaluator_assume_aliasingISS_NS0_16evaluator_traitsISS_E5ShapeEEE5valueEPvE4typeE"
 "_ZN5Eigen8internal15call_assignmentINS_6MatrixIdLin1ELin1ELi0ELin1ELin1EEENS_13CwiseBinaryOpINS0_18scalar_quotient_opIddEEKS3_KNS_14CwiseNullaryOpINS0_18scalar_constant_opIdEES7_EEEEEEvRT_RKT0_"
 "_ZN5Eigen8internal15call_assignmentINS_6MatrixIdLin1ELin1ELi0ELin1ELin1EEENS_13CwiseBinaryOpINS0_18scalar_quotient_opIddEEKS3_KNS_14CwiseNullaryOpINS0_18scalar_constant_opIdEES7_EEEENS0_9assign_opIddEEEEvRT_RKT0_RKT1_NS0_9enable_ifIXntsrNS0_25evaluator_assume_aliasingISI_NS0_16evaluator_traitsISI_E5ShapeEEE5valueEPvE4typeE"
 "_ZN5Eigen8internal15call_assignmentINS_6MatrixIdLin1ELin1ELi0ELin1ELin1EEENS_14CwiseNullaryOpINS0_18scalar_constant_opIdEES3_EEEEvRT_RKT0_"
 "_ZN5Eigen8internal15call_assignmentINS_6MatrixIdLin1ELin1ELi0ELin1ELin1EEENS_14CwiseNullaryOpINS0_18scalar_constant_opIdEES3_EENS0_13div_assign_opIddEEEEvRT_RKT0_RKT1_NS0_9enable_ifIXntsrNS0_25evaluator_assume_aliasingISC_NS0_16evaluator_traitsISC_E5ShapeEEE5valueEPvE4typeE"
 "_ZN5Eigen8internal15call_assignmentINS_6MatrixIdLin1ELin1ELi0ELin1ELin1EEENS_14CwiseNullaryOpINS0_18scalar_constant_opIdEES3_EENS0_13mul_assign_opIddEEEEvRT_RKT0_RKT1_NS0_9enable_ifIXntsrNS0_25evaluator_assume_aliasingISC_NS0_16evaluator_traitsISC_E5ShapeEEE5valueEPvE4typeE"
 "_ZN5Eigen8internal15call_assignmentINS_6MatrixIdLin1ELin1ELi0ELin1ELin1EEENS_14CwiseNullaryOpINS0_18scalar_constant_opIdEES3_EENS0_9assign_opIddEEEEvRT_RKT0_RKT1_NS0_9enable_ifIXntsrNS0_25evaluator_assume_aliasingISC_NS0_16evaluator_traitsISC_E5ShapeEEE5valueEPvE4typeE"
 "_ZN5Eigen8internal15call_assignmentINS_6MatrixIdLin1ELin1ELi0ELin1ELin1EEENS_14CwiseNullaryOpINS0_18scalar_identity_opIdEES3_EEEEvRT_RKT0_"
 "_ZN5Eigen8internal15call_assignmentINS_6MatrixIdLin1ELin1ELi0ELin1ELin1EEENS_14CwiseNullaryOpINS0_18scalar_identity_opIdEES3_EENS0_9assign_opIddEEEEvRT_RKT0_RKT1_NS0_9enable_ifIXntsrNS0_25evaluator_assume_aliasingISC_NS0_16evaluator_traitsISC_E5ShapeEEE5valueEPvE4typeE"
 "_ZN5Eigen8internal15call_assignmentINS_6MatrixIdLin1ELin1ELi0ELin1ELin1EEENS_14TriangularViewIKS3_Lj1EEEEEvRT_RKT0_"
 "_ZN5Eigen8internal15call_assignmentINS_6MatrixIdLin1ELin1ELi0ELin1ELin1EEENS_14TriangularViewIKS3_Lj1EEENS0_9assign_opIddEEEEvRT_RKT0_RKT1_NS0_9enable_ifIXntsrNS0_25evaluator_assume_aliasingISB_NS0_16evaluator_traitsISB_E5ShapeEEE5valueEPvE4typeE"
 "_ZN5Eigen8internal15call_assignmentINS_6MatrixIdLin1ELin1ELi0ELin1ELin1EEENS_19HouseholderSequenceIS3_NS2_IdLin1ELi1ELi0ELin1ELi1EEELi1EEEEEvRT_RKT0_"
 "_ZN5Eigen8internal15call_assignmentINS_6MatrixIdLin1ELin1ELi0ELin1ELin1EEENS_19HouseholderSequenceIS3_NS2_IdLin1ELi1ELi0ELin1ELi1EEELi1EEENS0_9assign_opIddEEEEvRT_RKT0_RKT1_NS0_9enable_ifIXntsrNS0_25evaluator_assume_aliasingISB_NS0_16evaluator_traitsISB_E5ShapeEEE5valueEPvE4typeE"
 "_ZN5Eigen8internal15call_assignmentINS_6MatrixIdLin1ELin1ELi0ELin1ELin1EEENS_7ProductINS4_IS3_S3_Li0EEENS_9TransposeIS3_EELi0EEEEEvRT_RKT0_"
 "_ZN5Eigen8internal15call_assignmentINS_6MatrixIdLin1ELin1ELi0ELin1ELin1EEENS_7ProductINS4_IS3_S3_Li0EEENS_9TransposeIS3_EELi0EEENS0_9assign_opIddEEEEvRT_RKT0_RKT1_NS0_9enable_ifIXsrNS0_25evaluator_assume_aliasingISD_NS0_16evaluator_traitsISD_E5ShapeEEE5valueEPvE4typeE"
 "_ZN5Eigen8internal15call_assignmentINS_6MatrixIdLin1ELin1ELi0ELin1ELin1EEENS_7ProductINS_13CwiseBinaryOpINS0_20scalar_difference_opIddEEKNS2_IdLin1ELi1ELi0ELin1ELi1EEES9_EENS_9TransposeIS8_EELi0EEENS0_13add_assign_opIddEEEEvRT_RKT0_RKT1_NS0_9enable_ifIXsrNS0_25evaluator_assume_aliasingISI_NS0_16evaluator_traitsISI_E5ShapeEEE5valueEPvE4typeE"
 "_ZN5Eigen8internal15call_assignmentINS_6MatrixIdLin1ELin1ELi0ELin1ELin1EEES3_EEvRT_RKT0_"
 "_ZN5Eigen8internal15call_assignmentINS_6MatrixIdLin1ELin1ELi0ELin1ELin1EEES3_NS0_13add_assign_opIddEEEEvRT_RKT0_RKT1_NS0_9enable_ifIXntsrNS0_25evaluator_assume_aliasingIS8_NS0_16evaluator_traitsIS8_E5ShapeEEE5valueEPvE4typeE"
 "_ZN5Eigen8internal15call_assignmentINS_6MatrixIdLin1ELin1ELi0ELin1ELin1EEES3_NS0_9assign_opIddEEEEvRT_RKT0_RKT1_NS0_9enable_ifIXntsrNS0_25evaluator_assume_aliasingIS8_NS0_16evaluator_traitsIS8_E5ShapeEEE5valueEPvE4typeE"
 "_ZN5Eigen8internal15cpuid_is_vendorEPiPKi"
 "_ZN5Eigen8internal15level3_blockingIddE6blockAEv"
 "_ZN5Eigen8internal15level3_blockingIddE6blockBEv"
 "_ZN5Eigen8internal15level3_blockingIddEC2Ev"
 "_ZN5Eigen8internal15lpNorm_selectorINS_5BlockINS2_INS_6MatrixIdLin1ELin1ELi0ELin1ELin1EEELi1ELin1ELb0EEELi1ELin1ELb0EEELi1EE3runERKNS_10MatrixBaseIS6_EE"
 "_ZN5Eigen8internal15lpNorm_selectorINS_5BlockINS2_INS_6MatrixIdLin1ELin1ELi0ELin1ELin1EEELin1ELi1ELb1EEELin1ELi1ELb0EEELi1EE3runERKNS_10MatrixBaseIS6_EE"
 "_ZN5Eigen8internal15queryCacheSizesERiS1_S1_"
 "_ZN5Eigen8internal15redux_evaluatorINS_12CwiseUnaryOpINS0_13scalar_abs_opIdEEKNS_5BlockINS5_INS_6MatrixIdLin1ELin1ELi0ELin1ELin1EEELi1ELin1ELb0EEELi1ELin1ELb0EEEEEEC1ERKSB_"
 "_ZN5Eigen8internal15redux_evaluatorINS_12CwiseUnaryOpINS0_13scalar_abs_opIdEEKNS_5BlockINS5_INS_6MatrixIdLin1ELin1ELi0ELin1ELin1EEELi1ELin1ELb0EEELi1ELin1ELb0EEEEEED1Ev"
 "_ZN5Eigen8internal15redux_evaluatorINS_12CwiseUnaryOpINS0_13scalar_abs_opIdEEKNS_5BlockINS5_INS_6MatrixIdLin1ELin1ELi0ELin1ELin1EEELin1ELi1ELb1EEELin1ELi1ELb0EEEEEEC1ERKSB_"
 "_ZN5Eigen8internal15redux_evaluatorINS_12CwiseUnaryOpINS0_13scalar_abs_opIdEEKNS_5BlockINS5_INS_6MatrixIdLin1ELin1ELi0ELin1ELin1EEELin1ELi1ELb1EEELin1ELi1ELb0EEEEEED1Ev"
 "_ZN5Eigen8internal15redux_evaluatorINS_12CwiseUnaryOpINS0_13scalar_abs_opIdEEKNS_6MatrixIdLin1ELin1ELi0ELin1ELin1EEEEEEC1ERKS8_"
 "_ZN5Eigen8internal15redux_evaluatorINS_12CwiseUnaryOpINS0_13scalar_abs_opIdEEKNS_6MatrixIdLin1ELin1ELi0ELin1ELin1EEEEEED1Ev"
 "_ZN5Eigen8internal15redux_evaluatorINS_12CwiseUnaryOpINS0_14scalar_abs2_opIdEEKNS_5BlockIKNS5_INS5_INS_6MatrixIdLin1ELin1ELi0ELin1ELin1EEELin1ELi1ELb1EEELin1ELi1ELb0EEELin1ELi1ELb0EEEEEEC1ERKSD_"
 "_ZN5Eigen8internal15redux_evaluatorINS_12CwiseUnaryOpINS0_14scalar_abs2_opIdEEKNS_5BlockIKNS5_INS5_INS_6MatrixIdLin1ELin1ELi0ELin1ELin1EEELin1ELi1ELb1EEELin1ELi1ELb0EEELin1ELi1ELb0EEEEEED1Ev"
 "_ZN5Eigen8internal15redux_evaluatorINS_12CwiseUnaryOpINS0_14scalar_abs2_opIdEEKNS_5BlockINS5_INS_6MatrixIdLin1ELin1ELi0ELin1ELin1EEELin1ELin1ELb0EEELi1ELin1ELb0EEEEEEC1ERKSB_"
 "_ZN5Eigen8internal15redux_evaluatorINS_12CwiseUnaryOpINS0_14scalar_abs2_opIdEEKNS_5BlockINS5_INS_6MatrixIdLin1ELin1ELi0ELin1ELin1EEELin1ELin1ELb0EEELi1ELin1ELb0EEEEEED1Ev"
 "_ZN5Eigen8internal15redux_evaluatorINS_12CwiseUnaryOpINS0_14scalar_abs2_opIdEEKNS_5BlockINS_6MatrixIdLin1ELin1ELi0ELin1ELin1EEELi1ELin1ELb0EEEEEEC1ERKSA_"
 "_ZN5Eigen8internal15redux_evaluatorINS_12CwiseUnaryOpINS0_14scalar_abs2_opIdEEKNS_5BlockINS_6MatrixIdLin1ELin1ELi0ELin1ELin1EEELi1ELin1ELb0EEEEEED1Ev"
 "_ZN5Eigen8internal15redux_evaluatorINS_12CwiseUnaryOpINS0_14scalar_abs2_opIdEEKNS_6MatrixIdLin1ELi1ELi0ELin1ELi1EEEEEEC1ERKS8_"
 "_ZN5Eigen8internal15redux_evaluatorINS_12CwiseUnaryOpINS0_14scalar_abs2_opIdEEKNS_6MatrixIdLin1ELi1ELi0ELin1ELi1EEEEEED1Ev"
 "_ZN5Eigen8internal15redux_evaluatorINS_13CwiseBinaryOpINS0_17scalar_product_opIddEEKNS_9TransposeIKNS_3MapINS_6MatrixIdLi1ELin1ELi1ELi1ELin1EEELi0ENS_6StrideILi0ELi0EEEEEEEKNS6_INS7_IdLin1ELi1ELi0ELin1ELi1EEELi0ESA_EEEEEC1ERKSI_"
 "_ZN5Eigen8internal15redux_evaluatorINS_13CwiseBinaryOpINS0_17scalar_product_opIddEEKNS_9TransposeIKNS_3MapINS_6MatrixIdLi1ELin1ELi1ELi1ELin1EEELi0ENS_6StrideILi0ELi0EEEEEEEKNS6_INS7_IdLin1ELi1ELi0ELin1ELi1EEELi0ESA_EEEEED1Ev"
 "_ZN5Eigen8internal15redux_evaluatorINS_13CwiseBinaryOpINS0_17scalar_product_opIddEEKNS_9TransposeIKNS_5BlockINS_6MatrixIdLin1ELin1ELi0ELin1ELin1EEELi1ELin1ELb0EEEEEKNS6_INS7_IdLin1ELi1ELi0ELin1ELi1EEELin1ELi1ELb0EEEEEEC1ERKSG_"
 "_ZN5Eigen8internal15redux_evaluatorINS_13CwiseBinaryOpINS0_17scalar_product_opIddEEKNS_9TransposeIKNS_5BlockINS_6MatrixIdLin1ELin1ELi0ELin1ELin1EEELi1ELin1ELb0EEEEEKNS6_INS7_IdLin1ELi1ELi0ELin1ELi1EEELin1ELi1ELb0EEEEEED1Ev"
 "_ZN5Eigen8internal15redux_evaluatorINS_13CwiseBinaryOpINS0_22scalar_conj_product_opIddEEKNS_5BlockINS_6MatrixIdLin1ELi1ELi0ELin1ELi1EEELin1ELi1ELb0EEEKNS5_INS5_INS6_IdLin1ELin1ELi0ELin1ELin1EEELin1ELi1ELb1EEELin1ELi1ELb0EEEEEEC1ERKSE_"
 "_ZN5Eigen8internal15redux_evaluatorINS_13CwiseBinaryOpINS0_22scalar_conj_product_opIddEEKNS_5BlockINS_6MatrixIdLin1ELi1ELi0ELin1ELi1EEELin1ELi1ELb0EEEKNS5_INS5_INS6_IdLin1ELin1ELi0ELin1ELin1EEELin1ELi1ELb1EEELin1ELi1ELb0EEEEEED1Ev"
 "_ZN5Eigen8internal15redux_evaluatorINS_13CwiseBinaryOpINS0_22scalar_conj_product_opIddEEKNS_6MatrixIdLin1ELi1ELi0ELin1ELi1EEES7_EEEC1ERKS8_"
 "_ZN5Eigen8internal15redux_evaluatorINS_13CwiseBinaryOpINS0_22scalar_conj_product_opIddEEKNS_6MatrixIdLin1ELi1ELi0ELin1ELi1EEES7_EEED1Ev"
 "_ZN5Eigen8internal15redux_evaluatorINS_13CwiseBinaryOpINS0_22scalar_conj_product_opIddEEKNS_9TransposeIKNS_6MatrixIdLi1ELin1ELi1ELi1ELin1EEEEEKNS6_IdLin1ELi1ELi0ELin1ELi1EEEEEEC1ERKSD_"
 "_ZN5Eigen8internal15redux_evaluatorINS_13CwiseBinaryOpINS0_22scalar_conj_product_opIddEEKNS_9TransposeIKNS_6MatrixIdLi1ELin1ELi1ELi1ELin1EEEEEKNS6_IdLin1ELi1ELi0ELin1ELi1EEEEEED1Ev"
 "_ZN5Eigen8internal15redux_evaluatorINS_6MatrixIdLin1ELi1ELi0ELin1ELi1EEEEC1ERKS3_"
 "_ZN5Eigen8internal15redux_evaluatorINS_6MatrixIdLin1ELi1ELi0ELin1ELi1EEEED1Ev"
 "_ZN5Eigen8internal15unary_evaluatorINS_12ArrayWrapperIKNS_13CwiseBinaryOpINS0_20scalar_difference_opIddEEKNS_6MatrixIdLin1ELi1ELi0ELin1ELi1EEES8_EEEENS0_10IndexBasedEdEC2ERKSB_"
 "_ZN5Eigen8internal15unary_evaluatorINS_12ArrayWrapperIKNS_13CwiseBinaryOpINS0_20scalar_difference_opIddEEKNS_6MatrixIdLin1ELi1ELi0ELin1ELi1EEES8_EEEENS0_10IndexBasedEdED2Ev"
 "_ZN5Eigen8internal15unary_evaluatorINS_12ArrayWrapperIKNS_6MatrixIN4stan4math3varELin1ELi1ELi0ELin1ELi1EEEEENS0_10IndexBasedES6_ED2Ev"
 "_ZN5Eigen8internal15unary_evaluatorINS_12ArrayWrapperIKNS_6MatrixIdLin1ELi1ELi0ELin1ELi1EEEEENS0_10IndexBasedEdEC2ERKS6_"
 "_ZN5Eigen8internal15unary_evaluatorINS_12ArrayWrapperIKNS_6MatrixIdLin1ELi1ELi0ELin1ELi1EEEEENS0_10IndexBasedEdED2Ev"
 "_ZN5Eigen8internal15unary_evaluatorINS_12ArrayWrapperIKNS_6MatrixIdLin1ELin1ELi0ELin1ELin1EEEEENS0_10IndexBasedEdEC2ERKS6_"
 "_ZN5Eigen8internal15unary_evaluatorINS_12ArrayWrapperIKNS_6MatrixIdLin1ELin1ELi0ELin1ELin1EEEEENS0_10IndexBasedEdED2Ev"
 "_ZN5Eigen8internal15unary_evaluatorINS_12ArrayWrapperIKNS_8DiagonalIKNS_6MatrixIdLin1ELin1ELi0ELin1ELin1EEELi0EEEEENS0_10IndexBasedEdEC2ERKS9_"
 "_ZN5Eigen8internal15unary_evaluatorINS_12ArrayWrapperIKNS_8DiagonalIKNS_6MatrixIdLin1ELin1ELi0ELin1ELin1EEELi0EEEEENS0_10IndexBasedEdED2Ev"
 "_ZN5Eigen8internal15unary_evaluatorINS_12ArrayWrapperINS_5BlockINS3_INS_6MatrixIdLin1ELin1ELi0ELin1ELin1EEELin1ELi1ELb1EEELin1ELi1ELb0EEEEENS0_10IndexBasedEdEC2ERKS8_"
 "_ZN5Eigen8internal15unary_evaluatorINS_12ArrayWrapperINS_5BlockINS3_INS_6MatrixIdLin1ELin1ELi0ELin1ELin1EEELin1ELi1ELb1EEELin1ELi1ELb0EEEEENS0_10IndexBasedEdED2Ev"
 "_ZN5Eigen8internal15unary_evaluatorINS_12ArrayWrapperINS_5BlockINS_6MatrixIdLin1ELin1ELi0ELin1ELin1EEELin1ELi1ELb0EEEEENS0_10IndexBasedEdEC2ERKS7_"
 "_ZN5Eigen8internal15unary_evaluatorINS_12ArrayWrapperINS_5BlockINS_6MatrixIdLin1ELin1ELi0ELin1ELin1EEELin1ELi1ELb0EEEEENS0_10IndexBasedEdED2Ev"
 "_ZN5Eigen8internal15unary_evaluatorINS_12ArrayWrapperINS_6MatrixIdLin1ELi1ELi0ELin1ELi1EEEEENS0_10IndexBasedEdEC2ERKS5_"
 "_ZN5Eigen8internal15unary_evaluatorINS_12ArrayWrapperINS_6MatrixIdLin1ELi1ELi0ELin1ELi1EEEEENS0_10IndexBasedEdED2Ev"
 "_ZN5Eigen8internal15unary_evaluatorINS_12ArrayWrapperINS_6MatrixIdLin1ELin1ELi0ELin1ELin1EEEEENS0_10IndexBasedEdEC2ERKS5_"
 "_ZN5Eigen8internal15unary_evaluatorINS_12ArrayWrapperINS_6MatrixIdLin1ELin1ELi0ELin1ELin1EEEEENS0_10IndexBasedEdED2Ev"
 "_ZN5Eigen8internal15unary_evaluatorINS_12ArrayWrapperINS_8DiagonalIKNS_6MatrixIdLin1ELin1ELi0ELin1ELin1EEELi0EEEEENS0_10IndexBasedEdEC2ERKS8_"
 "_ZN5Eigen8internal15unary_evaluatorINS_12ArrayWrapperINS_8DiagonalIKNS_6MatrixIdLin1ELin1ELi0ELin1ELin1EEELi0EEEEENS0_10IndexBasedEdED2Ev"
 "_ZN5Eigen8internal15unary_evaluatorINS_12ArrayWrapperINS_8DiagonalINS_6MatrixIdLin1ELin1ELi0ELin1ELin1EEELi0EEEEENS0_10IndexBasedEdED2Ev"
 "_ZN5Eigen8internal15unary_evaluatorINS_12CwiseUnaryOpINS0_13scalar_abs_opIdEEKNS_5BlockINS5_INS_6MatrixIdLin1ELin1ELi0ELin1ELin1EEELi1ELin1ELb0EEELi1ELin1ELb0EEEEENS0_10IndexBasedEdEC2ERKSB_"
 "_ZN5Eigen8internal15unary_evaluatorINS_12CwiseUnaryOpINS0_13scalar_abs_opIdEEKNS_5BlockINS5_INS_6MatrixIdLin1ELin1ELi0ELin1ELin1EEELi1ELin1ELb0EEELi1ELin1ELb0EEEEENS0_10IndexBasedEdED2Ev"
 "_ZN5Eigen8internal15unary_evaluatorINS_12CwiseUnaryOpINS0_13scalar_abs_opIdEEKNS_5BlockINS5_INS_6MatrixIdLin1ELin1ELi0ELin1ELin1EEELin1ELi1ELb1EEELin1ELi1ELb0EEEEENS0_10IndexBasedEdEC2ERKSB_"
 "_ZN5Eigen8internal15unary_evaluatorINS_12CwiseUnaryOpINS0_13scalar_abs_opIdEEKNS_5BlockINS5_INS_6MatrixIdLin1ELin1ELi0ELin1ELin1EEELin1ELi1ELb1EEELin1ELi1ELb0EEEEENS0_10IndexBasedEdED2Ev"
 "_ZN5Eigen8internal15unary_evaluatorINS_12CwiseUnaryOpINS0_13scalar_abs_opIdEEKNS_5BlockINS_8DiagonalINS_6MatrixIdLin1ELin1ELi0ELin1ELin1EEELi0EEELin1ELi1ELb0EEEEENS0_10IndexBasedEdEC2ERKSC_"
 "_ZN5Eigen8internal15unary_evaluatorINS_12CwiseUnaryOpINS0_13scalar_abs_opIdEEKNS_5BlockINS_8DiagonalINS_6MatrixIdLin1ELin1ELi0ELin1ELin1EEELi0EEELin1ELi1ELb0EEEEENS0_10IndexBasedEdED2Ev"
 "_ZN5Eigen8internal15unary_evaluatorINS_12CwiseUnaryOpINS0_13scalar_abs_opIdEEKNS_6MatrixIdLin1ELin1ELi0ELin1ELin1EEEEENS0_10IndexBasedEdEC2ERKS8_"
 "_ZN5Eigen8internal15unary_evaluatorINS_12CwiseUnaryOpINS0_13scalar_abs_opIdEEKNS_6MatrixIdLin1ELin1ELi0ELin1ELin1EEEEENS0_10IndexBasedEdED2Ev"
 "_ZN5Eigen8internal15unary_evaluatorINS_12CwiseUnaryOpINS0_13scalar_exp_opIdEEKNS_12ArrayWrapperIKNS_6MatrixIdLin1ELi1ELi0ELin1ELi1EEEEEEENS0_10IndexBasedEdEC2ERKSB_"
 "_ZN5Eigen8internal15unary_evaluatorINS_12CwiseUnaryOpINS0_13scalar_exp_opIdEEKNS_12ArrayWrapperIKNS_6MatrixIdLin1ELi1ELi0ELin1ELi1EEEEEEENS0_10IndexBasedEdED2Ev"
 "_ZN5Eigen8internal15unary_evaluatorINS_12CwiseUnaryOpINS0_14scalar_abs2_opIdEEKNS_5BlockIKNS5_INS5_INS_6MatrixIdLin1ELin1ELi0ELin1ELin1EEELin1ELi1ELb1EEELin1ELi1ELb0EEELin1ELi1ELb0EEEEENS0_10IndexBasedEdEC2ERKSD_"
 "_ZN5Eigen8internal15unary_evaluatorINS_12CwiseUnaryOpINS0_14scalar_abs2_opIdEEKNS_5BlockIKNS5_INS5_INS_6MatrixIdLin1ELin1ELi0ELin1ELin1EEELin1ELi1ELb1EEELin1ELi1ELb0EEELin1ELi1ELb0EEEEENS0_10IndexBasedEdED2Ev"
 "_ZN5Eigen8internal15unary_evaluatorINS_12CwiseUnaryOpINS0_14scalar_abs2_opIdEEKNS_5BlockINS5_INS_6MatrixIdLin1ELin1ELi0ELin1ELin1EEELin1ELin1ELb0EEELi1ELin1ELb0EEEEENS0_10IndexBasedEdEC2ERKSB_"
 "_ZN5Eigen8internal15unary_evaluatorINS_12CwiseUnaryOpINS0_14scalar_abs2_opIdEEKNS_5BlockINS5_INS_6MatrixIdLin1ELin1ELi0ELin1ELin1EEELin1ELin1ELb0EEELi1ELin1ELb0EEEEENS0_10IndexBasedEdED2Ev"
 "_ZN5Eigen8internal15unary_evaluatorINS_12CwiseUnaryOpINS0_14scalar_abs2_opIdEEKNS_5BlockINS_6MatrixIdLin1ELin1ELi0ELin1ELin1EEELi1ELin1ELb0EEEEENS0_10IndexBasedEdEC2ERKSA_"
 "_ZN5Eigen8internal15unary_evaluatorINS_12CwiseUnaryOpINS0_14scalar_abs2_opIdEEKNS_5BlockINS_6MatrixIdLin1ELin1ELi0ELin1ELin1EEELi1ELin1ELb0EEEEENS0_10IndexBasedEdED2Ev"
 "_ZN5Eigen8internal15unary_evaluatorINS_12CwiseUnaryOpINS0_14scalar_abs2_opIdEEKNS_6MatrixIdLin1ELi1ELi0ELin1ELi1EEEEENS0_10IndexBasedEdEC2ERKS8_"
 "_ZN5Eigen8internal15unary_evaluatorINS_12CwiseUnaryOpINS0_14scalar_abs2_opIdEEKNS_6MatrixIdLin1ELi1ELi0ELin1ELi1EEEEENS0_10IndexBasedEdED2Ev"
 "_ZN5Eigen8internal15unary_evaluatorINS_12CwiseUnaryOpINS0_14scalar_sqrt_opIdEEKNS_12ArrayWrapperIKNS_6MatrixIdLin1ELi1ELi0ELin1ELi1EEEEEEENS0_10IndexBasedEdEC2ERKSB_"
 "_ZN5Eigen8internal15unary_evaluatorINS_12CwiseUnaryOpINS0_14scalar_sqrt_opIdEEKNS_12ArrayWrapperIKNS_6MatrixIdLin1ELi1ELi0ELin1ELi1EEEEEEENS0_10IndexBasedEdED2Ev"
 "_ZN5Eigen8internal15unary_evaluatorINS_12CwiseUnaryOpINS0_14scalar_sqrt_opIdEEKNS_12ArrayWrapperIKNS_6MatrixIdLin1ELin1ELi0ELin1ELin1EEEEEEENS0_10IndexBasedEdEC2ERKSB_"
 "_ZN5Eigen8internal15unary_evaluatorINS_12CwiseUnaryOpINS0_14scalar_sqrt_opIdEEKNS_12ArrayWrapperIKNS_6MatrixIdLin1ELin1ELi0ELin1ELin1EEEEEEENS0_10IndexBasedEdED2Ev"
 "_ZN5Eigen8internal15unary_evaluatorINS_12CwiseUnaryOpINS0_16scalar_square_opIdEEKNS_12ArrayWrapperIKNS_6MatrixIdLin1ELi1ELi0ELin1ELi1EEEEEEENS0_10IndexBasedEdEC2ERKSB_"
 "_ZN5Eigen8internal15unary_evaluatorINS_12CwiseUnaryOpINS0_16scalar_square_opIdEEKNS_12ArrayWrapperIKNS_6MatrixIdLin1ELi1ELi0ELin1ELi1EEEEEEENS0_10IndexBasedEdED2Ev"
 "_ZN5Eigen8internal15unary_evaluatorINS_12CwiseUnaryOpINS0_16scalar_square_opIdEEKNS_12ArrayWrapperIKNS_6MatrixIdLin1ELin1ELi0ELin1ELin1EEEEEEENS0_10IndexBasedEdEC2ERKSB_"
 "_ZN5Eigen8internal15unary_evaluatorINS_12CwiseUnaryOpINS0_16scalar_square_opIdEEKNS_12ArrayWrapperIKNS_6MatrixIdLin1ELin1ELi0ELin1ELin1EEEEEEENS0_10IndexBasedEdED2Ev"
 "_ZN5Eigen8internal15unary_evaluatorINS_12CwiseUnaryOpINS0_17scalar_inverse_opIdEEKNS_12ArrayWrapperIKNS_8DiagonalIKNS_6MatrixIdLin1ELin1ELi0ELin1ELin1EEELi0EEEEEEENS0_10IndexBasedEdED2Ev"
 "_ZN5Eigen8internal15unary_evaluatorINS_12CwiseUnaryOpINS0_18scalar_opposite_opIdEEKNS_6MatrixIdLin1ELi1ELi0ELin1ELi1EEEEENS0_10IndexBasedEdEC2ERKS8_"
 "_ZN5Eigen8internal15unary_evaluatorINS_12CwiseUnaryOpINS0_18scalar_opposite_opIdEEKNS_6MatrixIdLin1ELi1ELi0ELin1ELi1EEEEENS0_10IndexBasedEdED2Ev"
 "_ZN5Eigen8internal15unary_evaluatorINS_12CwiseUnaryOpINS0_18scalar_opposite_opIdEEKNS_7ProductINS_6MatrixIdLin1ELin1ELi0ELin1ELin1EEENS6_IdLin1ELi1ELi0ELin1ELi1EEELi0EEEEENS0_10IndexBasedEdEC2ERKSB_"
 "_ZN5Eigen8internal15unary_evaluatorINS_12CwiseUnaryOpINS0_18scalar_opposite_opIdEEKNS_7ProductINS_6MatrixIdLin1ELin1ELi0ELin1ELin1EEENS6_IdLin1ELi1ELi0ELin1ELi1EEELi0EEEEENS0_10IndexBasedEdED2Ev"
 "_ZN5Eigen8internal15unary_evaluatorINS_12CwiseUnaryOpINS_10MatrixBaseINS_6MatrixIN4stan4math3varELin1ELi1ELi0ELin1ELi1EEEE5vi_OpEKS8_EENS0_10IndexBasedEPNS6_4variEEC2ERKSC_"
 "_ZN5Eigen8internal15unary_evaluatorINS_12CwiseUnaryOpINS_10MatrixBaseINS_6MatrixIN4stan4math3varELin1ELi1ELi0ELin1ELi1EEEE5vi_OpEKS8_EENS0_10IndexBasedEPNS6_4variEED2Ev"
 "_ZN5Eigen8internal15unary_evaluatorINS_12CwiseUnaryOpINS_10MatrixBaseINS_6MatrixIN4stan4math3varELin1ELi1ELi0ELin1ELi1EEEE6val_OpEKS8_EENS0_10IndexBasedEdEC2ERKSC_"
 "_ZN5Eigen8internal15unary_evaluatorINS_12CwiseUnaryOpINS_10MatrixBaseINS_6MatrixIN4stan4math3varELin1ELi1ELi0ELin1ELi1EEEE6val_OpEKS8_EENS0_10IndexBasedEdED2Ev"
 "_ZN5Eigen8internal15unary_evaluatorINS_12CwiseUnaryOpIZN4stan4math17multiply_mat_variIdLin1ELin1ENS4_3varELi1EEC4ERKNS_6MatrixIdLin1ELin1ELi0ELin1ELin1EEERKNS8_IS6_Lin1ELi1ELi0ELin1ELi1EEEEUldE_KNS_7ProductINS_3MapIS9_Li0ENS_6StrideILi0ELi0EEEEESK_Li0EEEEENS0_10IndexBasedEPNS4_4variEEC2ERKSN_"
 "_ZN5Eigen8internal15unary_evaluatorINS_12CwiseUnaryOpIZN4stan4math17multiply_mat_variIdLin1ELin1ENS4_3varELi1EEC4ERKNS_6MatrixIdLin1ELin1ELi0ELin1ELin1EEERKNS8_IS6_Lin1ELi1ELi0ELin1ELi1EEEEUldE_KNS_7ProductINS_3MapIS9_Li0ENS_6StrideILi0ELi0EEEEESK_Li0EEEEENS0_10IndexBasedEPNS4_4variEED2Ev"
 "_ZN5Eigen8internal15unary_evaluatorINS_12CwiseUnaryOpIZN4stan4math18apply_scalar_unaryINS4_7exp_funENS_6MatrixINS4_3varELin1ELi1ELi0ELin1ELi1EEEE5applyERKS9_EUlS8_E_SB_EENS0_10IndexBasedES8_EC2ERKSE_"
 "_ZN5Eigen8internal15unary_evaluatorINS_12CwiseUnaryOpIZN4stan4math18apply_scalar_unaryINS4_7exp_funENS_6MatrixINS4_3varELin1ELi1ELi0ELin1ELi1EEEE5applyERKS9_EUlS8_E_SB_EENS0_10IndexBasedES8_ED2Ev"
 "_ZN5Eigen8internal15unary_evaluatorINS_12CwiseUnaryOpIZN4stan4math18apply_scalar_unaryINS4_7exp_funENS_6MatrixIdLin1ELi1ELi0ELin1ELi1EEEE5applyERKS8_EUldE_SA_EENS0_10IndexBasedEdEC2ERKSD_"
 "_ZN5Eigen8internal15unary_evaluatorINS_12CwiseUnaryOpIZN4stan4math18apply_scalar_unaryINS4_7exp_funENS_6MatrixIdLin1ELi1ELi0ELin1ELi1EEEE5applyERKS8_EUldE_SA_EENS0_10IndexBasedEdED2Ev"
 "_ZN5Eigen8internal15unary_evaluatorINS_12CwiseUnaryOpIZN4stan4math18apply_scalar_unaryINS4_7log_funENS_6MatrixINS4_3varELin1ELi1ELi0ELin1ELi1EEEE5applyERKS9_EUlS8_E_SB_EENS0_10IndexBasedES8_EC2ERKSE_"
 "_ZN5Eigen8internal15unary_evaluatorINS_12CwiseUnaryOpIZN4stan4math18apply_scalar_unaryINS4_7log_funENS_6MatrixINS4_3varELin1ELi1ELi0ELin1ELi1EEEE5applyERKS9_EUlS8_E_SB_EENS0_10IndexBasedES8_ED2Ev"
 "_ZN5Eigen8internal15unary_evaluatorINS_12CwiseUnaryOpIZN4stan4math18apply_scalar_unaryINS4_7log_funENS_6MatrixIdLin1ELi1ELi0ELin1ELi1EEEE5applyERKS8_EUldE_SA_EENS0_10IndexBasedEdEC2ERKSD_"
 "_ZN5Eigen8internal15unary_evaluatorINS_12CwiseUnaryOpIZN4stan4math18apply_scalar_unaryINS4_7log_funENS_6MatrixIdLin1ELi1ELi0ELin1ELi1EEEE5applyERKS8_EUldE_SA_EENS0_10IndexBasedEdED2Ev"
 "_ZN5Eigen8internal15unary_evaluatorINS_14CwiseUnaryViewINS_10MatrixBaseINS_3MapINS_6MatrixIPN4stan4math4variELin1ELi1ELi0ELin1ELi1EEELi0ENS_6StrideILi0ELi0EEEEEE6adj_OpESD_EENS0_10IndexBasedEdE8coeffRefEx"
 "_ZN5Eigen8internal15unary_evaluatorINS_14CwiseUnaryViewINS_10MatrixBaseINS_3MapINS_6MatrixIPN4stan4math4variELin1ELi1ELi0ELin1ELi1EEELi0ENS_6StrideILi0ELi0EEEEEE6adj_OpESD_EENS0_10IndexBasedEdEC2ERKSG_"
 "_ZN5Eigen8internal15unary_evaluatorINS_14CwiseUnaryViewINS_10MatrixBaseINS_3MapINS_6MatrixIPN4stan4math4variELin1ELi1ELi0ELin1ELi1EEELi0ENS_6StrideILi0ELi0EEEEEE6adj_OpESD_EENS0_10IndexBasedEdED2Ev"
 "_ZN5Eigen8internal15unary_evaluatorINS_14CwiseUnaryViewINS_10MatrixBaseINS_3MapINS_6MatrixIPN4stan4math4variELin1ELin1ELi0ELin1ELin1EEELi0ENS_6StrideILi0ELi0EEEEEE6adj_OpESD_EENS0_10IndexBasedEdE8coeffRefEx"
 "_ZN5Eigen8internal15unary_evaluatorINS_14CwiseUnaryViewINS_10MatrixBaseINS_3MapINS_6MatrixIPN4stan4math4variELin1ELin1ELi0ELin1ELin1EEELi0ENS_6StrideILi0ELi0EEEEEE6adj_OpESD_EENS0_10IndexBasedEdEC2ERKSG_"
 "_ZN5Eigen8internal15unary_evaluatorINS_14CwiseUnaryViewINS_10MatrixBaseINS_3MapINS_6MatrixIPN4stan4math4variELin1ELin1ELi0ELin1ELin1EEELi0ENS_6StrideILi0ELi0EEEEEE6adj_OpESD_EENS0_10IndexBasedEdED2Ev"
 "_ZN5Eigen8internal15unary_evaluatorINS_14CwiseUnaryViewINS_10MatrixBaseINS_6MatrixIN4stan4math3varELin1ELi1ELi0ELin1ELi1EEEE5vi_OpES8_EENS0_10IndexBasedEPNS6_4variEE8coeffRefEx"
 "_ZN5Eigen8internal15unary_evaluatorINS_14CwiseUnaryViewINS_10MatrixBaseINS_6MatrixIN4stan4math3varELin1ELi1ELi0ELin1ELi1EEEE5vi_OpES8_EENS0_10IndexBasedEPNS6_4variEEC2ERKSB_"
 "_ZN5Eigen8internal15unary_evaluatorINS_14CwiseUnaryViewINS_10MatrixBaseINS_6MatrixIN4stan4math3varELin1ELi1ELi0ELin1ELi1EEEE5vi_OpES8_EENS0_10IndexBasedEPNS6_4variEED2Ev"
 "_ZN5Eigen8internal15unary_evaluatorINS_14CwiseUnaryViewINS_10MatrixBaseINS_6MatrixIN4stan4math3varELin1ELi1ELi0ELin1ELi1EEEE6adj_OpES8_EENS0_10IndexBasedEdEC2ERKSB_"
 "_ZN5Eigen8internal15unary_evaluatorINS_14CwiseUnaryViewINS_10MatrixBaseINS_6MatrixIN4stan4math3varELin1ELi1ELi0ELin1ELi1EEEE6adj_OpES8_EENS0_10IndexBasedEdED2Ev"
 "_ZN5Eigen8internal15unary_evaluatorINS_14TriangularViewIKNS_6MatrixIdLin1ELin1ELi0ELin1ELin1EEELj1EEENS0_10IndexBasedEdEC2ERKS6_"
 "_ZN5Eigen8internal15unary_evaluatorINS_14TriangularViewIKNS_6MatrixIdLin1ELin1ELi0ELin1ELin1EEELj1EEENS0_10IndexBasedEdED2Ev"
 "_ZN5Eigen8internal15unary_evaluatorINS_14TriangularViewINS_6MatrixIdLin1ELin1ELi0ELin1ELin1EEELj1EEENS0_10IndexBasedEdEC2ERKS5_"
 "_ZN5Eigen8internal15unary_evaluatorINS_14TriangularViewINS_6MatrixIdLin1ELin1ELi0ELin1ELin1EEELj1EEENS0_10IndexBasedEdED2Ev"
 "_ZN5Eigen8internal15unary_evaluatorINS_9TransposeIKNS_3MapINS_6MatrixIdLi1ELin1ELi1ELi1ELin1EEELi0ENS_6StrideILi0ELi0EEEEEEENS0_10IndexBasedEdED2Ev"
 "_ZN5Eigen8internal15unary_evaluatorINS_9TransposeIKNS_5BlockINS_6MatrixIdLin1ELin1ELi0ELin1ELin1EEELi1ELin1ELb0EEEEENS0_10IndexBasedEdED2Ev"
 "_ZN5Eigen8internal15unary_evaluatorINS_9TransposeIKNS_6MatrixIdLi1ELin1ELi1ELi1ELin1EEEEENS0_10IndexBasedEdED2Ev"
 "_ZN5Eigen8internal15unary_evaluatorINS_9TransposeIKNS_6MatrixIdLin1ELi1ELi0ELin1ELi1EEEEENS0_10IndexBasedEdEC2ERKS6_"
 "_ZN5Eigen8internal15unary_evaluatorINS_9TransposeIKNS_6MatrixIdLin1ELi1ELi0ELin1ELi1EEEEENS0_10IndexBasedEdED2Ev"
 "_ZN5Eigen8internal15unary_evaluatorINS_9TransposeINS_3MapINS_6MatrixIdLin1ELin1ELi0ELin1ELin1EEELi0ENS_6StrideILi0ELi0EEEEEEENS0_10IndexBasedEdEC2ERKS9_"
 "_ZN5Eigen8internal15unary_evaluatorINS_9TransposeINS_3MapINS_6MatrixIdLin1ELin1ELi0ELin1ELin1EEELi0ENS_6StrideILi0ELi0EEEEEEENS0_10IndexBasedEdED2Ev"
 "_ZN5Eigen8internal15unary_evaluatorINS_9TransposeINS_6MatrixIdLin1ELi1ELi0ELin1ELi1EEEEENS0_10IndexBasedEdE8coeffRefEx"
 "_ZN5Eigen8internal15unary_evaluatorINS_9TransposeINS_6MatrixIdLin1ELi1ELi0ELin1ELi1EEEEENS0_10IndexBasedEdEC2ERKS5_"
 "_ZN5Eigen8internal15unary_evaluatorINS_9TransposeINS_6MatrixIdLin1ELi1ELi0ELin1ELi1EEEEENS0_10IndexBasedEdED2Ev"
 "_ZN5Eigen8internal15unary_evaluatorINS_9TransposeINS_6MatrixIdLin1ELin1ELi0ELin1ELin1EEEEENS0_10IndexBasedEdED2Ev"
 "_ZN5Eigen8internal16binary_evaluatorINS_13CwiseBinaryOpINS0_13scalar_cmp_opIddLNS0_14ComparisonNameE0EEEKNS_12ArrayWrapperIKNS2_INS0_20scalar_difference_opIddEEKNS_6MatrixIdLin1ELi1ELi0ELin1ELi1EEESB_EEEESF_EENS0_10IndexBasedESH_ddEC2ERKSG_"
 "_ZN5Eigen8internal16binary_evaluatorINS_13CwiseBinaryOpINS0_13scalar_cmp_opIddLNS0_14ComparisonNameE0EEEKNS_12ArrayWrapperIKNS2_INS0_20scalar_difference_opIddEEKNS_6MatrixIdLin1ELi1ELi0ELin1ELi1EEESB_EEEESF_EENS0_10IndexBasedESH_ddED2Ev"
 "_ZN5Eigen8internal16binary_evaluatorINS_13CwiseBinaryOpINS0_13scalar_cmp_opIddLNS0_14ComparisonNameE0EEEKNS_12ArrayWrapperINS_5BlockINS7_INS_6MatrixIdLin1ELin1ELi0ELin1ELin1EEELin1ELi1ELb1EEELin1ELi1ELb0EEEEEKNS_14CwiseNullaryOpINS0_18scalar_constant_opIdEENS_5ArrayIdLin1ELi1ELi0ELin1ELi1EEEEEEENS0_10IndexBasedESM_ddEC2ERKSL_"
 "_ZN5Eigen8internal16binary_evaluatorINS_13CwiseBinaryOpINS0_13scalar_cmp_opIddLNS0_14ComparisonNameE0EEEKNS_12ArrayWrapperINS_5BlockINS7_INS_6MatrixIdLin1ELin1ELi0ELin1ELin1EEELin1ELi1ELb1EEELin1ELi1ELb0EEEEEKNS_14CwiseNullaryOpINS0_18scalar_constant_opIdEENS_5ArrayIdLin1ELi1ELi0ELin1ELi1EEEEEEENS0_10IndexBasedESM_ddED2Ev"
 "_ZN5Eigen8internal16binary_evaluatorINS_13CwiseBinaryOpINS0_13scalar_cmp_opIddLNS0_14ComparisonNameE0EEEKNS_12ArrayWrapperINS_5BlockINS_6MatrixIdLin1ELin1ELi0ELin1ELin1EEELin1ELi1ELb0EEEEEKNS_14CwiseNullaryOpINS0_18scalar_constant_opIdEENS_5ArrayIdLin1ELi1ELi0ELin1ELi1EEEEEEENS0_10IndexBasedESL_ddEC2ERKSK_"
 "_ZN5Eigen8internal16binary_evaluatorINS_13CwiseBinaryOpINS0_13scalar_cmp_opIddLNS0_14ComparisonNameE0EEEKNS_12ArrayWrapperINS_5BlockINS_6MatrixIdLin1ELin1ELi0ELin1ELin1EEELin1ELi1ELb0EEEEEKNS_14CwiseNullaryOpINS0_18scalar_constant_opIdEENS_5ArrayIdLin1ELi1ELi0ELin1ELi1EEEEEEENS0_10IndexBasedESL_ddED2Ev"
 "_ZN5Eigen8internal16binary_evaluatorINS_13CwiseBinaryOpINS0_13scalar_cmp_opIddLNS0_14ComparisonNameE2EEEKNS_12ArrayWrapperINS_8DiagonalIKNS_6MatrixIdLin1ELin1ELi0ELin1ELin1EEELi0EEEEEKNS_14CwiseNullaryOpINS0_18scalar_constant_opIdEENS_5ArrayIdLin1ELi1ELi0ELin1ELi1EEEEEEENS0_10IndexBasedESM_ddEC2ERKSL_"
 "_ZN5Eigen8internal16binary_evaluatorINS_13CwiseBinaryOpINS0_13scalar_cmp_opIddLNS0_14ComparisonNameE2EEEKNS_12ArrayWrapperINS_8DiagonalIKNS_6MatrixIdLin1ELin1ELi0ELin1ELin1EEELi0EEEEEKNS_14CwiseNullaryOpINS0_18scalar_constant_opIdEENS_5ArrayIdLin1ELi1ELi0ELin1ELi1EEEEEEENS0_10IndexBasedESM_ddED2Ev"
 "_ZN5Eigen8internal16binary_evaluatorINS_13CwiseBinaryOpINS0_13scalar_sum_opIdN4stan4math3varEEEKNS_14CwiseNullaryOpINS0_18scalar_constant_opIdEEKNS_5ArrayIdLin1ELi1ELi0ELin1ELi1EEEEEKNS_12ArrayWrapperIKNS_6MatrixIS6_Lin1ELi1ELi0ELin1ELi1EEEEEEENS0_10IndexBasedESN_dS6_EC2ERKSM_"
 "_ZN5Eigen8internal16binary_evaluatorINS_13CwiseBinaryOpINS0_13scalar_sum_opIdN4stan4math3varEEEKNS_14CwiseNullaryOpINS0_18scalar_constant_opIdEEKNS_5ArrayIdLin1ELi1ELi0ELin1ELi1EEEEEKNS_12ArrayWrapperIKNS_6MatrixIS6_Lin1ELi1ELi0ELin1ELi1EEEEEEENS0_10IndexBasedESN_dS6_ED2Ev"
 "_ZN5Eigen8internal16binary_evaluatorINS_13CwiseBinaryOpINS0_13scalar_sum_opIddEEKNS2_INS0_17scalar_product_opIddEEKNS_12ArrayWrapperIKNS_6MatrixIdLin1ELi1ELi0ELin1ELi1EEEEEKNS_12CwiseUnaryOpINS0_13scalar_exp_opIdEESC_EEEESC_EENS0_10IndexBasedESL_ddEC2ERKSK_"
 "_ZN5Eigen8internal16binary_evaluatorINS_13CwiseBinaryOpINS0_13scalar_sum_opIddEEKNS2_INS0_17scalar_product_opIddEEKNS_12ArrayWrapperIKNS_6MatrixIdLin1ELi1ELi0ELin1ELi1EEEEEKNS_12CwiseUnaryOpINS0_13scalar_exp_opIdEESC_EEEESC_EENS0_10IndexBasedESL_ddED2Ev"
 "_ZN5Eigen8internal16binary_evaluatorINS_13CwiseBinaryOpINS0_13scalar_sum_opIddEEKNS2_INS0_17scalar_product_opIddEEKNS_14CwiseNullaryOpINS0_18scalar_constant_opIdEEKNS_6MatrixIdLin1ELi1ELi0ELin1ELi1EEEEEKNS_5BlockIKNSF_ISB_Lin1ELi1ELb0EEELin1ELi1ELb0EEEEEKNS2_IS6_SE_KNSF_IKNSF_INSF_INSA_IdLin1ELin1ELi0ELin1ELin1EEELin1ELi1ELb1EEELin1ELi1ELb0EEELin1ELi1ELb0EEEEEEENS0_10IndexBasedESV_ddEC2ERKSU_"
 "_ZN5Eigen8internal16binary_evaluatorINS_13CwiseBinaryOpINS0_13scalar_sum_opIddEEKNS2_INS0_17scalar_product_opIddEEKNS_14CwiseNullaryOpINS0_18scalar_constant_opIdEEKNS_6MatrixIdLin1ELi1ELi0ELin1ELi1EEEEEKNS_5BlockIKNSF_ISB_Lin1ELi1ELb0EEELin1ELi1ELb0EEEEEKNS2_IS6_SE_KNSF_IKNSF_INSF_INSA_IdLin1ELin1ELi0ELin1ELin1EEELin1ELi1ELb1EEELin1ELi1ELb0EEELin1ELi1ELb0EEEEEEENS0_10IndexBasedESV_ddED2Ev"
 "_ZN5Eigen8internal16binary_evaluatorINS_13CwiseBinaryOpINS0_13scalar_sum_opIddEEKNS2_INS0_17scalar_product_opIddEEKNS_14CwiseNullaryOpINS0_18scalar_constant_opIdEEKNS_6MatrixIdLin1ELi1ELi0ELin1ELi1EEEEESC_EEKNS2_IS6_SE_KNS7_IS9_SB_EEEEEENS0_10IndexBasedESM_ddEC2ERKSL_"
 "_ZN5Eigen8internal16binary_evaluatorINS_13CwiseBinaryOpINS0_13scalar_sum_opIddEEKNS2_INS0_17scalar_product_opIddEEKNS_14CwiseNullaryOpINS0_18scalar_constant_opIdEEKNS_6MatrixIdLin1ELi1ELi0ELin1ELi1EEEEESC_EEKNS2_IS6_SE_KNS7_IS9_SB_EEEEEENS0_10IndexBasedESM_ddED2Ev"
 "_ZN5Eigen8internal16binary_evaluatorINS_13CwiseBinaryOpINS0_13scalar_sum_opIddEEKNS2_INS0_17scalar_product_opIddEEKNS_14CwiseNullaryOpINS0_18scalar_constant_opIdEEKNS_6MatrixIdLin1ELin1ELi0ELin1ELin1EEEEESC_EEKNS2_IS6_SE_KNS7_INS0_18scalar_identity_opIdEESB_EEEEEENS0_10IndexBasedESO_ddEC2ERKSN_"
 "_ZN5Eigen8internal16binary_evaluatorINS_13CwiseBinaryOpINS0_13scalar_sum_opIddEEKNS2_INS0_17scalar_product_opIddEEKNS_14CwiseNullaryOpINS0_18scalar_constant_opIdEEKNS_6MatrixIdLin1ELin1ELi0ELin1ELin1EEEEESC_EEKNS2_IS6_SE_KNS7_INS0_18scalar_identity_opIdEESB_EEEEEENS0_10IndexBasedESO_ddED2Ev"
 "_ZN5Eigen8internal16binary_evaluatorINS_13CwiseBinaryOpINS0_13scalar_sum_opIddEEKNS_14CwiseNullaryOpINS0_18scalar_constant_opIdEEKNS_5ArrayIdLin1ELi1ELi0ELin1ELi1EEEEEKNS_12ArrayWrapperIKNS_6MatrixIdLin1ELi1ELi0ELin1ELi1EEEEEEENS0_10IndexBasedESK_ddEC2ERKSJ_"
 "_ZN5Eigen8internal16binary_evaluatorINS_13CwiseBinaryOpINS0_13scalar_sum_opIddEEKNS_14CwiseNullaryOpINS0_18scalar_constant_opIdEEKNS_5ArrayIdLin1ELi1ELi0ELin1ELi1EEEEEKNS_12ArrayWrapperIKNS_6MatrixIdLin1ELi1ELi0ELin1ELi1EEEEEEENS0_10IndexBasedESK_ddED2Ev"
 "_ZN5Eigen8internal16binary_evaluatorINS_13CwiseBinaryOpINS0_13scalar_sum_opIddEEKNS_6MatrixIdLin1ELi1ELi0ELin1ELi1EEEKNS2_INS0_17scalar_product_opIddEEKNS_14CwiseNullaryOpINS0_18scalar_constant_opIdEES7_EES7_EEEENS0_10IndexBasedESI_ddEC2ERKSH_"
 "_ZN5Eigen8internal16binary_evaluatorINS_13CwiseBinaryOpINS0_13scalar_sum_opIddEEKNS_6MatrixIdLin1ELi1ELi0ELin1ELi1EEEKNS2_INS0_17scalar_product_opIddEEKNS_14CwiseNullaryOpINS0_18scalar_constant_opIdEES7_EES7_EEEENS0_10IndexBasedESI_ddED2Ev"
 "_ZN5Eigen8internal16binary_evaluatorINS_13CwiseBinaryOpINS0_13scalar_sum_opIddEEKNS_7ProductINS_6MatrixIdLin1ELin1ELi0ELin1ELin1EEENS6_IdLin1ELi1ELi0ELin1ELi1EEELi0EEEKS8_EENS0_10IndexBasedESD_ddEC2ERKSC_"
 "_ZN5Eigen8internal16binary_evaluatorINS_13CwiseBinaryOpINS0_13scalar_sum_opIddEEKNS_7ProductINS_6MatrixIdLin1ELin1ELi0ELin1ELin1EEENS6_IdLin1ELi1ELi0ELin1ELi1EEELi0EEEKS8_EENS0_10IndexBasedESD_ddED2Ev"
 "_ZN5Eigen8internal16binary_evaluatorINS_13CwiseBinaryOpINS0_17scalar_product_opIN4stan4math3varES6_EEKNS_6MatrixIS6_Lin1ELi1ELi0ELin1ELi1EEESA_EENS0_10IndexBasedESC_S6_S6_EC2ERKSB_"
 "_ZN5Eigen8internal16binary_evaluatorINS_13CwiseBinaryOpINS0_17scalar_product_opIN4stan4math3varES6_EEKNS_6MatrixIS6_Lin1ELi1ELi0ELin1ELi1EEESA_EENS0_10IndexBasedESC_S6_S6_ED2Ev"
 "_ZN5Eigen8internal16binary_evaluatorINS_13CwiseBinaryOpINS0_17scalar_product_opIddEEKNS_12ArrayWrapperIKNS_6MatrixIdLin1ELi1ELi0ELin1ELi1EEEEEKNS_12CwiseUnaryOpINS0_13scalar_exp_opIdEESA_EEEENS0_10IndexBasedESH_ddEC2ERKSG_"
 "_ZN5Eigen8internal16binary_evaluatorINS_13CwiseBinaryOpINS0_17scalar_product_opIddEEKNS_12ArrayWrapperIKNS_6MatrixIdLin1ELi1ELi0ELin1ELi1EEEEEKNS_12CwiseUnaryOpINS0_13scalar_exp_opIdEESA_EEEENS0_10IndexBasedESH_ddED2Ev"
 "_ZN5Eigen8internal16binary_evaluatorINS_13CwiseBinaryOpINS0_17scalar_product_opIddEEKNS_12ArrayWrapperINS_6MatrixIdLin1ELi1ELi0ELin1ELi1EEEEEKNS_12CwiseUnaryOpINS0_13scalar_exp_opIdEEKNS5_IKS7_EEEEEENS0_10IndexBasedESJ_ddED2Ev"
 "_ZN5Eigen8internal16binary_evaluatorINS_13CwiseBinaryOpINS0_17scalar_product_opIddEEKNS_12ArrayWrapperINS_6MatrixIdLin1ELi1ELi0ELin1ELi1EEEEES9_EENS0_10IndexBasedESB_ddED2Ev"
 "_ZN5Eigen8internal16binary_evaluatorINS_13CwiseBinaryOpINS0_17scalar_product_opIddEEKNS_14CwiseNullaryOpINS0_18scalar_constant_opIdEEKNS_6MatrixIdLi1ELin1ELi1ELi1ELin1EEEEESA_EENS0_10IndexBasedESE_ddEC2ERKSD_"
 "_ZN5Eigen8internal16binary_evaluatorINS_13CwiseBinaryOpINS0_17scalar_product_opIddEEKNS_14CwiseNullaryOpINS0_18scalar_constant_opIdEEKNS_6MatrixIdLi1ELin1ELi1ELi1ELin1EEEEESA_EENS0_10IndexBasedESE_ddED2Ev"
 "_ZN5Eigen8internal16binary_evaluatorINS_13CwiseBinaryOpINS0_17scalar_product_opIddEEKNS_14CwiseNullaryOpINS0_18scalar_constant_opIdEEKNS_6MatrixIdLin1ELi1ELi0ELin1ELi1EEEEEKNS5_IS7_S9_EEEENS0_10IndexBasedESG_ddEC2ERKSF_"
 "_ZN5Eigen8internal16binary_evaluatorINS_13CwiseBinaryOpINS0_17scalar_product_opIddEEKNS_14CwiseNullaryOpINS0_18scalar_constant_opIdEEKNS_6MatrixIdLin1ELi1ELi0ELin1ELi1EEEEEKNS5_IS7_S9_EEEENS0_10IndexBasedESG_ddED2Ev"
 "_ZN5Eigen8internal16binary_evaluatorINS_13CwiseBinaryOpINS0_17scalar_product_opIddEEKNS_14CwiseNullaryOpINS0_18scalar_constant_opIdEEKNS_6MatrixIdLin1ELi1ELi0ELin1ELi1EEEEEKNS_5BlockIKNSD_INSD_INS8_IdLin1ELin1ELi0ELin1ELin1EEELin1ELi1ELb1EEELin1ELi1ELb0EEELin1ELi1ELb0EEEEENS0_10IndexBasedESL_ddED2Ev"
 "_ZN5Eigen8internal16binary_evaluatorINS_13CwiseBinaryOpINS0_17scalar_product_opIddEEKNS_14CwiseNullaryOpINS0_18scalar_constant_opIdEEKNS_6MatrixIdLin1ELi1ELi0ELin1ELi1EEEEEKNS_5BlockIKNSD_IS9_Lin1ELi1ELb0EEELin1ELi1ELb0EEEEENS0_10IndexBasedESJ_ddED2Ev"
 "_ZN5Eigen8internal16binary_evaluatorINS_13CwiseBinaryOpINS0_17scalar_product_opIddEEKNS_14CwiseNullaryOpINS0_18scalar_constant_opIdEEKNS_6MatrixIdLin1ELi1ELi0ELin1ELi1EEEEEKNS_5BlockINSD_INS8_IdLin1ELin1ELi0ELin1ELin1EEELin1ELi1ELb1EEELin1ELi1ELb0EEEEENS0_10IndexBasedESJ_ddEC2ERKSI_"
 "_ZN5Eigen8internal16binary_evaluatorINS_13CwiseBinaryOpINS0_17scalar_product_opIddEEKNS_14CwiseNullaryOpINS0_18scalar_constant_opIdEEKNS_6MatrixIdLin1ELi1ELi0ELin1ELi1EEEEEKNS_5BlockINSD_INS8_IdLin1ELin1ELi0ELin1ELin1EEELin1ELi1ELb1EEELin1ELi1ELb0EEEEENS0_10IndexBasedESJ_ddED2Ev"
 "_ZN5Eigen8internal16binary_evaluatorINS_13CwiseBinaryOpINS0_17scalar_product_opIddEEKNS_14CwiseNullaryOpINS0_18scalar_constant_opIdEEKNS_6MatrixIdLin1ELi1ELi0ELin1ELi1EEEEESA_EENS0_10IndexBasedESE_ddEC2ERKSD_"
 "_ZN5Eigen8internal16binary_evaluatorINS_13CwiseBinaryOpINS0_17scalar_product_opIddEEKNS_14CwiseNullaryOpINS0_18scalar_constant_opIdEEKNS_6MatrixIdLin1ELi1ELi0ELin1ELi1EEEEESA_EENS0_10IndexBasedESE_ddED2Ev"
 "_ZN5Eigen8internal16binary_evaluatorINS_13CwiseBinaryOpINS0_17scalar_product_opIddEEKNS_14CwiseNullaryOpINS0_18scalar_constant_opIdEEKNS_6MatrixIdLin1ELin1ELi0ELin1ELin1EEEEEKNS5_INS0_18scalar_identity_opIdEES9_EEEENS0_10IndexBasedESI_ddEC2ERKSH_"
 "_ZN5Eigen8internal16binary_evaluatorINS_13CwiseBinaryOpINS0_17scalar_product_opIddEEKNS_14CwiseNullaryOpINS0_18scalar_constant_opIdEEKNS_6MatrixIdLin1ELin1ELi0ELin1ELin1EEEEEKNS5_INS0_18scalar_identity_opIdEES9_EEEENS0_10IndexBasedESI_ddED2Ev"
 "_ZN5Eigen8internal16binary_evaluatorINS_13CwiseBinaryOpINS0_17scalar_product_opIddEEKNS_14CwiseNullaryOpINS0_18scalar_constant_opIdEEKNS_6MatrixIdLin1ELin1ELi0ELin1ELin1EEEEESA_EENS0_10IndexBasedESE_ddEC2ERKSD_"
 "_ZN5Eigen8internal16binary_evaluatorINS_13CwiseBinaryOpINS0_17scalar_product_opIddEEKNS_14CwiseNullaryOpINS0_18scalar_constant_opIdEEKNS_6MatrixIdLin1ELin1ELi0ELin1ELin1EEEEESA_EENS0_10IndexBasedESE_ddED2Ev"
 "_ZN5Eigen8internal16binary_evaluatorINS_13CwiseBinaryOpINS0_17scalar_product_opIddEEKNS_6MatrixIdLin1ELi1ELi0ELin1ELi1EEEKNS2_INS0_20scalar_difference_opIddEES7_S7_EEEENS0_10IndexBasedESD_ddEC2ERKSC_"
 "_ZN5Eigen8internal16binary_evaluatorINS_13CwiseBinaryOpINS0_17scalar_product_opIddEEKNS_6MatrixIdLin1ELi1ELi0ELin1ELi1EEEKNS2_INS0_20scalar_difference_opIddEES7_S7_EEEENS0_10IndexBasedESD_ddED2Ev"
 "_ZN5Eigen8internal16binary_evaluatorINS_13CwiseBinaryOpINS0_17scalar_product_opIddEEKNS_6MatrixIdLin1ELi1ELi0ELin1ELi1EEES7_EENS0_10IndexBasedES9_ddEC2ERKS8_"
 "_ZN5Eigen8internal16binary_evaluatorINS_13CwiseBinaryOpINS0_17scalar_product_opIddEEKNS_6MatrixIdLin1ELi1ELi0ELin1ELi1EEES7_EENS0_10IndexBasedES9_ddED2Ev"
 "_ZN5Eigen8internal16binary_evaluatorINS_13CwiseBinaryOpINS0_17scalar_product_opIddEEKNS_9TransposeIKNS_3MapINS_6MatrixIdLi1ELin1ELi1ELi1ELin1EEELi0ENS_6StrideILi0ELi0EEEEEEEKNS6_INS7_IdLin1ELi1ELi0ELin1ELi1EEELi0ESA_EEEENS0_10IndexBasedESJ_ddED2Ev"
 "_ZN5Eigen8internal16binary_evaluatorINS_13CwiseBinaryOpINS0_17scalar_product_opIddEEKNS_9TransposeIKNS_5BlockINS_6MatrixIdLin1ELin1ELi0ELin1ELin1EEELi1ELin1ELb0EEEEEKNS6_INS7_IdLin1ELi1ELi0ELin1ELi1EEELin1ELi1ELb0EEEEENS0_10IndexBasedESH_ddED2Ev"
 "_ZN5Eigen8internal16binary_evaluatorINS_13CwiseBinaryOpINS0_18scalar_quotient_opIdN4stan4math3varEEEKNS_14CwiseNullaryOpINS0_18scalar_constant_opIdEEKNS_5ArrayIdLin1ELi1ELi0ELin1ELi1EEEEEKNS_12ArrayWrapperIKNS_6MatrixIS6_Lin1ELi1ELi0ELin1ELi1EEEEEEENS0_10IndexBasedESN_dS6_EC2ERKSM_"
 "_ZN5Eigen8internal16binary_evaluatorINS_13CwiseBinaryOpINS0_18scalar_quotient_opIdN4stan4math3varEEEKNS_14CwiseNullaryOpINS0_18scalar_constant_opIdEEKNS_5ArrayIdLin1ELi1ELi0ELin1ELi1EEEEEKNS_12ArrayWrapperIKNS_6MatrixIS6_Lin1ELi1ELi0ELin1ELi1EEEEEEENS0_10IndexBasedESN_dS6_ED2Ev"
 "_ZN5Eigen8internal16binary_evaluatorINS_13CwiseBinaryOpINS0_18scalar_quotient_opIddEEKNS_14CwiseNullaryOpINS0_18scalar_constant_opIdEEKNS_5ArrayIdLin1ELi1ELi0ELin1ELi1EEEEEKNS_12ArrayWrapperIKNS_6MatrixIdLin1ELi1ELi0ELin1ELi1EEEEEEENS0_10IndexBasedESK_ddEC2ERKSJ_"
 "_ZN5Eigen8internal16binary_evaluatorINS_13CwiseBinaryOpINS0_18scalar_quotient_opIddEEKNS_14CwiseNullaryOpINS0_18scalar_constant_opIdEEKNS_5ArrayIdLin1ELi1ELi0ELin1ELi1EEEEEKNS_12ArrayWrapperIKNS_6MatrixIdLin1ELi1ELi0ELin1ELi1EEEEEEENS0_10IndexBasedESK_ddED2Ev"
 "_ZN5Eigen8internal16binary_evaluatorINS_13CwiseBinaryOpINS0_18scalar_quotient_opIddEEKNS_5BlockIKNS5_INS5_INS_6MatrixIdLin1ELin1ELi0ELin1ELin1EEELin1ELi1ELb1EEELin1ELi1ELb0EEELin1ELi1ELb0EEEKNS_14CwiseNullaryOpINS0_18scalar_constant_opIdEEKNS6_IdLin1ELi1ELi0ELin1ELi1EEEEEEENS0_10IndexBasedESL_ddED2Ev"
 "_ZN5Eigen8internal16binary_evaluatorINS_13CwiseBinaryOpINS0_18scalar_quotient_opIddEEKNS_6MatrixIdLin1ELi1ELi0ELin1ELi1EEEKNS_14CwiseNullaryOpINS0_18scalar_constant_opIdEES7_EEEENS0_10IndexBasedESE_ddEC2ERKSD_"
 "_ZN5Eigen8internal16binary_evaluatorINS_13CwiseBinaryOpINS0_18scalar_quotient_opIddEEKNS_6MatrixIdLin1ELi1ELi0ELin1ELi1EEEKNS_14CwiseNullaryOpINS0_18scalar_constant_opIdEES7_EEEENS0_10IndexBasedESE_ddED2Ev"
 "_ZN5Eigen8internal16binary_evaluatorINS_13CwiseBinaryOpINS0_18scalar_quotient_opIddEEKNS_6MatrixIdLin1ELin1ELi0ELin1ELin1EEEKNS_14CwiseNullaryOpINS0_18scalar_constant_opIdEES7_EEEENS0_10IndexBasedESE_ddEC2ERKSD_"
 "_ZN5Eigen8internal16binary_evaluatorINS_13CwiseBinaryOpINS0_18scalar_quotient_opIddEEKNS_6MatrixIdLin1ELin1ELi0ELin1ELin1EEEKNS_14CwiseNullaryOpINS0_18scalar_constant_opIdEES7_EEEENS0_10IndexBasedESE_ddED2Ev"
 "_ZN5Eigen8internal16binary_evaluatorINS_13CwiseBinaryOpINS0_20scalar_difference_opIN4stan4math3varES6_EEKNS_14CwiseNullaryOpINS0_18scalar_constant_opIS6_EEKNS_5ArrayIS6_Lin1ELi1ELi0ELin1ELi1EEEEEKNS_12ArrayWrapperIKNS_6MatrixIS6_Lin1ELi1ELi0ELin1ELi1EEEEEEENS0_10IndexBasedESN_S6_S6_EC2ERKSM_"
 "_ZN5Eigen8internal16binary_evaluatorINS_13CwiseBinaryOpINS0_20scalar_difference_opIN4stan4math3varES6_EEKNS_14CwiseNullaryOpINS0_18scalar_constant_opIS6_EEKNS_5ArrayIS6_Lin1ELi1ELi0ELin1ELi1EEEEEKNS_12ArrayWrapperIKNS_6MatrixIS6_Lin1ELi1ELi0ELin1ELi1EEEEEEENS0_10IndexBasedESN_S6_S6_ED2Ev"
 "_ZN5Eigen8internal16binary_evaluatorINS_13CwiseBinaryOpINS0_20scalar_difference_opIN4stan4math3varEdEEKNS_6MatrixIS6_Lin1ELi1ELi0ELin1ELi1EEEKNS8_IdLin1ELi1ELi0ELin1ELi1EEEEENS0_10IndexBasedESE_S6_dEC2ERKSD_"
 "_ZN5Eigen8internal16binary_evaluatorINS_13CwiseBinaryOpINS0_20scalar_difference_opIN4stan4math3varEdEEKNS_6MatrixIS6_Lin1ELi1ELi0ELin1ELi1EEEKNS8_IdLin1ELi1ELi0ELin1ELi1EEEEENS0_10IndexBasedESE_S6_dED2Ev"
 "_ZN5Eigen8internal16binary_evaluatorINS_13CwiseBinaryOpINS0_20scalar_difference_opIddEEKNS_14CwiseNullaryOpINS0_18scalar_constant_opIdEEKNS_5ArrayIdLin1ELi1ELi0ELin1ELi1EEEEEKNS_12ArrayWrapperIKNS_6MatrixIdLin1ELi1ELi0ELin1ELi1EEEEEEENS0_10IndexBasedESK_ddEC2ERKSJ_"
 "_ZN5Eigen8internal16binary_evaluatorINS_13CwiseBinaryOpINS0_20scalar_difference_opIddEEKNS_14CwiseNullaryOpINS0_18scalar_constant_opIdEEKNS_5ArrayIdLin1ELi1ELi0ELin1ELi1EEEEEKNS_12ArrayWrapperIKNS_6MatrixIdLin1ELi1ELi0ELin1ELi1EEEEEEENS0_10IndexBasedESK_ddED2Ev"
 "_ZN5Eigen8internal16binary_evaluatorINS_13CwiseBinaryOpINS0_20scalar_difference_opIddEEKNS_6MatrixIdLin1ELi1ELi0ELin1ELi1EEES7_EENS0_10IndexBasedES9_ddEC2ERKS8_"
 "_ZN5Eigen8internal16binary_evaluatorINS_13CwiseBinaryOpINS0_20scalar_difference_opIddEEKNS_6MatrixIdLin1ELi1ELi0ELin1ELi1EEES7_EENS0_10IndexBasedES9_ddED2Ev"
 "_ZN5Eigen8internal16binary_evaluatorINS_13CwiseBinaryOpINS0_22scalar_conj_product_opIddEEKNS_5BlockINS_6MatrixIdLin1ELi1ELi0ELin1ELi1EEELin1ELi1ELb0EEEKNS5_INS5_INS6_IdLin1ELin1ELi0ELin1ELin1EEELin1ELi1ELb1EEELin1ELi1ELb0EEEEENS0_10IndexBasedESF_ddEC2ERKSE_"
 "_ZN5Eigen8internal16binary_evaluatorINS_13CwiseBinaryOpINS0_22scalar_conj_product_opIddEEKNS_5BlockINS_6MatrixIdLin1ELi1ELi0ELin1ELi1EEELin1ELi1ELb0EEEKNS5_INS5_INS6_IdLin1ELin1ELi0ELin1ELin1EEELin1ELi1ELb1EEELin1ELi1ELb0EEEEENS0_10IndexBasedESF_ddED2Ev"
 "_ZN5Eigen8internal16binary_evaluatorINS_13CwiseBinaryOpINS0_22scalar_conj_product_opIddEEKNS_6MatrixIdLin1ELi1ELi0ELin1ELi1EEES7_EENS0_10IndexBasedES9_ddEC2ERKS8_"
 "_ZN5Eigen8internal16binary_evaluatorINS_13CwiseBinaryOpINS0_22scalar_conj_product_opIddEEKNS_6MatrixIdLin1ELi1ELi0ELin1ELi1EEES7_EENS0_10IndexBasedES9_ddED2Ev"
 "_ZN5Eigen8internal16binary_evaluatorINS_13CwiseBinaryOpINS0_22scalar_conj_product_opIddEEKNS_9TransposeIKNS_6MatrixIdLi1ELin1ELi1ELi1ELin1EEEEEKNS6_IdLin1ELi1ELi0ELin1ELi1EEEEENS0_10IndexBasedESE_ddEC2ERKSD_"
 "_ZN5Eigen8internal16binary_evaluatorINS_13CwiseBinaryOpINS0_22scalar_conj_product_opIddEEKNS_9TransposeIKNS_6MatrixIdLi1ELin1ELi1ELi1ELin1EEEEEKNS6_IdLin1ELi1ELi0ELin1ELi1EEEEENS0_10IndexBasedESE_ddED2Ev"
 "_ZN5Eigen8internal16matrix_swap_implINS_6MatrixIN4stan4math3varELin1ELi1ELi0ELin1ELi1EEES6_Lb1EE3runERS6_S8_"
 "_ZN5Eigen8internal16matrix_swap_implINS_6MatrixIdLi1ELin1ELi1ELi1ELin1EEES3_Lb1EE3runERS3_S5_"
 "_ZN5Eigen8internal16matrix_swap_implINS_6MatrixIdLin1ELi1ELi0ELin1ELi1EEES3_Lb1EE3runERS3_S5_"
 "_ZN5Eigen8internal16matrix_swap_implINS_6MatrixIdLin1ELin1ELi0ELin1ELin1EEES3_Lb1EE3runERS3_S5_"
 "_ZN5Eigen8internal16parallelize_gemmILb1ENS0_12gemm_functorIdxNS0_29general_matrix_matrix_productIxdLi0ELb0EdLi0ELb0ELi0EEENS_6MatrixIdLin1ELin1ELi0ELin1ELin1EEES6_S6_NS0_19gemm_blocking_spaceILi0EddLin1ELin1ELin1ELi1ELb0EEEEExEEvRKT0_T1_SD_SD_b"
 "_ZN5Eigen8internal16parallelize_gemmILb1ENS0_12gemm_functorIdxNS0_29general_matrix_matrix_productIxdLi0ELb0EdLi1ELb0ELi0EEENS_6MatrixIdLin1ELin1ELi0ELin1ELin1EEENS_9TransposeIKS6_EES6_NS0_19gemm_blocking_spaceILi0EddLin1ELin1ELin1ELi1ELb0EEEEExEEvRKT0_T1_SG_SG_b"
 "_ZN5Eigen8internal16scalar_square_opIdEC1ERKS2_"
 "_ZN5Eigen8internal16scalar_square_opIdEC1Ev"
 "_ZN5Eigen8internal16setIdentity_implINS_6MatrixIdLin1ELin1ELi0ELin1ELin1EEELb0EE3runERS3_"
 "_ZN5Eigen8internal17abs2_impl_defaultIdLb0EE3runERKd"
 "_ZN5Eigen8internal17imag_default_implIdLb0EE3runERKd"
 "_ZN5Eigen8internal17isMuchSmallerThanIddEEbRKT_RKT0_RKNS_9NumTraitsIS2_E4RealE"
 "_ZN5Eigen8internal17mapbase_evaluatorINS_3MapIKNS_6MatrixIdLin1ELin1ELi0ELin1ELin1EEELi0ENS_6StrideILi0ELi0EEEEES5_EC2ERKS8_"
 "_ZN5Eigen8internal17mapbase_evaluatorINS_3MapIKNS_6MatrixIdLin1ELin1ELi0ELin1ELin1EEELi0ENS_6StrideILi0ELi0EEEEES5_ED2Ev"
 "_ZN5Eigen8internal17mapbase_evaluatorINS_3MapINS_6MatrixIN4stan4math3varELin1ELi1ELi0ELin1ELi1EEELi0ENS_6StrideILi0ELi0EEEEES7_EC2ERKSA_"
 "_ZN5Eigen8internal17mapbase_evaluatorINS_3MapINS_6MatrixIN4stan4math3varELin1ELi1ELi0ELin1ELi1EEELi0ENS_6StrideILi0ELi0EEEEES7_ED2Ev"
 "_ZN5Eigen8internal17mapbase_evaluatorINS_3MapINS_6MatrixIPN4stan4math4variELin1ELi1ELi0ELin1ELi1EEELi0ENS_6StrideILi0ELi0EEEEES8_E8coeffRefEx"
 "_ZN5Eigen8internal17mapbase_evaluatorINS_3MapINS_6MatrixIPN4stan4math4variELin1ELi1ELi0ELin1ELi1EEELi0ENS_6StrideILi0ELi0EEEEES8_EC2ERKSB_"
 "_ZN5Eigen8internal17mapbase_evaluatorINS_3MapINS_6MatrixIPN4stan4math4variELin1ELi1ELi0ELin1ELi1EEELi0ENS_6StrideILi0ELi0EEEEES8_ED2Ev"
 "_ZN5Eigen8internal17mapbase_evaluatorINS_3MapINS_6MatrixIPN4stan4math4variELin1ELin1ELi0ELin1ELin1EEELi0ENS_6StrideILi0ELi0EEEEES8_E8coeffRefEx"
 "_ZN5Eigen8internal17mapbase_evaluatorINS_3MapINS_6MatrixIPN4stan4math4variELin1ELin1ELi0ELin1ELin1EEELi0ENS_6StrideILi0ELi0EEEEES8_EC2ERKSB_"
 "_ZN5Eigen8internal17mapbase_evaluatorINS_3MapINS_6MatrixIPN4stan4math4variELin1ELin1ELi0ELin1ELin1EEELi0ENS_6StrideILi0ELi0EEEEES8_ED2Ev"
 "_ZN5Eigen8internal17mapbase_evaluatorINS_3MapINS_6MatrixIdLi1ELin1ELi1ELi1ELin1EEELi0ENS_6StrideILi0ELi0EEEEES4_EC2ERKS7_"
 "_ZN5Eigen8internal17mapbase_evaluatorINS_3MapINS_6MatrixIdLi1ELin1ELi1ELi1ELin1EEELi0ENS_6StrideILi0ELi0EEEEES4_ED2Ev"
 "_ZN5Eigen8internal17mapbase_evaluatorINS_3MapINS_6MatrixIdLin1ELi1ELi0ELin1ELi1EEELi0ENS_6StrideILi0ELi0EEEEES4_E8coeffRefEx"
 "_ZN5Eigen8internal17mapbase_evaluatorINS_3MapINS_6MatrixIdLin1ELi1ELi0ELin1ELi1EEELi0ENS_6StrideILi0ELi0EEEEES4_EC2ERKS7_"
 "_ZN5Eigen8internal17mapbase_evaluatorINS_3MapINS_6MatrixIdLin1ELi1ELi0ELin1ELi1EEELi0ENS_6StrideILi0ELi0EEEEES4_ED2Ev"
 "_ZN5Eigen8internal17mapbase_evaluatorINS_3MapINS_6MatrixIdLin1ELin1ELi0ELin1ELin1EEELi0ENS_6StrideILi0ELi0EEEEES4_E8coeffRefEx"
 "_ZN5Eigen8internal17mapbase_evaluatorINS_3MapINS_6MatrixIdLin1ELin1ELi0ELin1ELin1EEELi0ENS_6StrideILi0ELi0EEEEES4_EC2ERKS7_"
 "_ZN5Eigen8internal17mapbase_evaluatorINS_3MapINS_6MatrixIdLin1ELin1ELi0ELin1ELin1EEELi0ENS_6StrideILi0ELi0EEEEES4_ED2Ev"
 "_ZN5Eigen8internal17mapbase_evaluatorINS_5BlockIKNS2_INS2_INS_6MatrixIdLin1ELin1ELi0ELin1ELin1EEELin1ELi1ELb1EEELin1ELi1ELb0EEELin1ELi1ELb0EEENS3_IdLin1ELi1ELi0ELin1ELi1EEEED2Ev"
 "_ZN5Eigen8internal17mapbase_evaluatorINS_5BlockIKNS2_INS_6MatrixIdLin1ELi1ELi0ELin1ELi1EEELin1ELi1ELb0EEELin1ELi1ELb0EEES4_ED2Ev"
 "_ZN5Eigen8internal17mapbase_evaluatorINS_5BlockIKNS_6MatrixIdLin1ELin1ELi0ELin1ELin1EEELi1ELin1ELb0EEENS3_IdLi1ELin1ELi1ELi1ELin1EEEEC2ERKS6_"
 "_ZN5Eigen8internal17mapbase_evaluatorINS_5BlockIKNS_6MatrixIdLin1ELin1ELi0ELin1ELin1EEELi1ELin1ELb0EEENS3_IdLi1ELin1ELi1ELi1ELin1EEEED2Ev"
 "_ZN5Eigen8internal17mapbase_evaluatorINS_5BlockIKNS_6MatrixIdLin1ELin1ELi0ELin1ELin1EEELin1ELi1ELb1EEENS3_IdLin1ELi1ELi0ELin1ELi1EEEEC2ERKS6_"
 "_ZN5Eigen8internal17mapbase_evaluatorINS_5BlockIKNS_6MatrixIdLin1ELin1ELi0ELin1ELin1EEELin1ELi1ELb1EEENS3_IdLin1ELi1ELi0ELin1ELi1EEEED2Ev"
 "_ZN5Eigen8internal17mapbase_evaluatorINS_5BlockINS2_INS2_INS_6MatrixIdLin1ELin1ELi0ELin1ELin1EEELin1ELi1ELb1EEELin1ELi1ELb0EEELin1ELi1ELb0EEENS3_IdLin1ELi1ELi0ELin1ELi1EEEED2Ev"
 "_ZN5Eigen8internal17mapbase_evaluatorINS_5BlockINS2_INS_6MatrixIdLin1ELin1ELi0ELin1ELin1EEELi1ELin1ELb0EEELi1ELin1ELb0EEENS3_IdLi1ELin1ELi1ELi1ELin1EEEE8coeffRefEx"
 "_ZN5Eigen8internal17mapbase_evaluatorINS_5BlockINS2_INS_6MatrixIdLin1ELin1ELi0ELin1ELin1EEELi1ELin1ELb0EEELi1ELin1ELb0EEENS3_IdLi1ELin1ELi1ELi1ELin1EEEEC2ERKS6_"
 "_ZN5Eigen8internal17mapbase_evaluatorINS_5BlockINS2_INS_6MatrixIdLin1ELin1ELi0ELin1ELin1EEELi1ELin1ELb0EEELi1ELin1ELb0EEENS3_IdLi1ELin1ELi1ELi1ELin1EEEED2Ev"
 "_ZN5Eigen8internal17mapbase_evaluatorINS_5BlockINS2_INS_6MatrixIdLin1ELin1ELi0ELin1ELin1EEELin1ELi1ELb1EEELin1ELi1ELb0EEENS3_IdLin1ELi1ELi0ELin1ELi1EEEE11writePacketILi0EDv2_dEEvxRKT0_"
 "_ZN5Eigen8internal17mapbase_evaluatorINS_5BlockINS2_INS_6MatrixIdLin1ELin1ELi0ELin1ELin1EEELin1ELi1ELb1EEELin1ELi1ELb0EEENS3_IdLin1ELi1ELi0ELin1ELi1EEEE11writePacketILi16EDv2_dEEvxRKT0_"
 "_ZN5Eigen8internal17mapbase_evaluatorINS_5BlockINS2_INS_6MatrixIdLin1ELin1ELi0ELin1ELin1EEELin1ELi1ELb1EEELin1ELi1ELb0EEENS3_IdLin1ELi1ELi0ELin1ELi1EEEE8coeffRefEx"
 "_ZN5Eigen8internal17mapbase_evaluatorINS_5BlockINS2_INS_6MatrixIdLin1ELin1ELi0ELin1ELin1EEELin1ELi1ELb1EEELin1ELi1ELb0EEENS3_IdLin1ELi1ELi0ELin1ELi1EEEEC2ERKS6_"
 "_ZN5Eigen8internal17mapbase_evaluatorINS_5BlockINS2_INS_6MatrixIdLin1ELin1ELi0ELin1ELin1EEELin1ELi1ELb1EEELin1ELi1ELb0EEENS3_IdLin1ELi1ELi0ELin1ELi1EEEED2Ev"
 "_ZN5Eigen8internal17mapbase_evaluatorINS_5BlockINS2_INS_6MatrixIdLin1ELin1ELi0ELin1ELin1EEELin1ELin1ELb0EEELi1ELin1ELb0EEENS3_IdLi1ELin1ELi1ELi1ELin1EEEEC2ERKS6_"
 "_ZN5Eigen8internal17mapbase_evaluatorINS_5BlockINS2_INS_6MatrixIdLin1ELin1ELi0ELin1ELin1EEELin1ELin1ELb0EEELi1ELin1ELb0EEENS3_IdLi1ELin1ELi1ELi1ELin1EEEED2Ev"
 "_ZN5Eigen8internal17mapbase_evaluatorINS_5BlockINS2_INS_6MatrixIdLin1ELin1ELi0ELin1ELin1EEELin1ELin1ELb0EEELin1ELi1ELb0EEENS3_IdLin1ELi1ELi0ELin1ELi1EEEE8coeffRefEx"
 "_ZN5Eigen8internal17mapbase_evaluatorINS_5BlockINS2_INS_6MatrixIdLin1ELin1ELi0ELin1ELin1EEELin1ELin1ELb0EEELin1ELi1ELb0EEENS3_IdLin1ELi1ELi0ELin1ELi1EEEEC2ERKS6_"
 "_ZN5Eigen8internal17mapbase_evaluatorINS_5BlockINS2_INS_6MatrixIdLin1ELin1ELi0ELin1ELin1EEELin1ELin1ELb0EEELin1ELi1ELb0EEENS3_IdLin1ELi1ELi0ELin1ELi1EEEED2Ev"
 "_ZN5Eigen8internal17mapbase_evaluatorINS_5BlockINS_6MatrixIdLin1ELi1ELi0ELin1ELi1EEELin1ELi1ELb0EEES4_E8coeffRefEx"
 "_ZN5Eigen8internal17mapbase_evaluatorINS_5BlockINS_6MatrixIdLin1ELi1ELi0ELin1ELi1EEELin1ELi1ELb0EEES4_EC2ERKS5_"
 "_ZN5Eigen8internal17mapbase_evaluatorINS_5BlockINS_6MatrixIdLin1ELi1ELi0ELin1ELi1EEELin1ELi1ELb0EEES4_ED2Ev"
 "_ZN5Eigen8internal17mapbase_evaluatorINS_5BlockINS_6MatrixIdLin1ELin1ELi0ELin1ELin1EEELi1ELin1ELb0EEENS3_IdLi1ELin1ELi1ELi1ELin1EEEEC2ERKS5_"
 "_ZN5Eigen8internal17mapbase_evaluatorINS_5BlockINS_6MatrixIdLin1ELin1ELi0ELin1ELin1EEELi1ELin1ELb0EEENS3_IdLi1ELin1ELi1ELi1ELin1EEEED2Ev"
 "_ZN5Eigen8internal17mapbase_evaluatorINS_5BlockINS_6MatrixIdLin1ELin1ELi0ELin1ELin1EEELin1ELi1ELb0EEENS3_IdLin1ELi1ELi0ELin1ELi1EEEE8coeffRefEx"
 "_ZN5Eigen8internal17mapbase_evaluatorINS_5BlockINS_6MatrixIdLin1ELin1ELi0ELin1ELin1EEELin1ELi1ELb0EEENS3_IdLin1ELi1ELi0ELin1ELi1EEEEC2ERKS5_"
 "_ZN5Eigen8internal17mapbase_evaluatorINS_5BlockINS_6MatrixIdLin1ELin1ELi0ELin1ELin1EEELin1ELi1ELb0EEENS3_IdLin1ELi1ELi0ELin1ELi1EEEED2Ev"
 "_ZN5Eigen8internal17mapbase_evaluatorINS_5BlockINS_6MatrixIdLin1ELin1ELi0ELin1ELin1EEELin1ELi1ELb1EEENS3_IdLin1ELi1ELi0ELin1ELi1EEEE11writePacketILi0EDv2_dEEvxRKT0_"
 "_ZN5Eigen8internal17mapbase_evaluatorINS_5BlockINS_6MatrixIdLin1ELin1ELi0ELin1ELin1EEELin1ELi1ELb1EEENS3_IdLin1ELi1ELi0ELin1ELi1EEEE11writePacketILi16EDv2_dEEvxRKT0_"
 "_ZN5Eigen8internal17mapbase_evaluatorINS_5BlockINS_6MatrixIdLin1ELin1ELi0ELin1ELin1EEELin1ELi1ELb1EEENS3_IdLin1ELi1ELi0ELin1ELi1EEEE8coeffRefEx"
 "_ZN5Eigen8internal17mapbase_evaluatorINS_5BlockINS_6MatrixIdLin1ELin1ELi0ELin1ELin1EEELin1ELi1ELb1EEENS3_IdLin1ELi1ELi0ELin1ELi1EEEEC2ERKS5_"
 "_ZN5Eigen8internal17mapbase_evaluatorINS_5BlockINS_6MatrixIdLin1ELin1ELi0ELin1ELin1EEELin1ELi1ELb1EEENS3_IdLin1ELi1ELi0ELin1ELi1EEEED2Ev"
 "_ZN5Eigen8internal17mapbase_evaluatorINS_5BlockINS_6MatrixIdLin1ELin1ELi0ELin1ELin1EEELin1ELin1ELb0EEES4_E8coeffRefExx"
 "_ZN5Eigen8internal17mapbase_evaluatorINS_5BlockINS_6MatrixIdLin1ELin1ELi0ELin1ELin1EEELin1ELin1ELb0EEES4_EC2ERKS5_"
 "_ZN5Eigen8internal17mapbase_evaluatorINS_5BlockINS_6MatrixIdLin1ELin1ELi0ELin1ELin1EEELin1ELin1ELb0EEES4_ED2Ev"
 "_ZN5Eigen8internal17mapbase_evaluatorINS_5BlockINS_8DiagonalINS_6MatrixIdLin1ELin1ELi0ELin1ELin1EEELi0EEELin1ELi1ELb0EEENS4_IdLin1ELi1ELi0ELin1ELi1EEEEC2ERKS7_"
 "_ZN5Eigen8internal17mapbase_evaluatorINS_5BlockINS_8DiagonalINS_6MatrixIdLin1ELin1ELi0ELin1ELin1EEELi0EEELin1ELi1ELb0EEENS4_IdLin1ELi1ELi0ELin1ELi1EEEED2Ev"
 "_ZN5Eigen8internal17max_coeff_visitorINS_12CwiseUnaryOpINS0_13scalar_abs_opIdEEKNS_5BlockINS_8DiagonalINS_6MatrixIdLin1ELin1ELi0ELin1ELin1EEELi0EEELin1ELi1ELb0EEEEEEclERKdxx"
 "_ZN5Eigen8internal17min_coeff_visitorINS_5BlockINS_6MatrixIdLin1ELi1ELi0ELin1ELi1EEELin1ELi1ELb0EEEEclERKdxx"
 "_ZN5Eigen8internal17product_evaluatorINS_7ProductINS_13CwiseBinaryOpINS0_17scalar_product_opIddEEKNS_14CwiseNullaryOpINS0_18scalar_constant_opIdEEKNS_6MatrixIdLin1ELin1ELi0ELin1ELin1EEEEESB_EENS_9TransposeISA_EELi1EEELi8ENS_10DenseShapeESI_ddED2Ev"
 "_ZN5Eigen8internal17product_evaluatorINS_7ProductINS_15DiagonalWrapperIKNS_5BlockINS_8DiagonalINS_6MatrixIdLin1ELin1ELi0ELin1ELin1EEELi0EEELin1ELi1ELb0EEEEENS_9TransposeIKNS4_IS7_Li1ELin1ELb0EEEEELi1EEELi7ENS_13DiagonalShapeENS_10DenseShapeEddEC2ERKSG_"
 "_ZN5Eigen8internal17product_evaluatorINS_7ProductINS_15DiagonalWrapperIKNS_5BlockINS_8DiagonalINS_6MatrixIdLin1ELin1ELi0ELin1ELin1EEELi0EEELin1ELi1ELb0EEEEENS_9TransposeIKNS4_IS7_Li1ELin1ELb0EEEEELi1EEELi7ENS_13DiagonalShapeENS_10DenseShapeEddED2Ev"
 "_ZN5Eigen8internal17product_evaluatorINS_7ProductINS_3MapINS_6MatrixIdLi1ELin1ELi1ELi1ELin1EEELi0ENS_6StrideILi0ELi0EEEEENS3_INS4_IdLin1ELi1ELi0ELin1ELi1EEELi0ES7_EELi0EEELi6ENS_10DenseShapeESC_ddEC2ERKSB_"
 "_ZN5Eigen8internal17product_evaluatorINS_7ProductINS_3MapINS_6MatrixIdLi1ELin1ELi1ELi1ELin1EEELi0ENS_6StrideILi0ELi0EEEEENS3_INS4_IdLin1ELi1ELi0ELin1ELi1EEELi0ES7_EELi0EEELi6ENS_10DenseShapeESC_ddED2Ev"
 "_ZN5Eigen8internal17product_evaluatorINS_7ProductINS_3MapINS_6MatrixIdLin1ELin1ELi0ELin1ELin1EEELi0ENS_6StrideILi0ELi0EEEEES8_Li0EEELi8ENS_10DenseShapeESA_ddED2Ev"
 "_ZN5Eigen8internal17product_evaluatorINS_7ProductINS_5BlockINS_6MatrixIdLin1ELin1ELi0ELin1ELin1EEELi1ELin1ELb0EEENS3_INS4_IdLin1ELi1ELi0ELin1ELi1EEELin1ELi1ELb0EEELi0EEELi6ENS_10DenseShapeESA_ddEC2ERKS9_"
 "_ZN5Eigen8internal17product_evaluatorINS_7ProductINS_5BlockINS_6MatrixIdLin1ELin1ELi0ELin1ELin1EEELi1ELin1ELb0EEENS3_INS4_IdLin1ELi1ELi0ELin1ELi1EEELin1ELi1ELb0EEELi0EEELi6ENS_10DenseShapeESA_ddED2Ev"
 "_ZN5Eigen8internal17product_evaluatorINS_7ProductINS_6MatrixIdLin1ELin1ELi0ELin1ELin1EEENS3_IdLin1ELi1ELi0ELin1ELi1EEELi0EEELi7ENS_10DenseShapeES7_ddEC2ERKS6_"
 "_ZN5Eigen8internal17product_evaluatorINS_7ProductINS_6MatrixIdLin1ELin1ELi0ELin1ELin1EEENS3_IdLin1ELi1ELi0ELin1ELi1EEELi0EEELi7ENS_10DenseShapeES7_ddED2Ev"
 "_ZN5Eigen8internal17real_default_implIdLb0EE3runERKd"
 "_ZN5Eigen8internal17resize_if_allowedINS_12ArrayWrapperINS_6MatrixIdLin1ELi1ELi0ELin1ELi1EEEEENS2_IKS4_EENS0_13div_assign_opIddEEEEvRT_RKT0_RKT1_"
 "_ZN5Eigen8internal17resize_if_allowedINS_12ArrayWrapperINS_6MatrixIdLin1ELi1ELi0ELin1ELi1EEEEENS_13CwiseBinaryOpINS0_17scalar_product_opIddEEKS5_S9_EENS0_13add_assign_opIddEEEEvRT_RKT0_RKT1_"
 "_ZN5Eigen8internal17resize_if_allowedINS_12ArrayWrapperINS_6MatrixIdLin1ELi1ELi0ELin1ELi1EEEEENS_14CwiseNullaryOpINS0_18scalar_constant_opIdEENS_5ArrayIdLin1ELi1ELi0ELin1ELi1EEEEENS0_13add_assign_opIddEEEEvRT_RKT0_RKT1_"
 "_ZN5Eigen8internal17resize_if_allowedINS_12ArrayWrapperINS_6MatrixIdLin1ELin1ELi0ELin1ELin1EEEEENS2_IKS4_EENS0_13div_assign_opIddEEEEvRT_RKT0_RKT1_"
 "_ZN5Eigen8internal17resize_if_allowedINS_12ArrayWrapperINS_6MatrixIdLin1ELin1ELi0ELin1ELin1EEEEENS_14CwiseNullaryOpINS0_18scalar_constant_opIdEENS_5ArrayIdLin1ELin1ELi0ELin1ELin1EEEEENS0_13add_assign_opIddEEEEvRT_RKT0_RKT1_"
 "_ZN5Eigen8internal17resize_if_allowedINS_12ArrayWrapperINS_8DiagonalINS_6MatrixIdLin1ELin1ELi0ELin1ELin1EEELi0EEEEENS_12CwiseUnaryOpINS0_17scalar_inverse_opIdEEKNS2_IKNS3_IKS5_Li0EEEEEEENS0_13add_assign_opIddEEEEvRT_RKT0_RKT1_"
 "_ZN5Eigen8internal17resize_if_allowedINS_14CwiseUnaryViewINS_10MatrixBaseINS_6MatrixIN4stan4math3varELin1ELi1ELi0ELin1ELi1EEEE5vi_OpES8_EENS_3MapINS4_IPNS6_4variELin1ELin1ELi0ELin1ELin1EEELi0ENS_6StrideILi0ELi0EEEEESE_SE_EEvRT_RKT0_RKNS0_9assign_opIT1_T2_EE"
 "_ZN5Eigen8internal17resize_if_allowedINS_3MapINS_6MatrixIPN4stan4math4variELin1ELi1ELi0ELin1ELi1EEELi0ENS_6StrideILi0ELi0EEEEENS_12CwiseUnaryOpINS_10MatrixBaseINS3_INS5_3varELin1ELi1ELi0ELin1ELi1EEEE5vi_OpEKSF_EES7_S7_EEvRT_RKT0_RKNS0_9assign_opIT1_T2_EE"
 "_ZN5Eigen8internal17resize_if_allowedINS_3MapINS_6MatrixIPN4stan4math4variELin1ELin1ELi0ELin1ELin1EEELi0ENS_6StrideILi0ELi0EEEEENS_12CwiseUnaryOpINS_10MatrixBaseINS3_INS5_3varELin1ELi1ELi0ELin1ELi1EEEE5vi_OpEKSF_EES7_S7_EEvRT_RKT0_RKNS0_9assign_opIT1_T2_EE"
 "_ZN5Eigen8internal17resize_if_allowedINS_3MapINS_6MatrixIPN4stan4math4variELin1ELin1ELi0ELin1ELin1EEELi0ENS_6StrideILi0ELi0EEEEENS_12CwiseUnaryOpIZNS5_17multiply_mat_variIdLin1ELin1ENS5_3varELi1EEC4ERKNS3_IdLin1ELin1ELi0ELin1ELin1EEERKNS3_ISE_Lin1ELi1ELi0ELin1ELi1EEEEUldE_KNS_7ProductINS2_ISG_Li0ESA_EESO_Li0EEEEES7_S7_EEvRT_RKT0_RKNS0_9assign_opIT1_T2_EE"
 "_ZN5Eigen8internal17resize_if_allowedINS_3MapINS_6MatrixIdLi1ELin1ELi1ELi1ELin1EEELi0ENS_6StrideILi0ELi0EEEEES4_ddEEvRT_RKT0_RKNS0_9assign_opIT1_T2_EE"
 "_ZN5Eigen8internal17resize_if_allowedINS_3MapINS_6MatrixIdLin1ELi1ELi0ELin1ELi1EEELi0ENS_6StrideILi0ELi0EEEEENS_12CwiseUnaryOpINS_10MatrixBaseINS3_IN4stan4math3varELin1ELi1ELi0ELin1ELi1EEEE6val_OpEKSD_EEddEEvRT_RKT0_RKNS0_9assign_opIT1_T2_EE"
 "_ZN5Eigen8internal17resize_if_allowedINS_3MapINS_6MatrixIdLin1ELi1ELi0ELin1ELi1EEELi0ENS_6StrideILi0ELi0EEEEENS_13CwiseBinaryOpINS0_13scalar_sum_opIddEEKNS8_INS0_17scalar_product_opIddEEKNS_14CwiseNullaryOpINS0_18scalar_constant_opIdEEKS4_EEKNS_5BlockIKNSJ_IS4_Lin1ELi1ELb0EEELin1ELi1ELb0EEEEEKNS8_ISC_SI_KNSJ_IKNSJ_INSJ_INS3_IdLin1ELin1ELi0ELin1ELin1EEELin1ELi1ELb1EEELin1ELi1ELb0EEELin1ELi1ELb0EEEEEEENS0_13add_assign_opIddEEEEvRT_RKT0_RKT1_"
 "_ZN5Eigen8internal17resize_if_allowedINS_3MapINS_6MatrixIdLin1ELi1ELi0ELin1ELi1EEELi0ENS_6StrideILi0ELi0EEEEENS_14CwiseNullaryOpINS0_18scalar_constant_opIdEES4_EEddEEvRT_RKT0_RKNS0_9assign_opIT1_T2_EE"
 "_ZN5Eigen8internal17resize_if_allowedINS_3MapINS_6MatrixIdLin1ELin1ELi0ELin1ELin1EEELi0ENS_6StrideILi0ELi0EEEEENS_12CwiseUnaryOpINS_10MatrixBaseINS3_IN4stan4math3varELin1ELi1ELi0ELin1ELi1EEEE6val_OpEKSD_EEddEEvRT_RKT0_RKNS0_9assign_opIT1_T2_EE"
 "_ZN5Eigen8internal17resize_if_allowedINS_3MapINS_6MatrixIdLin1ELin1ELi0ELin1ELin1EEELi0ENS_6StrideILi0ELi0EEEEES4_ddEEvRT_RKT0_RKNS0_9assign_opIT1_T2_EE"
 "_ZN5Eigen8internal17resize_if_allowedINS_5BlockINS2_INS2_INS_6MatrixIdLin1ELin1ELi0ELin1ELin1EEELin1ELi1ELb1EEELin1ELi1ELb0EEELin1ELi1ELb0EEENS_13CwiseBinaryOpINS0_18scalar_quotient_opIddEEKNS2_IKS6_Lin1ELi1ELb0EEEKNS_14CwiseNullaryOpINS0_18scalar_constant_opIdEEKNS3_IdLin1ELi1ELi0ELin1ELi1EEEEEEEddEEvRT_RKT0_RKNS0_9assign_opIT1_T2_EE"
 "_ZN5Eigen8internal17resize_if_allowedINS_5BlockINS2_INS_6MatrixIdLin1ELin1ELi0ELin1ELin1EEELi1ELin1ELb0EEELi1ELin1ELb0EEES6_NS0_14swap_assign_opIdEEEEvRT_RKT0_RKT1_"
 "_ZN5Eigen8internal17resize_if_allowedINS_5BlockINS2_INS_6MatrixIdLin1ELin1ELi0ELin1ELin1EEELin1ELi1ELb1EEELin1ELi1ELb0EEES6_NS0_14swap_assign_opIdEEEEvRT_RKT0_RKT1_"
 "_ZN5Eigen8internal17resize_if_allowedINS_5BlockINS2_INS_6MatrixIdLin1ELin1ELi0ELin1ELin1EEELin1ELin1ELb0EEELin1ELi1ELb0EEENS_14CwiseNullaryOpINS0_18scalar_constant_opIdEENS3_IdLin1ELi1ELi0ELin1ELi1EEEEENS0_13div_assign_opIddEEEEvRT_RKT0_RKT1_"
 "_ZN5Eigen8internal17resize_if_allowedINS_5BlockINS_6MatrixIdLin1ELi1ELi0ELin1ELi1EEELin1ELi1ELb0EEENS_13CwiseBinaryOpINS0_17scalar_product_opIddEEKNS_14CwiseNullaryOpINS0_18scalar_constant_opIdEEKS4_EEKNS2_INS2_INS3_IdLin1ELin1ELi0ELin1ELin1EEELin1ELi1ELb1EEELin1ELi1ELb0EEEEENS0_13add_assign_opIddEEEEvRT_RKT0_RKT1_"
 "_ZN5Eigen8internal17resize_if_allowedINS_5BlockINS_6MatrixIdLin1ELi1ELi0ELin1ELi1EEELin1ELi1ELb0EEENS_7ProductINS_15DiagonalWrapperIKNS2_INS_8DiagonalINS3_IdLin1ELin1ELi0ELin1ELin1EEELi0EEELin1ELi1ELb0EEEEENS_9TransposeIKNS2_IS9_Li1ELin1ELb0EEEEELi1EEEddEEvRT_RKT0_RKNS0_9assign_opIT1_T2_EE"
 "_ZN5Eigen8internal17resize_if_allowedINS_5BlockINS_6MatrixIdLin1ELin1ELi0ELin1ELin1EEELin1ELi1ELb0EEENS_14CwiseNullaryOpINS0_18scalar_constant_opIdEENS3_IdLin1ELi1ELi0ELin1ELi1EEEEENS0_13div_assign_opIddEEEEvRT_RKT0_RKT1_"
 "_ZN5Eigen8internal17resize_if_allowedINS_5BlockINS_6MatrixIdLin1ELin1ELi0ELin1ELin1EEELin1ELi1ELb1EEES5_NS0_14swap_assign_opIdEEEEvRT_RKT0_RKT1_"
 "_ZN5Eigen8internal17resize_if_allowedINS_6MatrixIN4stan4math3varELin1ELi1ELi0ELin1ELi1EEENS2_IdLin1ELi1ELi0ELin1ELi1EEES5_dEEvRT_RKT0_RKNS0_9assign_opIT1_T2_EE"
 "_ZN5Eigen8internal17resize_if_allowedINS_6MatrixIN4stan4math3varELin1ELi1ELi0ELin1ELi1EEENS_12CwiseUnaryOpIZNS4_18apply_scalar_unaryINS4_7exp_funES6_E5applyERKS6_EUlS5_E_SB_EES5_S5_EEvRT_RKT0_RKNS0_9assign_opIT1_T2_EE"
 "_ZN5Eigen8internal17resize_if_allowedINS_6MatrixIN4stan4math3varELin1ELi1ELi0ELin1ELi1EEENS_12CwiseUnaryOpIZNS4_18apply_scalar_unaryINS4_7log_funES6_E5applyERKS6_EUlS5_E_SB_EES5_S5_EEvRT_RKT0_RKNS0_9assign_opIT1_T2_EE"
 "_ZN5Eigen8internal17resize_if_allowedINS_6MatrixIN4stan4math3varELin1ELi1ELi0ELin1ELi1EEENS_13CwiseBinaryOpINS0_13scalar_sum_opIdS5_EEKNS_14CwiseNullaryOpINS0_18scalar_constant_opIdEEKNS_5ArrayIdLin1ELi1ELi0ELin1ELi1EEEEEKNS_12ArrayWrapperIKS6_EEEES5_S5_EEvRT_RKT0_RKNS0_9assign_opIT1_T2_EE"
 "_ZN5Eigen8internal17resize_if_allowedINS_6MatrixIN4stan4math3varELin1ELi1ELi0ELin1ELi1EEENS_13CwiseBinaryOpINS0_17scalar_product_opIS5_S5_EEKS6_SA_EES5_S5_EEvRT_RKT0_RKNS0_9assign_opIT1_T2_EE"
 "_ZN5Eigen8internal17resize_if_allowedINS_6MatrixIN4stan4math3varELin1ELi1ELi0ELin1ELi1EEENS_13CwiseBinaryOpINS0_18scalar_quotient_opIdS5_EEKNS_14CwiseNullaryOpINS0_18scalar_constant_opIdEEKNS_5ArrayIdLin1ELi1ELi0ELin1ELi1EEEEEKNS_12ArrayWrapperIKS6_EEEES5_S5_EEvRT_RKT0_RKNS0_9assign_opIT1_T2_EE"
 "_ZN5Eigen8internal17resize_if_allowedINS_6MatrixIN4stan4math3varELin1ELi1ELi0ELin1ELi1EEENS_13CwiseBinaryOpINS0_20scalar_difference_opIS5_S5_EEKNS_14CwiseNullaryOpINS0_18scalar_constant_opIS5_EEKNS_5ArrayIS5_Lin1ELi1ELi0ELin1ELi1EEEEEKNS_12ArrayWrapperIKS6_EEEES5_S5_EEvRT_RKT0_RKNS0_9assign_opIT1_T2_EE"
 "_ZN5Eigen8internal17resize_if_allowedINS_6MatrixIN4stan4math3varELin1ELi1ELi0ELin1ELi1EEENS_13CwiseBinaryOpINS0_20scalar_difference_opIS5_dEEKS6_KNS2_IdLin1ELi1ELi0ELin1ELi1EEEEES5_S5_EEvRT_RKT0_RKNS0_9assign_opIT1_T2_EE"
 "_ZN5Eigen8internal17resize_if_allowedINS_6MatrixIN4stan4math3varELin1ELi1ELi0ELin1ELi1EEENS_3MapIS6_Li0ENS_6StrideILi0ELi0EEEEES5_S5_EEvRT_RKT0_RKNS0_9assign_opIT1_T2_EE"
 "_ZN5Eigen8internal17resize_if_allowedINS_6MatrixIN4stan4math3varELin1ELi1ELi0ELin1ELi1EEES6_S5_S5_EEvRT_RKT0_RKNS0_9assign_opIT1_T2_EE"
 "_ZN5Eigen8internal17resize_if_allowedINS_6MatrixIdLi1ELin1ELi1ELi1ELin1EEENS_13CwiseBinaryOpINS0_17scalar_product_opIddEEKNS_14CwiseNullaryOpINS0_18scalar_constant_opIdEEKS3_EESA_EEddEEvRT_RKT0_RKNS0_9assign_opIT1_T2_EE"
 "_ZN5Eigen8internal17resize_if_allowedINS_6MatrixIdLi4ELi4ELi0ELi4ELi4EEENS_14CwiseNullaryOpINS0_18scalar_constant_opIdEES3_EEddEEvRT_RKT0_RKNS0_9assign_opIT1_T2_EE"
 "_ZN5Eigen8internal17resize_if_allowedINS_6MatrixIdLin1ELi1ELi0ELin1ELi1EEENS_12CwiseUnaryOpINS0_14scalar_sqrt_opIdEEKNS_12ArrayWrapperIKS3_EEEEddEEvRT_RKT0_RKNS0_9assign_opIT1_T2_EE"
 "_ZN5Eigen8internal17resize_if_allowedINS_6MatrixIdLin1ELi1ELi0ELin1ELi1EEENS_12CwiseUnaryOpINS0_16scalar_square_opIdEEKNS_12ArrayWrapperIKS3_EEEEddEEvRT_RKT0_RKNS0_9assign_opIT1_T2_EE"
 "_ZN5Eigen8internal17resize_if_allowedINS_6MatrixIdLin1ELi1ELi0ELin1ELi1EEENS_12CwiseUnaryOpINS0_18scalar_opposite_opIdEEKNS_7ProductINS2_IdLin1ELin1ELi0ELin1ELin1EEES3_Li0EEEEEddEEvRT_RKT0_RKNS0_9assign_opIT1_T2_EE"
 "_ZN5Eigen8internal17resize_if_allowedINS_6MatrixIdLin1ELi1ELi0ELin1ELi1EEENS_12CwiseUnaryOpINS0_18scalar_opposite_opIdEEKS3_EEddEEvRT_RKT0_RKNS0_9assign_opIT1_T2_EE"
 "_ZN5Eigen8internal17resize_if_allowedINS_6MatrixIdLin1ELi1ELi0ELin1ELi1EEENS_12CwiseUnaryOpIZN4stan4math18apply_scalar_unaryINS6_7exp_funES3_E5applyERKS3_EUldE_SA_EEddEEvRT_RKT0_RKNS0_9assign_opIT1_T2_EE"
 "_ZN5Eigen8internal17resize_if_allowedINS_6MatrixIdLin1ELi1ELi0ELin1ELi1EEENS_12CwiseUnaryOpIZN4stan4math18apply_scalar_unaryINS6_7log_funES3_E5applyERKS3_EUldE_SA_EEddEEvRT_RKT0_RKNS0_9assign_opIT1_T2_EE"
 "_ZN5Eigen8internal17resize_if_allowedINS_6MatrixIdLin1ELi1ELi0ELin1ELi1EEENS_13CwiseBinaryOpINS0_13scalar_sum_opIddEEKNS4_INS0_17scalar_product_opIddEEKNS_12ArrayWrapperIKS3_EEKNS_12CwiseUnaryOpINS0_13scalar_exp_opIdEESC_EEEESC_EEddEEvRT_RKT0_RKNS0_9assign_opIT1_T2_EE"
 "_ZN5Eigen8internal17resize_if_allowedINS_6MatrixIdLin1ELi1ELi0ELin1ELi1EEENS_13CwiseBinaryOpINS0_13scalar_sum_opIddEEKNS4_INS0_17scalar_product_opIddEEKNS_14CwiseNullaryOpINS0_18scalar_constant_opIdEEKS3_EESC_EEKNS4_IS8_SE_KNS9_ISB_S3_EEEEEEddEEvRT_RKT0_RKNS0_9assign_opIT1_T2_EE"
 "_ZN5Eigen8internal17resize_if_allowedINS_6MatrixIdLin1ELi1ELi0ELin1ELi1EEENS_13CwiseBinaryOpINS0_13scalar_sum_opIddEEKNS_14CwiseNullaryOpINS0_18scalar_constant_opIdEEKNS_5ArrayIdLin1ELi1ELi0ELin1ELi1EEEEEKNS_12ArrayWrapperIKS3_EEEEddEEvRT_RKT0_RKNS0_9assign_opIT1_T2_EE"
 "_ZN5Eigen8internal17resize_if_allowedINS_6MatrixIdLin1ELi1ELi0ELin1ELi1EEENS_13CwiseBinaryOpINS0_13scalar_sum_opIddEEKNS_7ProductINS2_IdLin1ELin1ELi0ELin1ELin1EEES3_Li0EEEKS3_EEddEEvRT_RKT0_RKNS0_9assign_opIT1_T2_EE"
 "_ZN5Eigen8internal17resize_if_allowedINS_6MatrixIdLin1ELi1ELi0ELin1ELi1EEENS_13CwiseBinaryOpINS0_13scalar_sum_opIddEEKS3_KNS4_INS0_17scalar_product_opIddEEKNS_14CwiseNullaryOpINS0_18scalar_constant_opIdEES7_EES7_EEEEddEEvRT_RKT0_RKNS0_9assign_opIT1_T2_EE"
 "_ZN5Eigen8internal17resize_if_allowedINS_6MatrixIdLin1ELi1ELi0ELin1ELi1EEENS_13CwiseBinaryOpINS0_17scalar_product_opIddEEKNS_14CwiseNullaryOpINS0_18scalar_constant_opIdEEKS3_EESA_EENS0_13add_assign_opIddEEEEvRT_RKT0_RKT1_"
 "_ZN5Eigen8internal17resize_if_allowedINS_6MatrixIdLin1ELi1ELi0ELin1ELi1EEENS_13CwiseBinaryOpINS0_17scalar_product_opIddEEKNS_14CwiseNullaryOpINS0_18scalar_constant_opIdEEKS3_EESA_EENS0_13sub_assign_opIddEEEEvRT_RKT0_RKT1_"
 "_ZN5Eigen8internal17resize_if_allowedINS_6MatrixIdLin1ELi1ELi0ELin1ELi1EEENS_13CwiseBinaryOpINS0_17scalar_product_opIddEEKS3_KNS4_INS0_20scalar_difference_opIddEES7_S7_EEEENS0_13add_assign_opIddEEEEvRT_RKT0_RKT1_"
 "_ZN5Eigen8internal17resize_if_allowedINS_6MatrixIdLin1ELi1ELi0ELin1ELi1EEENS_13CwiseBinaryOpINS0_17scalar_product_opIddEEKS3_S7_EEddEEvRT_RKT0_RKNS0_9assign_opIT1_T2_EE"
 "_ZN5Eigen8internal17resize_if_allowedINS_6MatrixIdLin1ELi1ELi0ELin1ELi1EEENS_13CwiseBinaryOpINS0_18scalar_quotient_opIddEEKNS_14CwiseNullaryOpINS0_18scalar_constant_opIdEEKNS_5ArrayIdLin1ELi1ELi0ELin1ELi1EEEEEKNS_12ArrayWrapperIKS3_EEEEddEEvRT_RKT0_RKNS0_9assign_opIT1_T2_EE"
 "_ZN5Eigen8internal17resize_if_allowedINS_6MatrixIdLin1ELi1ELi0ELin1ELi1EEENS_13CwiseBinaryOpINS0_18scalar_quotient_opIddEEKS3_KNS_14CwiseNullaryOpINS0_18scalar_constant_opIdEES7_EEEENS0_13add_assign_opIddEEEEvRT_RKT0_RKT1_"
 "_ZN5Eigen8internal17resize_if_allowedINS_6MatrixIdLin1ELi1ELi0ELin1ELi1EEENS_13CwiseBinaryOpINS0_18scalar_quotient_opIddEEKS3_KNS_14CwiseNullaryOpINS0_18scalar_constant_opIdEES7_EEEEddEEvRT_RKT0_RKNS0_9assign_opIT1_T2_EE"
 "_ZN5Eigen8internal17resize_if_allowedINS_6MatrixIdLin1ELi1ELi0ELin1ELi1EEENS_13CwiseBinaryOpINS0_20scalar_difference_opIddEEKNS_14CwiseNullaryOpINS0_18scalar_constant_opIdEEKNS_5ArrayIdLin1ELi1ELi0ELin1ELi1EEEEEKNS_12ArrayWrapperIKS3_EEEEddEEvRT_RKT0_RKNS0_9assign_opIT1_T2_EE"
 "_ZN5Eigen8internal17resize_if_allowedINS_6MatrixIdLin1ELi1ELi0ELin1ELi1EEENS_13CwiseBinaryOpINS0_20scalar_difference_opIddEEKS3_S7_EEddEEvRT_RKT0_RKNS0_9assign_opIT1_T2_EE"
 "_ZN5Eigen8internal17resize_if_allowedINS_6MatrixIdLin1ELi1ELi0ELin1ELi1EEENS_14CwiseNullaryOpINS0_18scalar_constant_opIdEES3_EENS0_13div_assign_opIddEEEEvRT_RKT0_RKT1_"
 "_ZN5Eigen8internal17resize_if_allowedINS_6MatrixIdLin1ELi1ELi0ELin1ELi1EEENS_14CwiseNullaryOpINS0_18scalar_constant_opIdEES3_EENS0_13mul_assign_opIddEEEEvRT_RKT0_RKT1_"
 "_ZN5Eigen8internal17resize_if_allowedINS_6MatrixIdLin1ELi1ELi0ELin1ELi1EEENS_14CwiseNullaryOpINS0_18scalar_constant_opIdEES3_EEddEEvRT_RKT0_RKNS0_9assign_opIT1_T2_EE"
 "_ZN5Eigen8internal17resize_if_allowedINS_6MatrixIdLin1ELi1ELi0ELin1ELi1EEENS_14CwiseUnaryViewINS_10MatrixBaseINS2_IN4stan4math3varELin1ELi1ELi0ELin1ELi1EEEE6adj_OpES9_EEddEEvRT_RKT0_RKNS0_9assign_opIT1_T2_EE"
 "_ZN5Eigen8internal17resize_if_allowedINS_6MatrixIdLin1ELi1ELi0ELin1ELi1EEENS_3MapIS3_Li0ENS_6StrideILi0ELi0EEEEEddEEvRT_RKT0_RKNS0_9assign_opIT1_T2_EE"
 "_ZN5Eigen8internal17resize_if_allowedINS_6MatrixIdLin1ELi1ELi0ELin1ELi1EEENS_8DiagonalINS2_IdLin1ELin1ELi0ELin1ELin1EEELi0EEEddEEvRT_RKT0_RKNS0_9assign_opIT1_T2_EE"
 "_ZN5Eigen8internal17resize_if_allowedINS_6MatrixIdLin1ELi1ELi0ELin1ELi1EEENS_8DiagonalINS2_IdLin1ELin1ELi0ELin1ELin1EEELin1EEEddEEvRT_RKT0_RKNS0_9assign_opIT1_T2_EE"
 "_ZN5Eigen8internal17resize_if_allowedINS_6MatrixIdLin1ELi1ELi0ELin1ELi1EEES3_NS0_13add_assign_opIddEEEEvRT_RKT0_RKT1_"
 "_ZN5Eigen8internal17resize_if_allowedINS_6MatrixIdLin1ELi1ELi0ELin1ELi1EEES3_ddEEvRT_RKT0_RKNS0_9assign_opIT1_T2_EE"
 "_ZN5Eigen8internal17resize_if_allowedINS_6MatrixIdLin1ELin1ELi0ELin1ELin1EEENS2_IdLin1ELin1ELi1ELin1ELin1EEEddEEvRT_RKT0_RKNS0_9assign_opIT1_T2_EE"
 "_ZN5Eigen8internal17resize_if_allowedINS_6MatrixIdLin1ELin1ELi0ELin1ELin1EEENS_12CwiseUnaryOpINS0_14scalar_sqrt_opIdEEKNS_12ArrayWrapperIKS3_EEEEddEEvRT_RKT0_RKNS0_9assign_opIT1_T2_EE"
 "_ZN5Eigen8internal17resize_if_allowedINS_6MatrixIdLin1ELin1ELi0ELin1ELin1EEENS_12CwiseUnaryOpINS0_16scalar_square_opIdEEKNS_12ArrayWrapperIKS3_EEEEddEEvRT_RKT0_RKNS0_9assign_opIT1_T2_EE"
 "_ZN5Eigen8internal17resize_if_allowedINS_6MatrixIdLin1ELin1ELi0ELin1ELin1EEENS_13CwiseBinaryOpINS0_13scalar_sum_opIddEEKNS4_INS0_17scalar_product_opIddEEKNS_14CwiseNullaryOpINS0_18scalar_constant_opIdEEKS3_EESC_EEKNS4_IS8_SE_KNS9_INS0_18scalar_identity_opIdEES3_EEEEEEddEEvRT_RKT0_RKNS0_9assign_opIT1_T2_EE"
 "_ZN5Eigen8internal17resize_if_allowedINS_6MatrixIdLin1ELin1ELi0ELin1ELin1EEENS_13CwiseBinaryOpINS0_17scalar_product_opIddEEKNS_14CwiseNullaryOpINS0_18scalar_constant_opIdEEKS3_EESA_EEddEEvRT_RKT0_RKNS0_9assign_opIT1_T2_EE"
 "_ZN5Eigen8internal17resize_if_allowedINS_6MatrixIdLin1ELin1ELi0ELin1ELin1EEENS_13CwiseBinaryOpINS0_18scalar_quotient_opIddEEKS3_KNS_14CwiseNullaryOpINS0_18scalar_constant_opIdEES7_EEEEddEEvRT_RKT0_RKNS0_9assign_opIT1_T2_EE"
 "_ZN5Eigen8internal17resize_if_allowedINS_6MatrixIdLin1ELin1ELi0ELin1ELin1EEENS_14CwiseNullaryOpINS0_18scalar_constant_opIdEES3_EENS0_13div_assign_opIddEEEEvRT_RKT0_RKT1_"
 "_ZN5Eigen8internal17resize_if_allowedINS_6MatrixIdLin1ELin1ELi0ELin1ELin1EEENS_14CwiseNullaryOpINS0_18scalar_constant_opIdEES3_EENS0_13mul_assign_opIddEEEEvRT_RKT0_RKT1_"
 "_ZN5Eigen8internal17resize_if_allowedINS_6MatrixIdLin1ELin1ELi0ELin1ELin1EEENS_14CwiseNullaryOpINS0_18scalar_constant_opIdEES3_EEddEEvRT_RKT0_RKNS0_9assign_opIT1_T2_EE"
 "_ZN5Eigen8internal17resize_if_allowedINS_6MatrixIdLin1ELin1ELi0ELin1ELin1EEENS_14CwiseNullaryOpINS0_18scalar_identity_opIdEES3_EEddEEvRT_RKT0_RKNS0_9assign_opIT1_T2_EE"
 "_ZN5Eigen8internal17resize_if_allowedINS_6MatrixIdLin1ELin1ELi0ELin1ELin1EEENS_14CwiseUnaryViewINS_10MatrixBaseINS_3MapINS2_IPN4stan4math4variELin1ELin1ELi0ELin1ELin1EEELi0ENS_6StrideILi0ELi0EEEEEE6adj_OpESE_EEddEEvRT_RKT0_RKNS0_9assign_opIT1_T2_EE"
 "_ZN5Eigen8internal17resize_if_allowedINS_6MatrixIdLin1ELin1ELi0ELin1ELin1EEENS_3MapIKS3_Li0ENS_6StrideILi0ELi0EEEEEddEEvRT_RKT0_RKNS0_9assign_opIT1_T2_EE"
 "_ZN5Eigen8internal17resize_if_allowedINS_6MatrixIdLin1ELin1ELi0ELin1ELin1EEENS_3MapIS3_Li0ENS_6StrideILi0ELi0EEEEEddEEvRT_RKT0_RKNS0_9assign_opIT1_T2_EE"
